(dp1
S'output'
p2
S"<type 'exceptions.NameError'> name 'endif' is not defined"
p3
sS'layer'
p4
S'/home/famihug/Apps/web2py/applications/mTask/views/default/index.html'
p5
sS'code'
p6
S'left_sidebar_enabled,right_sidebar_enabled=False,True\nresponse.write(\'\\n\', escape=False)\nresponse.write(\'<!DOCTYPE html>\\n<!-- paulirish.com/2008/conditional-stylesheets-vs-css-hacks-answer-neither/ -->\\n<!--[if lt IE 7]><html class="ie ie6 ie-lte9 ie-lte8 ie-lte7 no-js" lang="\', escape=False)\nresponse.write(T.accepted_language or \'en\')\nresponse.write(\'"> <![endif]-->\\n<!--[if IE 7]><html class="ie ie7 ie-lte9 ie-lte8 ie-lte7 no-js" lang="\', escape=False)\nresponse.write(T.accepted_language or \'en\')\nresponse.write(\'"> <![endif]-->\\n<!--[if IE 8]><html class="ie ie8 ie-lte9 ie-lte8 no-js" lang="\', escape=False)\nresponse.write(T.accepted_language or \'en\')\nresponse.write(\'"> <![endif]-->\\n<!--[if IE 9]><html class="ie9 ie-lte9 no-js" lang="\', escape=False)\nresponse.write(T.accepted_language or \'en\')\nresponse.write(\'"> <![endif]-->\\n<!--[if (gt IE 9)|!(IE)]><!--> <html class="no-js" lang="\', escape=False)\nresponse.write(T.accepted_language or \'en\')\nresponse.write(\'"> <!--<![endif]-->\\n<head>\\n  <meta charset="utf-8" />\\n  <!-- www.phpied.com/conditional-comments-block-downloads/ -->\\n  <!-- Always force latest IE rendering engine\\n\\t   (even in intranet) & Chrome Frame\\n\\t   Remove this if you use the .htaccess -->\\n  <!--[if IE]>\\n    <meta http-equiv="X-UA-Compatible" content="IE=edge\', escape=False)\nresponse.write(not request.is_local and \',chrome=1\' or \'\')\nresponse.write(\'">\\n  <![endif]-->\\n  \\n  <title>\', escape=False)\nresponse.write(response.title or request.application)\nresponse.write(\'</title>\\n  \\n  <!-- http://dev.w3.org/html5/markup/meta.name.html -->\\n  <meta name="application-name" content="\', escape=False)\nresponse.write(request.application)\nresponse.write(\'" />\\n  \\n  <!-- Speaking of Google, don\\\'t forget to set your site up:\\n\\t   http://google.com/webmasters -->\\n  <meta name="google-site-verification" content="" />\\n\\n  <!--  Mobile Viewport Fix\\n\\t  j.mp/mobileviewport & davidbcalhoun.com/2010/viewport-metatag\\n\\t  device-width: Occupy full width of the screen in its current orientation\\n\\t  initial-scale = 1.0 retains dimensions instead of zooming out if page height > device height\\n\\t  user-scalable = yes allows the user to zoom in -->\\n  <meta name="viewport" content="width=device-width, initial-scale=1.0, user-scalable=yes">\\n  \\n  <!-- Place favicon.ico and apple-touch-icon.png in the root of your domain and delete these references -->\\n  <link rel="shortcut icon" href="\', escape=False)\nresponse.write(URL(\'static\',\'favicon.ico\'))\nresponse.write(\'" type="image/x-icon">\\n  <link rel="apple-touch-icon" href="\', escape=False)\nresponse.write(URL(\'static\',\'favicon.png\'))\nresponse.write(\'">\\n\\n  <!-- All JavaScript at the bottom, except for Modernizr which enables \\n\\t   HTML5 elements & feature detects -->\\n  <script src="\', escape=False)\nresponse.write(URL(\'static\',\'js/modernizr.custom.js\'))\nresponse.write(\'"></script>  \\n\\n  <!-- include stylesheets -->\\n  \', escape=False)\nresponse.files.append(URL(\'static\',\'css/skeleton.css\'))\nresponse.files.append(URL(\'static\',\'css/web2py.css\'))\nresponse.files.append(URL(\'static\',\'css/style.css\'))\nif response.menu:\n    response.files.append(URL(\'static\',\'css/superfish.css\'))\n    response.files.append(URL(\'static\',\'js/superfish.js\'))\n    pass\nresponse.write(\'\\n\\n  \', escape=False)\nresponse.write(\'<script type="text/javascript"><!--\\n    // These variables are used by the web2py_ajax_init function in web2py_ajax.js (which is loaded below).\\n    var w2p_ajax_confirm_message = "\', escape=False)\nresponse.write(T(\'Are you sure you want to delete this object?\'))\nresponse.write(\'";\\n    var w2p_ajax_date_format = "\', escape=False)\nresponse.write(T(\'%Y-%m-%d\'))\nresponse.write(\'";\\n    var w2p_ajax_datetime_format = "\', escape=False)\nresponse.write(T(\'%Y-%m-%d %H:%M:%S\'))\nresponse.write(\'";\\n    //--></script>\\n\', escape=False)\nresponse.files.insert(0,URL(\'static\',\'js/jquery.js\'))\nresponse.files.insert(1,URL(\'static\',\'css/calendar.css\'))\nresponse.files.insert(2,URL(\'static\',\'js/calendar.js\'))\nresponse.files.insert(3,URL(\'static\',\'js/web2py.js\'))\nresponse.include_meta()\nresponse.include_files()\nresponse.write(\'\\n\', escape=False)\nresponse.write(\'\\n\\n  \', escape=False)\nif response.menu:\n    response.write(\'\\n  <script type="text/javascript">\\n    jQuery(function(){ jQuery(\\\'ul.sf-menu\\\').supersubs({minWidth:12,maxWidth:30,extraWidth:3}).superfish(); });\\n  </script>\\n  \', escape=False)\n    pass\nresponse.write(\'\\n\\n  \', escape=False)\n# using sidebars need to know what sidebar you want to use\nleft_sidebar_enabled = globals().get(\'left_sidebar_enabled\',False)\nright_sidebar_enabled = globals().get(\'right_sidebar_enabled\',False)\nmiddle_columns = {0:\'sixteen\',1:\'twelve\',2:\'eight\'}[\n(left_sidebar_enabled and 1 or 0)+(right_sidebar_enabled and 1 or 0)]\nresponse.write(\'\\n\\n  <!-- uncomment here to load jquery-ui\\n  <link rel="stylesheet" href="http://ajax.googleapis.com/ajax/libs/jqueryui/1.8.16/themes/base/jquery-ui.css" type="text/css" media="all" />\\n  <script src="http://ajax.googleapis.com/ajax/libs/jqueryui/1.8.16/jquery-ui.min.js" type="text/javascript"></script>\\n  uncomment to load jquery-ui //-->\\n</head>\\n<body>\\n  <div class="wrapper"><!-- for sticky footer -->\\n  \\n    <div class="topbar">\\n      <div class="container">    \\n        <div class="sixteen columns">\\n          <div id="navbar">\', escape=False)\nresponse.write(\'auth\' in globals() and auth.navbar(separators=(\' \',\' | \',\'\')))\nresponse.write(\'</div>\\n          \', escape=False)\nis_mobile=request.user_agent().is_mobile\nresponse.write(\'\\n\\t  \', escape=False)\nif response.menu:\n    response.write(\'\\n          <div id="menu">\\n             \', escape=False)\n    response.write(MENU(response.menu, _class=\'mobile-menu\' if is_mobile else \'sf-menu\',mobile=is_mobile))\n    response.write(\'\\n          </div>\\n          \', escape=False)\n    pass\nresponse.write(\'\\n        </div>\\n      </div>\\n    </div><!-- topbar -->\\n    \\n    <div class="flash">\', escape=False)\nresponse.write(response.flash or \'\')\nresponse.write(\'</div>\\n    \\n    <div class="header">\\n      <div class="container">         \\n        <div class="sixteen columns">\\n          <h1 class="remove-bottom" style="margin-top: .5em;">\\n          \', escape=False)\nresponse.write(response.title or request.application)\nresponse.write(\'\\n          </h1>\\n          <h5 style=color:gray>\', escape=False)\nresponse.write(response.subtitle or \'\')\nresponse.write(\'</h5>\\n        </div>\\n      </div>\\n    </div>\\n\\n    <div class="main">\\n      <div class="container">                 \\n        \', escape=False)\nif left_sidebar_enabled:\n    response.write(\'\\n        <div class="four columns left-sidebar">\\n          \', escape=False)\n    response.write(\'\\n          <h3>Left Sidebar</h3>\\n          <p></p>\\n          \', escape=False)\n    response.write(\'\\n        </div>\\n        \', escape=False)\n    pass\nresponse.write(\'\\n        \\n        <div class="\', escape=False)\nresponse.write(middle_columns)\nresponse.write(\' columns center">\\n          \', escape=False)\nresponse.write(\'\\n          \', escape=False)\nresponse.write(\'\\n    \\n\\n<h1>Task lists </h1>\\n<ul class=tasks>\\n\', escape=False)\nfor task in tasks:\n    response.write(\'\\n\', escape=False)\n    if (task.enddate - today).days >= 0:\n        response.write(\'\\n<li><h2>\', escape=False)\n        response.write(task.task)\n        response.write(\' \', escape=False)\n        response.write(task.priority * "*")\n        response.write(\'</h2></li>\\n<h4 style=color:red>Days left: \', escape=False)\n        response.write(task.enddate - today)\n        response.write(\'</h4> \', escape=False)\n        pass\n    response.write(\'\\n<h4>Start date: \', escape=False)\n    response.write(task.startdate)\n    response.write(\' </h4>\\n<h4>End date: \', escape=False)\n    response.write(task.enddate)\n    response.write(\' </h4>\\n\', escape=False)\n    endif\n    response.write(\'\\n\', escape=False)\n    pass\nresponse.write(\'\\n</ul>\\n\\n\', escape=False)\nresponse.write(\'\\n\', escape=False)\nresponse.write(\'\\n          \', escape=False)\nresponse.write(\'\\n        </div>\\n        \\n        \', escape=False)\nif right_sidebar_enabled:\n    response.write(\'\\n        <div class="four columns">\\n          \', escape=False)\n    response.write(\'\\n<h2>Navigator</h2>\\n\', escape=False)\n    response.write(A(T("Create new task"), _href=URL(\'mTask\',\'default\',\'create\'), _class=\'button\',\n    _style=\'margin-top: 1em;\'))\n    response.write(\'\\n\\n\', escape=False)\n    response.write(tasks)\n    response.write(\'\\n\', escape=False)\n    response.write(\'\\n        </div>    \\n        \', escape=False)\n    pass\nresponse.write(\'\\n        \\n      </div><!-- container -->\\n    </div><!-- main -->\\n    \\n    <div class="push"></div>\\n  </div><!-- wrapper -->\\n\\n  <div class="footer">\\n    <div class="container">    \\n      <div class="sixteen columns">\\n      </div>\\n    </div><!-- container -->\\n  </div><!-- footer -->\\n  \\n  <!--[if lt IE 7 ]>\\n\\t<script src="\', escape=False)\nresponse.write(URL(\'static\',\'js/dd_belatedpng.js\'))\nresponse.write(\'"></script>\\n\\t<script> DD_belatedPNG.fix(\\\'img, .png_bg\\\'); //fix any <img> or .png_bg background-images </script>\\n\\t<![endif]-->\\n  \', escape=False)\nif response.google_analytics_id:\n    response.write(\'<script type="text/javascript"> var _gaq = _gaq || []; _gaq.push([\\\'_setAccount\\\', \\\'\', escape=False)\n    response.write(response.google_analytics_id)\n    response.write("\']); _gaq.push([\'_trackPageview\']); (function() { var ga = document.createElement(\'script\'); ga.type = \'text/javascript\'; ga.async = true; ga.src = (\'https:\' == document.location.protocol ? \'https://ssl\' : \'http://www\') + \'.google-analytics.com/ga.js\'; var s = document.getElementsByTagName(\'script\')[0]; s.parentNode.insertBefore(ga, s); })(); </script> ", escape=False)\n    pass\nresponse.write(\'\\n</body>\\n</html>\\n\', escape=False)'
p7
sS'snapshot'
p8
(dp9
S'exception'
p10
(dp11
S'__hash__'
p12
S"<method-wrapper '__hash__' of exceptions.NameError object>"
p13
sS'__setattr__'
p14
S"<method-wrapper '__setattr__' of exceptions.NameError object>"
p15
sS'__reduce_ex__'
p16
S'<built-in method __reduce_ex__ of exceptions.NameError object>'
p17
sS'__getslice__'
p18
S"<method-wrapper '__getslice__' of exceptions.NameError object>"
p19
sS'__getitem__'
p20
S"<method-wrapper '__getitem__' of exceptions.NameError object>"
p21
sS'__setstate__'
p22
S'<built-in method __setstate__ of exceptions.NameError object>'
p23
sS'__reduce__'
p24
S'<built-in method __reduce__ of exceptions.NameError object>'
p25
sS'__str__'
p26
S"<method-wrapper '__str__' of exceptions.NameError object>"
p27
sS'__format__'
p28
S'<built-in method __format__ of exceptions.NameError object>'
p29
sS'__getattribute__'
p30
S"<method-wrapper '__getattribute__' of exceptions.NameError object>"
p31
sS'__class__'
p32
S"<type 'exceptions.NameError'>"
p33
sS'__unicode__'
p34
S'<built-in method __unicode__ of exceptions.NameError object>'
p35
sS'__delattr__'
p36
S"<method-wrapper '__delattr__' of exceptions.NameError object>"
p37
sS'__subclasshook__'
p38
S'<built-in method __subclasshook__ of type object>'
p39
sS'__repr__'
p40
S"<method-wrapper '__repr__' of exceptions.NameError object>"
p41
sS'args'
p42
S'("name \'endif\' is not defined",)'
p43
sS'__dict__'
p44
S'{}'
p45
sS'__sizeof__'
p46
S'<built-in method __sizeof__ of exceptions.NameError object>'
p47
sS'__doc__'
p48
S"'Name not found globally.'"
p49
sS'__init__'
p50
S"<method-wrapper '__init__' of exceptions.NameError object>"
p51
sS'__new__'
p52
S'<built-in method __new__ of type object>'
p53
ssS'evalue'
p54
S"name 'endif' is not defined"
p55
sS'request'
p56
ccopy_reg
_reconstructor
p57
(cgluon.html
BEAUTIFY
p58
c__builtin__
object
p59
NtRp60
(dp61
S'attributes'
p62
(dp63
sS'components'
p64
(lp65
g57
(cgluon.html
TABLE
p66
g59
NtRp67
(dp68
g62
(dp69
S'level'
p70
I5
ssS'parent'
p71
Nsg64
(lp72
g57
(cgluon.html
TR
p73
g59
NtRp74
(dp75
g62
(dp76
sg71
g67
sg64
(lp77
g57
(cgluon.html
TD
p78
g59
NtRp79
(dp80
g62
(dp81
S'_style'
p82
S'font-weight:bold;vertical-align:top'
p83
ssg71
g74
sg64
(lp84
S'ajax'
p85
asbag57
(g78
g59
NtRp86
(dp87
g62
(dp88
S'_valign'
p89
S'top'
p90
ssg71
g74
sg64
(lp91
S':'
asbag57
(g78
g59
NtRp92
(dp93
g62
(dp94
sg71
g74
sg64
(lp95
g57
(g58
g59
NtRp96
(dp97
g62
(dp98
g70
I5
ssg71
g92
sg64
(lp99
S'False'
p100
asbasbasbag57
(g73
g59
NtRp101
(dp102
g62
(dp103
sg71
g67
sg64
(lp104
g57
(g78
g59
NtRp105
(dp106
g62
(dp107
g82
g83
ssg71
g101
sg64
(lp108
S'application'
p109
asbag57
(g78
g59
NtRp110
(dp111
g62
(dp112
g89
g90
ssg71
g101
sg64
(lp113
S':'
asbag57
(g78
g59
NtRp114
(dp115
g62
(dp116
sg71
g101
sg64
(lp117
g57
(g58
g59
NtRp118
(dp119
g62
(dp120
g70
I5
ssg71
g114
sg64
(lp121
S'mTask'
p122
asbasbasbag57
(g73
g59
NtRp123
(dp124
g62
(dp125
sg71
g67
sg64
(lp126
g57
(g78
g59
NtRp127
(dp128
g62
(dp129
g82
g83
ssg71
g123
sg64
(lp130
g42
asbag57
(g78
g59
NtRp131
(dp132
g62
(dp133
g89
g90
ssg71
g123
sg64
(lp134
S':'
asbag57
(g78
g59
NtRp135
(dp136
g62
(dp137
sg71
g123
sg64
(lp138
g57
(g58
g59
NtRp139
(dp140
g62
(dp141
g70
I5
ssg71
g135
sg64
(lp142
g57
(g66
g59
NtRp143
(dp144
g62
(dp145
g70
I4
ssg71
Nsg64
(lp146
sbasbasbasbag57
(g73
g59
NtRp147
(dp148
g62
(dp149
sg71
g67
sg64
(lp150
g57
(g78
g59
NtRp151
(dp152
g62
(dp153
g82
g83
ssg71
g147
sg64
(lp154
S'body'
p155
asbag57
(g78
g59
NtRp156
(dp157
g62
(dp158
g89
g90
ssg71
g147
sg64
(lp159
S':'
asbag57
(g78
g59
NtRp160
(dp161
g62
(dp162
sg71
g147
sg64
(lp163
g57
(g58
g59
NtRp164
(dp165
g62
(dp166
g70
I5
ssg71
g160
sg64
(lp167
S'<cStringIO.StringO object at 0x97ad3c0>'
p168
asbasbasbag57
(g73
g59
NtRp169
(dp170
g62
(dp171
sg71
g67
sg64
(lp172
g57
(g78
g59
NtRp173
(dp174
g62
(dp175
g82
g83
ssg71
g169
sg64
(lp176
S'client'
p177
asbag57
(g78
g59
NtRp178
(dp179
g62
(dp180
g89
g90
ssg71
g169
sg64
(lp181
S':'
asbag57
(g78
g59
NtRp182
(dp183
g62
(dp184
sg71
g169
sg64
(lp185
g57
(g58
g59
NtRp186
(dp187
g62
(dp188
g70
I5
ssg71
g182
sg64
(lp189
S'127.0.0.1'
p190
asbasbasbag57
(g73
g59
NtRp191
(dp192
g62
(dp193
sg71
g67
sg64
(lp194
g57
(g78
g59
NtRp195
(dp196
g62
(dp197
g82
g83
ssg71
g191
sg64
(lp198
S'controller'
p199
asbag57
(g78
g59
NtRp200
(dp201
g62
(dp202
g89
g90
ssg71
g191
sg64
(lp203
S':'
asbag57
(g78
g59
NtRp204
(dp205
g62
(dp206
sg71
g191
sg64
(lp207
g57
(g58
g59
NtRp208
(dp209
g62
(dp210
g70
I5
ssg71
g204
sg64
(lp211
S'default'
p212
asbasbasbag57
(g73
g59
NtRp213
(dp214
g62
(dp215
sg71
g67
sg64
(lp216
g57
(g78
g59
NtRp217
(dp218
g62
(dp219
g82
g83
ssg71
g213
sg64
(lp220
S'cookies'
p221
asbag57
(g78
g59
NtRp222
(dp223
g62
(dp224
g89
g90
ssg71
g213
sg64
(lp225
S':'
asbag57
(g78
g59
NtRp226
(dp227
g62
(dp228
sg71
g213
sg64
(lp229
g57
(g58
g59
NtRp230
(dp231
g62
(dp232
g70
I5
ssg71
g226
sg64
(lp233
g57
(g66
g59
NtRp234
(dp235
g62
(dp236
g70
I4
ssg71
Nsg64
(lp237
g57
(g73
g59
NtRp238
(dp239
g62
(dp240
sg71
g234
sg64
(lp241
g57
(g78
g59
NtRp242
(dp243
g62
(dp244
g82
g83
ssg71
g238
sg64
(lp245
S'session_id_admin'
p246
asbag57
(g78
g59
NtRp247
(dp248
g62
(dp249
g89
g90
ssg71
g238
sg64
(lp250
S':'
asbag57
(g78
g59
NtRp251
(dp252
g62
(dp253
sg71
g238
sg64
(lp254
g57
(g58
g59
NtRp255
(dp256
g62
(dp257
g70
I4
ssg71
g251
sg64
(lp258
g57
(g66
g59
NtRp259
(dp260
g62
(dp261
g70
I3
ssg71
Nsg64
(lp262
g57
(g73
g59
NtRp263
(dp264
g62
(dp265
sg71
g259
sg64
(lp266
g57
(g78
g59
NtRp267
(dp268
g62
(dp269
g82
g83
ssg71
g263
sg64
(lp270
S'comment'
p271
asbag57
(g78
g59
NtRp272
(dp273
g62
(dp274
g89
g90
ssg71
g263
sg64
(lp275
S':'
asbag57
(g78
g59
NtRp276
(dp277
g62
(dp278
sg71
g263
sg64
(lp279
g57
(g58
g59
NtRp280
(dp281
g62
(dp282
g70
I3
ssg71
g276
sg64
(lp283
S''
asbasbasbag57
(g73
g59
NtRp284
(dp285
g62
(dp286
sg71
g259
sg64
(lp287
g57
(g78
g59
NtRp288
(dp289
g62
(dp290
g82
g83
ssg71
g284
sg64
(lp291
S'domain'
p292
asbag57
(g78
g59
NtRp293
(dp294
g62
(dp295
g89
g90
ssg71
g284
sg64
(lp296
S':'
asbag57
(g78
g59
NtRp297
(dp298
g62
(dp299
sg71
g284
sg64
(lp300
g57
(g58
g59
NtRp301
(dp302
g62
(dp303
g70
I3
ssg71
g297
sg64
(lp304
S''
asbasbasbag57
(g73
g59
NtRp305
(dp306
g62
(dp307
sg71
g259
sg64
(lp308
g57
(g78
g59
NtRp309
(dp310
g62
(dp311
g82
g83
ssg71
g305
sg64
(lp312
S'expires'
p313
asbag57
(g78
g59
NtRp314
(dp315
g62
(dp316
g89
g90
ssg71
g305
sg64
(lp317
S':'
asbag57
(g78
g59
NtRp318
(dp319
g62
(dp320
sg71
g305
sg64
(lp321
g57
(g58
g59
NtRp322
(dp323
g62
(dp324
g70
I3
ssg71
g318
sg64
(lp325
S''
asbasbasbag57
(g73
g59
NtRp326
(dp327
g62
(dp328
sg71
g259
sg64
(lp329
g57
(g78
g59
NtRp330
(dp331
g62
(dp332
g82
g83
ssg71
g326
sg64
(lp333
S'httponly'
p334
asbag57
(g78
g59
NtRp335
(dp336
g62
(dp337
g89
g90
ssg71
g326
sg64
(lp338
S':'
asbag57
(g78
g59
NtRp339
(dp340
g62
(dp341
sg71
g326
sg64
(lp342
g57
(g58
g59
NtRp343
(dp344
g62
(dp345
g70
I3
ssg71
g339
sg64
(lp346
S''
asbasbasbag57
(g73
g59
NtRp347
(dp348
g62
(dp349
sg71
g259
sg64
(lp350
g57
(g78
g59
NtRp351
(dp352
g62
(dp353
g82
g83
ssg71
g347
sg64
(lp354
S'max-age'
p355
asbag57
(g78
g59
NtRp356
(dp357
g62
(dp358
g89
g90
ssg71
g347
sg64
(lp359
S':'
asbag57
(g78
g59
NtRp360
(dp361
g62
(dp362
sg71
g347
sg64
(lp363
g57
(g58
g59
NtRp364
(dp365
g62
(dp366
g70
I3
ssg71
g360
sg64
(lp367
S''
asbasbasbag57
(g73
g59
NtRp368
(dp369
g62
(dp370
sg71
g259
sg64
(lp371
g57
(g78
g59
NtRp372
(dp373
g62
(dp374
g82
g83
ssg71
g368
sg64
(lp375
S'path'
p376
asbag57
(g78
g59
NtRp377
(dp378
g62
(dp379
g89
g90
ssg71
g368
sg64
(lp380
S':'
asbag57
(g78
g59
NtRp381
(dp382
g62
(dp383
sg71
g368
sg64
(lp384
g57
(g58
g59
NtRp385
(dp386
g62
(dp387
g70
I3
ssg71
g381
sg64
(lp388
S''
asbasbasbag57
(g73
g59
NtRp389
(dp390
g62
(dp391
sg71
g259
sg64
(lp392
g57
(g78
g59
NtRp393
(dp394
g62
(dp395
g82
g83
ssg71
g389
sg64
(lp396
S'secure'
p397
asbag57
(g78
g59
NtRp398
(dp399
g62
(dp400
g89
g90
ssg71
g389
sg64
(lp401
S':'
asbag57
(g78
g59
NtRp402
(dp403
g62
(dp404
sg71
g389
sg64
(lp405
g57
(g58
g59
NtRp406
(dp407
g62
(dp408
g70
I3
ssg71
g402
sg64
(lp409
S''
asbasbasbag57
(g73
g59
NtRp410
(dp411
g62
(dp412
sg71
g259
sg64
(lp413
g57
(g78
g59
NtRp414
(dp415
g62
(dp416
g82
g83
ssg71
g410
sg64
(lp417
S'version'
p418
asbag57
(g78
g59
NtRp419
(dp420
g62
(dp421
g89
g90
ssg71
g410
sg64
(lp422
S':'
asbag57
(g78
g59
NtRp423
(dp424
g62
(dp425
sg71
g410
sg64
(lp426
g57
(g58
g59
NtRp427
(dp428
g62
(dp429
g70
I3
ssg71
g423
sg64
(lp430
S''
asbasbasbasbasbasbasbag57
(g73
g59
NtRp431
(dp432
g62
(dp433
sg71
g234
sg64
(lp434
g57
(g78
g59
NtRp435
(dp436
g62
(dp437
g82
g83
ssg71
g431
sg64
(lp438
S'session_id_mtask'
p439
asbag57
(g78
g59
NtRp440
(dp441
g62
(dp442
g89
g90
ssg71
g431
sg64
(lp443
S':'
asbag57
(g78
g59
NtRp444
(dp445
g62
(dp446
sg71
g431
sg64
(lp447
g57
(g58
g59
NtRp448
(dp449
g62
(dp450
g70
I4
ssg71
g444
sg64
(lp451
g57
(g66
g59
NtRp452
(dp453
g62
(dp454
g70
I3
ssg71
Nsg64
(lp455
g57
(g73
g59
NtRp456
(dp457
g62
(dp458
sg71
g452
sg64
(lp459
g57
(g78
g59
NtRp460
(dp461
g62
(dp462
g82
g83
ssg71
g456
sg64
(lp463
g271
asbag57
(g78
g59
NtRp464
(dp465
g62
(dp466
g89
g90
ssg71
g456
sg64
(lp467
S':'
asbag57
(g78
g59
NtRp468
(dp469
g62
(dp470
sg71
g456
sg64
(lp471
g57
(g58
g59
NtRp472
(dp473
g62
(dp474
g70
I3
ssg71
g468
sg64
(lp475
S''
asbasbasbag57
(g73
g59
NtRp476
(dp477
g62
(dp478
sg71
g452
sg64
(lp479
g57
(g78
g59
NtRp480
(dp481
g62
(dp482
g82
g83
ssg71
g476
sg64
(lp483
g292
asbag57
(g78
g59
NtRp484
(dp485
g62
(dp486
g89
g90
ssg71
g476
sg64
(lp487
S':'
asbag57
(g78
g59
NtRp488
(dp489
g62
(dp490
sg71
g476
sg64
(lp491
g57
(g58
g59
NtRp492
(dp493
g62
(dp494
g70
I3
ssg71
g488
sg64
(lp495
S''
asbasbasbag57
(g73
g59
NtRp496
(dp497
g62
(dp498
sg71
g452
sg64
(lp499
g57
(g78
g59
NtRp500
(dp501
g62
(dp502
g82
g83
ssg71
g496
sg64
(lp503
g313
asbag57
(g78
g59
NtRp504
(dp505
g62
(dp506
g89
g90
ssg71
g496
sg64
(lp507
S':'
asbag57
(g78
g59
NtRp508
(dp509
g62
(dp510
sg71
g496
sg64
(lp511
g57
(g58
g59
NtRp512
(dp513
g62
(dp514
g70
I3
ssg71
g508
sg64
(lp515
S''
asbasbasbag57
(g73
g59
NtRp516
(dp517
g62
(dp518
sg71
g452
sg64
(lp519
g57
(g78
g59
NtRp520
(dp521
g62
(dp522
g82
g83
ssg71
g516
sg64
(lp523
g334
asbag57
(g78
g59
NtRp524
(dp525
g62
(dp526
g89
g90
ssg71
g516
sg64
(lp527
S':'
asbag57
(g78
g59
NtRp528
(dp529
g62
(dp530
sg71
g516
sg64
(lp531
g57
(g58
g59
NtRp532
(dp533
g62
(dp534
g70
I3
ssg71
g528
sg64
(lp535
S''
asbasbasbag57
(g73
g59
NtRp536
(dp537
g62
(dp538
sg71
g452
sg64
(lp539
g57
(g78
g59
NtRp540
(dp541
g62
(dp542
g82
g83
ssg71
g536
sg64
(lp543
g355
asbag57
(g78
g59
NtRp544
(dp545
g62
(dp546
g89
g90
ssg71
g536
sg64
(lp547
S':'
asbag57
(g78
g59
NtRp548
(dp549
g62
(dp550
sg71
g536
sg64
(lp551
g57
(g58
g59
NtRp552
(dp553
g62
(dp554
g70
I3
ssg71
g548
sg64
(lp555
S''
asbasbasbag57
(g73
g59
NtRp556
(dp557
g62
(dp558
sg71
g452
sg64
(lp559
g57
(g78
g59
NtRp560
(dp561
g62
(dp562
g82
g83
ssg71
g556
sg64
(lp563
g376
asbag57
(g78
g59
NtRp564
(dp565
g62
(dp566
g89
g90
ssg71
g556
sg64
(lp567
S':'
asbag57
(g78
g59
NtRp568
(dp569
g62
(dp570
sg71
g556
sg64
(lp571
g57
(g58
g59
NtRp572
(dp573
g62
(dp574
g70
I3
ssg71
g568
sg64
(lp575
S''
asbasbasbag57
(g73
g59
NtRp576
(dp577
g62
(dp578
sg71
g452
sg64
(lp579
g57
(g78
g59
NtRp580
(dp581
g62
(dp582
g82
g83
ssg71
g576
sg64
(lp583
g397
asbag57
(g78
g59
NtRp584
(dp585
g62
(dp586
g89
g90
ssg71
g576
sg64
(lp587
S':'
asbag57
(g78
g59
NtRp588
(dp589
g62
(dp590
sg71
g576
sg64
(lp591
g57
(g58
g59
NtRp592
(dp593
g62
(dp594
g70
I3
ssg71
g588
sg64
(lp595
S''
asbasbasbag57
(g73
g59
NtRp596
(dp597
g62
(dp598
sg71
g452
sg64
(lp599
g57
(g78
g59
NtRp600
(dp601
g62
(dp602
g82
g83
ssg71
g596
sg64
(lp603
g418
asbag57
(g78
g59
NtRp604
(dp605
g62
(dp606
g89
g90
ssg71
g596
sg64
(lp607
S':'
asbag57
(g78
g59
NtRp608
(dp609
g62
(dp610
sg71
g596
sg64
(lp611
g57
(g58
g59
NtRp612
(dp613
g62
(dp614
g70
I3
ssg71
g608
sg64
(lp615
S''
asbasbasbasbasbasbasbag57
(g73
g59
NtRp616
(dp617
g62
(dp618
sg71
g234
sg64
(lp619
g57
(g78
g59
NtRp620
(dp621
g62
(dp622
g82
g83
ssg71
g616
sg64
(lp623
S'session_id_test'
p624
asbag57
(g78
g59
NtRp625
(dp626
g62
(dp627
g89
g90
ssg71
g616
sg64
(lp628
S':'
asbag57
(g78
g59
NtRp629
(dp630
g62
(dp631
sg71
g616
sg64
(lp632
g57
(g58
g59
NtRp633
(dp634
g62
(dp635
g70
I4
ssg71
g629
sg64
(lp636
g57
(g66
g59
NtRp637
(dp638
g62
(dp639
g70
I3
ssg71
Nsg64
(lp640
g57
(g73
g59
NtRp641
(dp642
g62
(dp643
sg71
g637
sg64
(lp644
g57
(g78
g59
NtRp645
(dp646
g62
(dp647
g82
g83
ssg71
g641
sg64
(lp648
g271
asbag57
(g78
g59
NtRp649
(dp650
g62
(dp651
g89
g90
ssg71
g641
sg64
(lp652
S':'
asbag57
(g78
g59
NtRp653
(dp654
g62
(dp655
sg71
g641
sg64
(lp656
g57
(g58
g59
NtRp657
(dp658
g62
(dp659
g70
I3
ssg71
g653
sg64
(lp660
S''
asbasbasbag57
(g73
g59
NtRp661
(dp662
g62
(dp663
sg71
g637
sg64
(lp664
g57
(g78
g59
NtRp665
(dp666
g62
(dp667
g82
g83
ssg71
g661
sg64
(lp668
g292
asbag57
(g78
g59
NtRp669
(dp670
g62
(dp671
g89
g90
ssg71
g661
sg64
(lp672
S':'
asbag57
(g78
g59
NtRp673
(dp674
g62
(dp675
sg71
g661
sg64
(lp676
g57
(g58
g59
NtRp677
(dp678
g62
(dp679
g70
I3
ssg71
g673
sg64
(lp680
S''
asbasbasbag57
(g73
g59
NtRp681
(dp682
g62
(dp683
sg71
g637
sg64
(lp684
g57
(g78
g59
NtRp685
(dp686
g62
(dp687
g82
g83
ssg71
g681
sg64
(lp688
g313
asbag57
(g78
g59
NtRp689
(dp690
g62
(dp691
g89
g90
ssg71
g681
sg64
(lp692
S':'
asbag57
(g78
g59
NtRp693
(dp694
g62
(dp695
sg71
g681
sg64
(lp696
g57
(g58
g59
NtRp697
(dp698
g62
(dp699
g70
I3
ssg71
g693
sg64
(lp700
S''
asbasbasbag57
(g73
g59
NtRp701
(dp702
g62
(dp703
sg71
g637
sg64
(lp704
g57
(g78
g59
NtRp705
(dp706
g62
(dp707
g82
g83
ssg71
g701
sg64
(lp708
g334
asbag57
(g78
g59
NtRp709
(dp710
g62
(dp711
g89
g90
ssg71
g701
sg64
(lp712
S':'
asbag57
(g78
g59
NtRp713
(dp714
g62
(dp715
sg71
g701
sg64
(lp716
g57
(g58
g59
NtRp717
(dp718
g62
(dp719
g70
I3
ssg71
g713
sg64
(lp720
S''
asbasbasbag57
(g73
g59
NtRp721
(dp722
g62
(dp723
sg71
g637
sg64
(lp724
g57
(g78
g59
NtRp725
(dp726
g62
(dp727
g82
g83
ssg71
g721
sg64
(lp728
g355
asbag57
(g78
g59
NtRp729
(dp730
g62
(dp731
g89
g90
ssg71
g721
sg64
(lp732
S':'
asbag57
(g78
g59
NtRp733
(dp734
g62
(dp735
sg71
g721
sg64
(lp736
g57
(g58
g59
NtRp737
(dp738
g62
(dp739
g70
I3
ssg71
g733
sg64
(lp740
S''
asbasbasbag57
(g73
g59
NtRp741
(dp742
g62
(dp743
sg71
g637
sg64
(lp744
g57
(g78
g59
NtRp745
(dp746
g62
(dp747
g82
g83
ssg71
g741
sg64
(lp748
g376
asbag57
(g78
g59
NtRp749
(dp750
g62
(dp751
g89
g90
ssg71
g741
sg64
(lp752
S':'
asbag57
(g78
g59
NtRp753
(dp754
g62
(dp755
sg71
g741
sg64
(lp756
g57
(g58
g59
NtRp757
(dp758
g62
(dp759
g70
I3
ssg71
g753
sg64
(lp760
S''
asbasbasbag57
(g73
g59
NtRp761
(dp762
g62
(dp763
sg71
g637
sg64
(lp764
g57
(g78
g59
NtRp765
(dp766
g62
(dp767
g82
g83
ssg71
g761
sg64
(lp768
g397
asbag57
(g78
g59
NtRp769
(dp770
g62
(dp771
g89
g90
ssg71
g761
sg64
(lp772
S':'
asbag57
(g78
g59
NtRp773
(dp774
g62
(dp775
sg71
g761
sg64
(lp776
g57
(g58
g59
NtRp777
(dp778
g62
(dp779
g70
I3
ssg71
g773
sg64
(lp780
S''
asbasbasbag57
(g73
g59
NtRp781
(dp782
g62
(dp783
sg71
g637
sg64
(lp784
g57
(g78
g59
NtRp785
(dp786
g62
(dp787
g82
g83
ssg71
g781
sg64
(lp788
g418
asbag57
(g78
g59
NtRp789
(dp790
g62
(dp791
g89
g90
ssg71
g781
sg64
(lp792
S':'
asbag57
(g78
g59
NtRp793
(dp794
g62
(dp795
sg71
g781
sg64
(lp796
g57
(g58
g59
NtRp797
(dp798
g62
(dp799
g70
I3
ssg71
g793
sg64
(lp800
S''
asbasbasbasbasbasbasbasbasbasbasbag57
(g73
g59
NtRp801
(dp802
g62
(dp803
sg71
g67
sg64
(lp804
g57
(g78
g59
NtRp805
(dp806
g62
(dp807
g82
g83
ssg71
g801
sg64
(lp808
S'env'
p809
asbag57
(g78
g59
NtRp810
(dp811
g62
(dp812
g89
g90
ssg71
g801
sg64
(lp813
S':'
asbag57
(g78
g59
NtRp814
(dp815
g62
(dp816
sg71
g801
sg64
(lp817
g57
(g58
g59
NtRp818
(dp819
g62
(dp820
g70
I5
ssg71
g814
sg64
(lp821
g57
(g66
g59
NtRp822
(dp823
g62
(dp824
g70
I4
ssg71
Nsg64
(lp825
g57
(g73
g59
NtRp826
(dp827
g62
(dp828
sg71
g822
sg64
(lp829
g57
(g78
g59
NtRp830
(dp831
g62
(dp832
g82
g83
ssg71
g826
sg64
(lp833
S'app_folders'
p834
asbag57
(g78
g59
NtRp835
(dp836
g62
(dp837
g89
g90
ssg71
g826
sg64
(lp838
S':'
asbag57
(g78
g59
NtRp839
(dp840
g62
(dp841
sg71
g826
sg64
(lp842
g57
(g58
g59
NtRp843
(dp844
g62
(dp845
g70
I4
ssg71
g839
sg64
(lp846
S"set(['/home/famihug/Apps/web2py/applications/mTask/', '/home/famihug/Apps/web2py/applications/welcome/', '/home/famihug/Apps/web2py/applications/test/', '/home/famihug/Apps/web2py/applications/examples/', '/home/famihug/Apps/web2py/applications/admin/'])"
p847
asbasbasbag57
(g73
g59
NtRp848
(dp849
g62
(dp850
sg71
g822
sg64
(lp851
g57
(g78
g59
NtRp852
(dp853
g62
(dp854
g82
g83
ssg71
g848
sg64
(lp855
S'applications_parent'
p856
asbag57
(g78
g59
NtRp857
(dp858
g62
(dp859
g89
g90
ssg71
g848
sg64
(lp860
S':'
asbag57
(g78
g59
NtRp861
(dp862
g62
(dp863
sg71
g848
sg64
(lp864
g57
(g58
g59
NtRp865
(dp866
g62
(dp867
g70
I4
ssg71
g861
sg64
(lp868
S'/home/famihug/Apps/web2py'
p869
asbasbasbag57
(g73
g59
NtRp870
(dp871
g62
(dp872
sg71
g822
sg64
(lp873
g57
(g78
g59
NtRp874
(dp875
g62
(dp876
g82
g83
ssg71
g870
sg64
(lp877
S'cmd_args'
p878
asbag57
(g78
g59
NtRp879
(dp880
g62
(dp881
g89
g90
ssg71
g870
sg64
(lp882
S':'
asbag57
(g78
g59
NtRp883
(dp884
g62
(dp885
sg71
g870
sg64
(lp886
g57
(g58
g59
NtRp887
(dp888
g62
(dp889
g70
I4
ssg71
g883
sg64
(lp890
g57
(g66
g59
NtRp891
(dp892
g62
(dp893
g70
I3
ssg71
Nsg64
(lp894
sbasbasbasbag57
(g73
g59
NtRp895
(dp896
g62
(dp897
sg71
g822
sg64
(lp898
g57
(g78
g59
NtRp899
(dp900
g62
(dp901
g82
g83
ssg71
g895
sg64
(lp902
S'cmd_options'
p903
asbag57
(g78
g59
NtRp904
(dp905
g62
(dp906
g89
g90
ssg71
g895
sg64
(lp907
S':'
asbag57
(g78
g59
NtRp908
(dp909
g62
(dp910
sg71
g895
sg64
(lp911
g57
(g58
g59
NtRp912
(dp913
g62
(dp914
g70
I4
ssg71
g908
sg64
(lp915
S"<Values at 0x90497ec: {'verbose': False, 'ip': '127.0.0.1', 'shutdown_timeout': 5, 'taskbar': False, 'nocron': False, 'pid_filename': 'httpserver.pid', 'maxthreads': None, 'softcron': False, 'server_name': 'hvn.vn', 'bpython': False, 'nogui': False, 'port': 8000, 'extcron': False, 'debuglevel': 30, 'test': None, 'folder': '/home/famihug/Apps/web2py', 'config': '', 'import_models': False, 'winservice': '', 'shell': None, 'run': '', 'log_filename': 'httpserver.log', 'args': [''], 'socket_timeout': 5, 'ssl_ca_certificate': None, 'scheduler': None, 'profiler_filename': None, 'ssl_private_key': '', 'password': 'hehehe', 'request_queue_size': 5, 'ssl_certificate': '', 'cronjob': False, 'numthreads': None, 'quiet': False, 'interfaces': None, 'minthreads': None, 'timeout': 10, 'plain': False, 'nobanner': False}>"
p916
asbasbasbag57
(g73
g59
NtRp917
(dp918
g62
(dp919
sg71
g822
sg64
(lp920
g57
(g78
g59
NtRp921
(dp922
g62
(dp923
g82
g83
ssg71
g917
sg64
(lp924
S'db_sessions'
p925
asbag57
(g78
g59
NtRp926
(dp927
g62
(dp928
g89
g90
ssg71
g917
sg64
(lp929
S':'
asbag57
(g78
g59
NtRp930
(dp931
g62
(dp932
sg71
g917
sg64
(lp933
g57
(g58
g59
NtRp934
(dp935
g62
(dp936
g70
I4
ssg71
g930
sg64
(lp937
S'set([])'
p938
asbasbasbag57
(g73
g59
NtRp939
(dp940
g62
(dp941
sg71
g822
sg64
(lp942
g57
(g78
g59
NtRp943
(dp944
g62
(dp945
g82
g83
ssg71
g939
sg64
(lp946
S'debugging'
p947
asbag57
(g78
g59
NtRp948
(dp949
g62
(dp950
g89
g90
ssg71
g939
sg64
(lp951
S':'
asbag57
(g78
g59
NtRp952
(dp953
g62
(dp954
sg71
g939
sg64
(lp955
g57
(g58
g59
NtRp956
(dp957
g62
(dp958
g70
I4
ssg71
g952
sg64
(lp959
g100
asbasbasbag57
(g73
g59
NtRp960
(dp961
g62
(dp962
sg71
g822
sg64
(lp963
g57
(g78
g59
NtRp964
(dp965
g62
(dp966
g82
g83
ssg71
g960
sg64
(lp967
S'gluon_parent'
p968
asbag57
(g78
g59
NtRp969
(dp970
g62
(dp971
g89
g90
ssg71
g960
sg64
(lp972
S':'
asbag57
(g78
g59
NtRp973
(dp974
g62
(dp975
sg71
g960
sg64
(lp976
g57
(g58
g59
NtRp977
(dp978
g62
(dp979
g70
I4
ssg71
g973
sg64
(lp980
S'/home/famihug/Apps/web2py'
p981
asbasbasbag57
(g73
g59
NtRp982
(dp983
g62
(dp984
sg71
g822
sg64
(lp985
g57
(g78
g59
NtRp986
(dp987
g62
(dp988
g82
g83
ssg71
g982
sg64
(lp989
S'http_accept'
p990
asbag57
(g78
g59
NtRp991
(dp992
g62
(dp993
g89
g90
ssg71
g982
sg64
(lp994
S':'
asbag57
(g78
g59
NtRp995
(dp996
g62
(dp997
sg71
g982
sg64
(lp998
g57
(g58
g59
NtRp999
(dp1000
g62
(dp1001
g70
I4
ssg71
g995
sg64
(lp1002
S'text/html,application/xhtml+xml,application/xml;q=0.9,*/*;q=0.8'
p1003
asbasbasbag57
(g73
g59
NtRp1004
(dp1005
g62
(dp1006
sg71
g822
sg64
(lp1007
g57
(g78
g59
NtRp1008
(dp1009
g62
(dp1010
g82
g83
ssg71
g1004
sg64
(lp1011
S'http_accept_encoding'
p1012
asbag57
(g78
g59
NtRp1013
(dp1014
g62
(dp1015
g89
g90
ssg71
g1004
sg64
(lp1016
S':'
asbag57
(g78
g59
NtRp1017
(dp1018
g62
(dp1019
sg71
g1004
sg64
(lp1020
g57
(g58
g59
NtRp1021
(dp1022
g62
(dp1023
g70
I4
ssg71
g1017
sg64
(lp1024
S'gzip, deflate'
p1025
asbasbasbag57
(g73
g59
NtRp1026
(dp1027
g62
(dp1028
sg71
g822
sg64
(lp1029
g57
(g78
g59
NtRp1030
(dp1031
g62
(dp1032
g82
g83
ssg71
g1026
sg64
(lp1033
S'http_accept_language'
p1034
asbag57
(g78
g59
NtRp1035
(dp1036
g62
(dp1037
g89
g90
ssg71
g1026
sg64
(lp1038
S':'
asbag57
(g78
g59
NtRp1039
(dp1040
g62
(dp1041
sg71
g1026
sg64
(lp1042
g57
(g58
g59
NtRp1043
(dp1044
g62
(dp1045
g70
I4
ssg71
g1039
sg64
(lp1046
S'en-us,en;q=0.5'
p1047
asbasbasbag57
(g73
g59
NtRp1048
(dp1049
g62
(dp1050
sg71
g822
sg64
(lp1051
g57
(g78
g59
NtRp1052
(dp1053
g62
(dp1054
g82
g83
ssg71
g1048
sg64
(lp1055
S'http_connection'
p1056
asbag57
(g78
g59
NtRp1057
(dp1058
g62
(dp1059
g89
g90
ssg71
g1048
sg64
(lp1060
S':'
asbag57
(g78
g59
NtRp1061
(dp1062
g62
(dp1063
sg71
g1048
sg64
(lp1064
g57
(g58
g59
NtRp1065
(dp1066
g62
(dp1067
g70
I4
ssg71
g1061
sg64
(lp1068
S'keep-alive'
p1069
asbasbasbag57
(g73
g59
NtRp1070
(dp1071
g62
(dp1072
sg71
g822
sg64
(lp1073
g57
(g78
g59
NtRp1074
(dp1075
g62
(dp1076
g82
g83
ssg71
g1070
sg64
(lp1077
S'http_cookie'
p1078
asbag57
(g78
g59
NtRp1079
(dp1080
g62
(dp1081
g89
g90
ssg71
g1070
sg64
(lp1082
S':'
asbag57
(g78
g59
NtRp1083
(dp1084
g62
(dp1085
sg71
g1070
sg64
(lp1086
g57
(g58
g59
NtRp1087
(dp1088
g62
(dp1089
g70
I4
ssg71
g1083
sg64
(lp1090
S'session_id_test=127.0.0.1-e5cc216d-0463-4fe8-aefc-620a5f131d3a; session_id_admin=127.0.0.1-485fa5d0-fa0f-484e-a905-2950f61e1854; session_id_mtask=127.0.0.1-d1cfb7ee-ab22-4bca-bef2-e37fe3fe8940'
p1091
asbasbasbag57
(g73
g59
NtRp1092
(dp1093
g62
(dp1094
sg71
g822
sg64
(lp1095
g57
(g78
g59
NtRp1096
(dp1097
g62
(dp1098
g82
g83
ssg71
g1092
sg64
(lp1099
S'http_host'
p1100
asbag57
(g78
g59
NtRp1101
(dp1102
g62
(dp1103
g89
g90
ssg71
g1092
sg64
(lp1104
S':'
asbag57
(g78
g59
NtRp1105
(dp1106
g62
(dp1107
sg71
g1092
sg64
(lp1108
g57
(g58
g59
NtRp1109
(dp1110
g62
(dp1111
g70
I4
ssg71
g1105
sg64
(lp1112
S'127.0.0.1:8000'
p1113
asbasbasbag57
(g73
g59
NtRp1114
(dp1115
g62
(dp1116
sg71
g822
sg64
(lp1117
g57
(g78
g59
NtRp1118
(dp1119
g62
(dp1120
g82
g83
ssg71
g1114
sg64
(lp1121
S'http_user_agent'
p1122
asbag57
(g78
g59
NtRp1123
(dp1124
g62
(dp1125
g89
g90
ssg71
g1114
sg64
(lp1126
S':'
asbag57
(g78
g59
NtRp1127
(dp1128
g62
(dp1129
sg71
g1114
sg64
(lp1130
g57
(g58
g59
NtRp1131
(dp1132
g62
(dp1133
g70
I4
ssg71
g1127
sg64
(lp1134
S'Mozilla/5.0 (X11; Linux i686; rv:13.0) Gecko/20100101 Firefox/13.0.1'
p1135
asbasbasbag57
(g73
g59
NtRp1136
(dp1137
g62
(dp1138
sg71
g822
sg64
(lp1139
g57
(g78
g59
NtRp1140
(dp1141
g62
(dp1142
g82
g83
ssg71
g1136
sg64
(lp1143
S'is_jython'
p1144
asbag57
(g78
g59
NtRp1145
(dp1146
g62
(dp1147
g89
g90
ssg71
g1136
sg64
(lp1148
S':'
asbag57
(g78
g59
NtRp1149
(dp1150
g62
(dp1151
sg71
g1136
sg64
(lp1152
g57
(g58
g59
NtRp1153
(dp1154
g62
(dp1155
g70
I4
ssg71
g1149
sg64
(lp1156
g100
asbasbasbag57
(g73
g59
NtRp1157
(dp1158
g62
(dp1159
sg71
g822
sg64
(lp1160
g57
(g78
g59
NtRp1161
(dp1162
g62
(dp1163
g82
g83
ssg71
g1157
sg64
(lp1164
S'is_pypy'
p1165
asbag57
(g78
g59
NtRp1166
(dp1167
g62
(dp1168
g89
g90
ssg71
g1157
sg64
(lp1169
S':'
asbag57
(g78
g59
NtRp1170
(dp1171
g62
(dp1172
sg71
g1157
sg64
(lp1173
g57
(g58
g59
NtRp1174
(dp1175
g62
(dp1176
g70
I4
ssg71
g1170
sg64
(lp1177
g100
asbasbasbag57
(g73
g59
NtRp1178
(dp1179
g62
(dp1180
sg71
g822
sg64
(lp1181
g57
(g78
g59
NtRp1182
(dp1183
g62
(dp1184
g82
g83
ssg71
g1178
sg64
(lp1185
S'path_info'
p1186
asbag57
(g78
g59
NtRp1187
(dp1188
g62
(dp1189
g89
g90
ssg71
g1178
sg64
(lp1190
S':'
asbag57
(g78
g59
NtRp1191
(dp1192
g62
(dp1193
sg71
g1178
sg64
(lp1194
g57
(g58
g59
NtRp1195
(dp1196
g62
(dp1197
g70
I4
ssg71
g1191
sg64
(lp1198
S'/mTask/default/index'
p1199
asbasbasbag57
(g73
g59
NtRp1200
(dp1201
g62
(dp1202
sg71
g822
sg64
(lp1203
g57
(g78
g59
NtRp1204
(dp1205
g62
(dp1206
g82
g83
ssg71
g1200
sg64
(lp1207
S'query_string'
p1208
asbag57
(g78
g59
NtRp1209
(dp1210
g62
(dp1211
g89
g90
ssg71
g1200
sg64
(lp1212
S':'
asbag57
(g78
g59
NtRp1213
(dp1214
g62
(dp1215
sg71
g1200
sg64
(lp1216
g57
(g58
g59
NtRp1217
(dp1218
g62
(dp1219
g70
I4
ssg71
g1213
sg64
(lp1220
S''
asbasbasbag57
(g73
g59
NtRp1221
(dp1222
g62
(dp1223
sg71
g822
sg64
(lp1224
g57
(g78
g59
NtRp1225
(dp1226
g62
(dp1227
g82
g83
ssg71
g1221
sg64
(lp1228
S'remote_addr'
p1229
asbag57
(g78
g59
NtRp1230
(dp1231
g62
(dp1232
g89
g90
ssg71
g1221
sg64
(lp1233
S':'
asbag57
(g78
g59
NtRp1234
(dp1235
g62
(dp1236
sg71
g1221
sg64
(lp1237
g57
(g58
g59
NtRp1238
(dp1239
g62
(dp1240
g70
I4
ssg71
g1234
sg64
(lp1241
g190
asbasbasbag57
(g73
g59
NtRp1242
(dp1243
g62
(dp1244
sg71
g822
sg64
(lp1245
g57
(g78
g59
NtRp1246
(dp1247
g62
(dp1248
g82
g83
ssg71
g1242
sg64
(lp1249
S'remote_port'
p1250
asbag57
(g78
g59
NtRp1251
(dp1252
g62
(dp1253
g89
g90
ssg71
g1242
sg64
(lp1254
S':'
asbag57
(g78
g59
NtRp1255
(dp1256
g62
(dp1257
sg71
g1242
sg64
(lp1258
g57
(g58
g59
NtRp1259
(dp1260
g62
(dp1261
g70
I4
ssg71
g1255
sg64
(lp1262
S'56964'
p1263
asbasbasbag57
(g73
g59
NtRp1264
(dp1265
g62
(dp1266
sg71
g822
sg64
(lp1267
g57
(g78
g59
NtRp1268
(dp1269
g62
(dp1270
g82
g83
ssg71
g1264
sg64
(lp1271
S'request_method'
p1272
asbag57
(g78
g59
NtRp1273
(dp1274
g62
(dp1275
g89
g90
ssg71
g1264
sg64
(lp1276
S':'
asbag57
(g78
g59
NtRp1277
(dp1278
g62
(dp1279
sg71
g1264
sg64
(lp1280
g57
(g58
g59
NtRp1281
(dp1282
g62
(dp1283
g70
I4
ssg71
g1277
sg64
(lp1284
S'GET'
p1285
asbasbasbag57
(g73
g59
NtRp1286
(dp1287
g62
(dp1288
sg71
g822
sg64
(lp1289
g57
(g78
g59
NtRp1290
(dp1291
g62
(dp1292
g82
g83
ssg71
g1286
sg64
(lp1293
S'script_name'
p1294
asbag57
(g78
g59
NtRp1295
(dp1296
g62
(dp1297
g89
g90
ssg71
g1286
sg64
(lp1298
S':'
asbag57
(g78
g59
NtRp1299
(dp1300
g62
(dp1301
sg71
g1286
sg64
(lp1302
g57
(g58
g59
NtRp1303
(dp1304
g62
(dp1305
g70
I4
ssg71
g1299
sg64
(lp1306
S''
asbasbasbag57
(g73
g59
NtRp1307
(dp1308
g62
(dp1309
sg71
g822
sg64
(lp1310
g57
(g78
g59
NtRp1311
(dp1312
g62
(dp1313
g82
g83
ssg71
g1307
sg64
(lp1314
S'server_name'
p1315
asbag57
(g78
g59
NtRp1316
(dp1317
g62
(dp1318
g89
g90
ssg71
g1307
sg64
(lp1319
S':'
asbag57
(g78
g59
NtRp1320
(dp1321
g62
(dp1322
sg71
g1307
sg64
(lp1323
g57
(g58
g59
NtRp1324
(dp1325
g62
(dp1326
g70
I4
ssg71
g1320
sg64
(lp1327
S'hvn.vn'
p1328
asbasbasbag57
(g73
g59
NtRp1329
(dp1330
g62
(dp1331
sg71
g822
sg64
(lp1332
g57
(g78
g59
NtRp1333
(dp1334
g62
(dp1335
g82
g83
ssg71
g1329
sg64
(lp1336
S'server_port'
p1337
asbag57
(g78
g59
NtRp1338
(dp1339
g62
(dp1340
g89
g90
ssg71
g1329
sg64
(lp1341
S':'
asbag57
(g78
g59
NtRp1342
(dp1343
g62
(dp1344
sg71
g1329
sg64
(lp1345
g57
(g58
g59
NtRp1346
(dp1347
g62
(dp1348
g70
I4
ssg71
g1342
sg64
(lp1349
S'8000'
p1350
asbasbasbag57
(g73
g59
NtRp1351
(dp1352
g62
(dp1353
sg71
g822
sg64
(lp1354
g57
(g78
g59
NtRp1355
(dp1356
g62
(dp1357
g82
g83
ssg71
g1351
sg64
(lp1358
S'server_protocol'
p1359
asbag57
(g78
g59
NtRp1360
(dp1361
g62
(dp1362
g89
g90
ssg71
g1351
sg64
(lp1363
S':'
asbag57
(g78
g59
NtRp1364
(dp1365
g62
(dp1366
sg71
g1351
sg64
(lp1367
g57
(g58
g59
NtRp1368
(dp1369
g62
(dp1370
g70
I4
ssg71
g1364
sg64
(lp1371
S'HTTP/1.1'
p1372
asbasbasbag57
(g73
g59
NtRp1373
(dp1374
g62
(dp1375
sg71
g822
sg64
(lp1376
g57
(g78
g59
NtRp1377
(dp1378
g62
(dp1379
g82
g83
ssg71
g1373
sg64
(lp1380
S'server_software'
p1381
asbag57
(g78
g59
NtRp1382
(dp1383
g62
(dp1384
g89
g90
ssg71
g1373
sg64
(lp1385
S':'
asbag57
(g78
g59
NtRp1386
(dp1387
g62
(dp1388
sg71
g1373
sg64
(lp1389
g57
(g58
g59
NtRp1390
(dp1391
g62
(dp1392
g70
I4
ssg71
g1386
sg64
(lp1393
S'Rocket 1.2.4'
p1394
asbasbasbag57
(g73
g59
NtRp1395
(dp1396
g62
(dp1397
sg71
g822
sg64
(lp1398
g57
(g78
g59
NtRp1399
(dp1400
g62
(dp1401
g82
g83
ssg71
g1395
sg64
(lp1402
S'web2py_crontype'
p1403
asbag57
(g78
g59
NtRp1404
(dp1405
g62
(dp1406
g89
g90
ssg71
g1395
sg64
(lp1407
S':'
asbag57
(g78
g59
NtRp1408
(dp1409
g62
(dp1410
sg71
g1395
sg64
(lp1411
g57
(g58
g59
NtRp1412
(dp1413
g62
(dp1414
g70
I4
ssg71
g1408
sg64
(lp1415
S'hard'
p1416
asbasbasbag57
(g73
g59
NtRp1417
(dp1418
g62
(dp1419
sg71
g822
sg64
(lp1420
g57
(g78
g59
NtRp1421
(dp1422
g62
(dp1423
g82
g83
ssg71
g1417
sg64
(lp1424
S'web2py_path'
p1425
asbag57
(g78
g59
NtRp1426
(dp1427
g62
(dp1428
g89
g90
ssg71
g1417
sg64
(lp1429
S':'
asbag57
(g78
g59
NtRp1430
(dp1431
g62
(dp1432
sg71
g1417
sg64
(lp1433
g57
(g58
g59
NtRp1434
(dp1435
g62
(dp1436
g70
I4
ssg71
g1430
sg64
(lp1437
g869
asbasbasbag57
(g73
g59
NtRp1438
(dp1439
g62
(dp1440
sg71
g822
sg64
(lp1441
g57
(g78
g59
NtRp1442
(dp1443
g62
(dp1444
g82
g83
ssg71
g1438
sg64
(lp1445
S'web2py_version'
p1446
asbag57
(g78
g59
NtRp1447
(dp1448
g62
(dp1449
g89
g90
ssg71
g1438
sg64
(lp1450
S':'
asbag57
(g78
g59
NtRp1451
(dp1452
g62
(dp1453
sg71
g1438
sg64
(lp1454
g57
(g58
g59
NtRp1455
(dp1456
g62
(dp1457
g70
I4
ssg71
g1451
sg64
(lp1458
g57
(g66
g59
NtRp1459
(dp1460
g62
(dp1461
g70
I3
ssg71
Nsg64
(lp1462
g57
(g73
g59
NtRp1463
(dp1464
g62
(dp1465
sg71
g1459
sg64
(lp1466
g57
(g78
g59
NtRp1467
(dp1468
g62
(dp1469
sg71
g1463
sg64
(lp1470
g57
(g58
g59
NtRp1471
(dp1472
g62
(dp1473
g70
I3
ssg71
g1467
sg64
(lp1474
S'1'
asbasbasbag57
(g73
g59
NtRp1475
(dp1476
g62
(dp1477
sg71
g1459
sg64
(lp1478
g57
(g78
g59
NtRp1479
(dp1480
g62
(dp1481
sg71
g1475
sg64
(lp1482
g57
(g58
g59
NtRp1483
(dp1484
g62
(dp1485
g70
I3
ssg71
g1479
sg64
(lp1486
S'99'
p1487
asbasbasbag57
(g73
g59
NtRp1488
(dp1489
g62
(dp1490
sg71
g1459
sg64
(lp1491
g57
(g78
g59
NtRp1492
(dp1493
g62
(dp1494
sg71
g1488
sg64
(lp1495
g57
(g58
g59
NtRp1496
(dp1497
g62
(dp1498
g70
I3
ssg71
g1492
sg64
(lp1499
S'7'
asbasbasbag57
(g73
g59
NtRp1500
(dp1501
g62
(dp1502
sg71
g1459
sg64
(lp1503
g57
(g78
g59
NtRp1504
(dp1505
g62
(dp1506
sg71
g1500
sg64
(lp1507
g57
(g58
g59
NtRp1508
(dp1509
g62
(dp1510
g70
I3
ssg71
g1504
sg64
(lp1511
S'datetime.datetime(2012, 3, 4, 22, 12, 8)'
p1512
asbasbasbag57
(g73
g59
NtRp1513
(dp1514
g62
(dp1515
sg71
g1459
sg64
(lp1516
g57
(g78
g59
NtRp1517
(dp1518
g62
(dp1519
sg71
g1513
sg64
(lp1520
g57
(g58
g59
NtRp1521
(dp1522
g62
(dp1523
g70
I3
ssg71
g1517
sg64
(lp1524
S'stable'
p1525
asbasbasbasbasbasbasbag57
(g73
g59
NtRp1526
(dp1527
g62
(dp1528
sg71
g822
sg64
(lp1529
g57
(g78
g59
NtRp1530
(dp1531
g62
(dp1532
g82
g83
ssg71
g1526
sg64
(lp1533
S'wsgi_errors'
p1534
asbag57
(g78
g59
NtRp1535
(dp1536
g62
(dp1537
g89
g90
ssg71
g1526
sg64
(lp1538
S':'
asbag57
(g78
g59
NtRp1539
(dp1540
g62
(dp1541
sg71
g1526
sg64
(lp1542
g57
(g58
g59
NtRp1543
(dp1544
g62
(dp1545
g70
I4
ssg71
g1539
sg64
(lp1546
S"<open file '<stderr>', mode 'w' at 0xb76ea0d0>"
p1547
asbasbasbag57
(g73
g59
NtRp1548
(dp1549
g62
(dp1550
sg71
g822
sg64
(lp1551
g57
(g78
g59
NtRp1552
(dp1553
g62
(dp1554
g82
g83
ssg71
g1548
sg64
(lp1555
S'wsgi_file_wrapper'
p1556
asbag57
(g78
g59
NtRp1557
(dp1558
g62
(dp1559
g89
g90
ssg71
g1548
sg64
(lp1560
S':'
asbag57
(g78
g59
NtRp1561
(dp1562
g62
(dp1563
sg71
g1548
sg64
(lp1564
g57
(g58
g59
NtRp1565
(dp1566
g62
(dp1567
g70
I4
ssg71
g1561
sg64
(lp1568
S'<class wsgiref.util.FileWrapper at 0x8ff09ec>'
p1569
asbasbasbag57
(g73
g59
NtRp1570
(dp1571
g62
(dp1572
sg71
g822
sg64
(lp1573
g57
(g78
g59
NtRp1574
(dp1575
g62
(dp1576
g82
g83
ssg71
g1570
sg64
(lp1577
S'wsgi_input'
p1578
asbag57
(g78
g59
NtRp1579
(dp1580
g62
(dp1581
g89
g90
ssg71
g1570
sg64
(lp1582
S':'
asbag57
(g78
g59
NtRp1583
(dp1584
g62
(dp1585
sg71
g1570
sg64
(lp1586
g57
(g58
g59
NtRp1587
(dp1588
g62
(dp1589
g70
I4
ssg71
g1583
sg64
(lp1590
S'<socket._fileobject object at 0x9ab29ec>'
p1591
asbasbasbag57
(g73
g59
NtRp1592
(dp1593
g62
(dp1594
sg71
g822
sg64
(lp1595
g57
(g78
g59
NtRp1596
(dp1597
g62
(dp1598
g82
g83
ssg71
g1592
sg64
(lp1599
S'wsgi_multiprocess'
p1600
asbag57
(g78
g59
NtRp1601
(dp1602
g62
(dp1603
g89
g90
ssg71
g1592
sg64
(lp1604
S':'
asbag57
(g78
g59
NtRp1605
(dp1606
g62
(dp1607
sg71
g1592
sg64
(lp1608
g57
(g58
g59
NtRp1609
(dp1610
g62
(dp1611
g70
I4
ssg71
g1605
sg64
(lp1612
g100
asbasbasbag57
(g73
g59
NtRp1613
(dp1614
g62
(dp1615
sg71
g822
sg64
(lp1616
g57
(g78
g59
NtRp1617
(dp1618
g62
(dp1619
g82
g83
ssg71
g1613
sg64
(lp1620
S'wsgi_multithread'
p1621
asbag57
(g78
g59
NtRp1622
(dp1623
g62
(dp1624
g89
g90
ssg71
g1613
sg64
(lp1625
S':'
asbag57
(g78
g59
NtRp1626
(dp1627
g62
(dp1628
sg71
g1613
sg64
(lp1629
g57
(g58
g59
NtRp1630
(dp1631
g62
(dp1632
g70
I4
ssg71
g1626
sg64
(lp1633
S'True'
p1634
asbasbasbag57
(g73
g59
NtRp1635
(dp1636
g62
(dp1637
sg71
g822
sg64
(lp1638
g57
(g78
g59
NtRp1639
(dp1640
g62
(dp1641
g82
g83
ssg71
g1635
sg64
(lp1642
S'wsgi_run_once'
p1643
asbag57
(g78
g59
NtRp1644
(dp1645
g62
(dp1646
g89
g90
ssg71
g1635
sg64
(lp1647
S':'
asbag57
(g78
g59
NtRp1648
(dp1649
g62
(dp1650
sg71
g1635
sg64
(lp1651
g57
(g58
g59
NtRp1652
(dp1653
g62
(dp1654
g70
I4
ssg71
g1648
sg64
(lp1655
g100
asbasbasbag57
(g73
g59
NtRp1656
(dp1657
g62
(dp1658
sg71
g822
sg64
(lp1659
g57
(g78
g59
NtRp1660
(dp1661
g62
(dp1662
g82
g83
ssg71
g1656
sg64
(lp1663
S'wsgi_url_scheme'
p1664
asbag57
(g78
g59
NtRp1665
(dp1666
g62
(dp1667
g89
g90
ssg71
g1656
sg64
(lp1668
S':'
asbag57
(g78
g59
NtRp1669
(dp1670
g62
(dp1671
sg71
g1656
sg64
(lp1672
g57
(g58
g59
NtRp1673
(dp1674
g62
(dp1675
g70
I4
ssg71
g1669
sg64
(lp1676
S'http'
p1677
asbasbasbag57
(g73
g59
NtRp1678
(dp1679
g62
(dp1680
sg71
g822
sg64
(lp1681
g57
(g78
g59
NtRp1682
(dp1683
g62
(dp1684
g82
g83
ssg71
g1678
sg64
(lp1685
S'wsgi_version'
p1686
asbag57
(g78
g59
NtRp1687
(dp1688
g62
(dp1689
g89
g90
ssg71
g1678
sg64
(lp1690
S':'
asbag57
(g78
g59
NtRp1691
(dp1692
g62
(dp1693
sg71
g1678
sg64
(lp1694
g57
(g58
g59
NtRp1695
(dp1696
g62
(dp1697
g70
I4
ssg71
g1691
sg64
(lp1698
g57
(g66
g59
NtRp1699
(dp1700
g62
(dp1701
g70
I3
ssg71
Nsg64
(lp1702
g57
(g73
g59
NtRp1703
(dp1704
g62
(dp1705
sg71
g1699
sg64
(lp1706
g57
(g78
g59
NtRp1707
(dp1708
g62
(dp1709
sg71
g1703
sg64
(lp1710
g57
(g58
g59
NtRp1711
(dp1712
g62
(dp1713
g70
I3
ssg71
g1707
sg64
(lp1714
S'1'
asbasbasbag57
(g73
g59
NtRp1715
(dp1716
g62
(dp1717
sg71
g1699
sg64
(lp1718
g57
(g78
g59
NtRp1719
(dp1720
g62
(dp1721
sg71
g1715
sg64
(lp1722
g57
(g58
g59
NtRp1723
(dp1724
g62
(dp1725
g70
I3
ssg71
g1719
sg64
(lp1726
S'0'
asbasbasbasbasbasbasbasbasbasbasbag57
(g73
g59
NtRp1727
(dp1728
g62
(dp1729
sg71
g67
sg64
(lp1730
g57
(g78
g59
NtRp1731
(dp1732
g62
(dp1733
g82
g83
ssg71
g1727
sg64
(lp1734
S'extension'
p1735
asbag57
(g78
g59
NtRp1736
(dp1737
g62
(dp1738
g89
g90
ssg71
g1727
sg64
(lp1739
S':'
asbag57
(g78
g59
NtRp1740
(dp1741
g62
(dp1742
sg71
g1727
sg64
(lp1743
g57
(g58
g59
NtRp1744
(dp1745
g62
(dp1746
g70
I5
ssg71
g1740
sg64
(lp1747
S'html'
p1748
asbasbasbag57
(g73
g59
NtRp1749
(dp1750
g62
(dp1751
sg71
g67
sg64
(lp1752
g57
(g78
g59
NtRp1753
(dp1754
g62
(dp1755
g82
g83
ssg71
g1749
sg64
(lp1756
S'folder'
p1757
asbag57
(g78
g59
NtRp1758
(dp1759
g62
(dp1760
g89
g90
ssg71
g1749
sg64
(lp1761
S':'
asbag57
(g78
g59
NtRp1762
(dp1763
g62
(dp1764
sg71
g1749
sg64
(lp1765
g57
(g58
g59
NtRp1766
(dp1767
g62
(dp1768
g70
I5
ssg71
g1762
sg64
(lp1769
S'/home/famihug/Apps/web2py/applications/mTask/'
p1770
asbasbasbag57
(g73
g59
NtRp1771
(dp1772
g62
(dp1773
sg71
g67
sg64
(lp1774
g57
(g78
g59
NtRp1775
(dp1776
g62
(dp1777
g82
g83
ssg71
g1771
sg64
(lp1778
S'function'
p1779
asbag57
(g78
g59
NtRp1780
(dp1781
g62
(dp1782
g89
g90
ssg71
g1771
sg64
(lp1783
S':'
asbag57
(g78
g59
NtRp1784
(dp1785
g62
(dp1786
sg71
g1771
sg64
(lp1787
g57
(g58
g59
NtRp1788
(dp1789
g62
(dp1790
g70
I5
ssg71
g1784
sg64
(lp1791
S'index'
p1792
asbasbasbag57
(g73
g59
NtRp1793
(dp1794
g62
(dp1795
sg71
g67
sg64
(lp1796
g57
(g78
g59
NtRp1797
(dp1798
g62
(dp1799
g82
g83
ssg71
g1793
sg64
(lp1800
S'get_vars'
p1801
asbag57
(g78
g59
NtRp1802
(dp1803
g62
(dp1804
g89
g90
ssg71
g1793
sg64
(lp1805
S':'
asbag57
(g78
g59
NtRp1806
(dp1807
g62
(dp1808
sg71
g1793
sg64
(lp1809
g57
(g58
g59
NtRp1810
(dp1811
g62
(dp1812
g70
I5
ssg71
g1806
sg64
(lp1813
g57
(g66
g59
NtRp1814
(dp1815
g62
(dp1816
g70
I4
ssg71
Nsg64
(lp1817
sbasbasbasbag57
(g73
g59
NtRp1818
(dp1819
g62
(dp1820
sg71
g67
sg64
(lp1821
g57
(g78
g59
NtRp1822
(dp1823
g62
(dp1824
g82
g83
ssg71
g1818
sg64
(lp1825
S'global_settings'
p1826
asbag57
(g78
g59
NtRp1827
(dp1828
g62
(dp1829
g89
g90
ssg71
g1818
sg64
(lp1830
S':'
asbag57
(g78
g59
NtRp1831
(dp1832
g62
(dp1833
sg71
g1818
sg64
(lp1834
g57
(g58
g59
NtRp1835
(dp1836
g62
(dp1837
g70
I5
ssg71
g1831
sg64
(lp1838
g57
(g66
g59
NtRp1839
(dp1840
g62
(dp1841
g70
I4
ssg71
Nsg64
(lp1842
g57
(g73
g59
NtRp1843
(dp1844
g62
(dp1845
sg71
g1839
sg64
(lp1846
g57
(g78
g59
NtRp1847
(dp1848
g62
(dp1849
g82
g83
ssg71
g1843
sg64
(lp1850
g834
asbag57
(g78
g59
NtRp1851
(dp1852
g62
(dp1853
g89
g90
ssg71
g1843
sg64
(lp1854
S':'
asbag57
(g78
g59
NtRp1855
(dp1856
g62
(dp1857
sg71
g1843
sg64
(lp1858
g57
(g58
g59
NtRp1859
(dp1860
g62
(dp1861
g70
I4
ssg71
g1855
sg64
(lp1862
S"set(['/home/famihug/Apps/web2py/applications/mTask/', '/home/famihug/Apps/web2py/applications/welcome/', '/home/famihug/Apps/web2py/applications/test/', '/home/famihug/Apps/web2py/applications/examples/', '/home/famihug/Apps/web2py/applications/admin/'])"
p1863
asbasbasbag57
(g73
g59
NtRp1864
(dp1865
g62
(dp1866
sg71
g1839
sg64
(lp1867
g57
(g78
g59
NtRp1868
(dp1869
g62
(dp1870
g82
g83
ssg71
g1864
sg64
(lp1871
g856
asbag57
(g78
g59
NtRp1872
(dp1873
g62
(dp1874
g89
g90
ssg71
g1864
sg64
(lp1875
S':'
asbag57
(g78
g59
NtRp1876
(dp1877
g62
(dp1878
sg71
g1864
sg64
(lp1879
g57
(g58
g59
NtRp1880
(dp1881
g62
(dp1882
g70
I4
ssg71
g1876
sg64
(lp1883
g869
asbasbasbag57
(g73
g59
NtRp1884
(dp1885
g62
(dp1886
sg71
g1839
sg64
(lp1887
g57
(g78
g59
NtRp1888
(dp1889
g62
(dp1890
g82
g83
ssg71
g1884
sg64
(lp1891
g878
asbag57
(g78
g59
NtRp1892
(dp1893
g62
(dp1894
g89
g90
ssg71
g1884
sg64
(lp1895
S':'
asbag57
(g78
g59
NtRp1896
(dp1897
g62
(dp1898
sg71
g1884
sg64
(lp1899
g57
(g58
g59
NtRp1900
(dp1901
g62
(dp1902
g70
I4
ssg71
g1896
sg64
(lp1903
g57
(g66
g59
NtRp1904
(dp1905
g62
(dp1906
g70
I3
ssg71
Nsg64
(lp1907
sbasbasbasbag57
(g73
g59
NtRp1908
(dp1909
g62
(dp1910
sg71
g1839
sg64
(lp1911
g57
(g78
g59
NtRp1912
(dp1913
g62
(dp1914
g82
g83
ssg71
g1908
sg64
(lp1915
g903
asbag57
(g78
g59
NtRp1916
(dp1917
g62
(dp1918
g89
g90
ssg71
g1908
sg64
(lp1919
S':'
asbag57
(g78
g59
NtRp1920
(dp1921
g62
(dp1922
sg71
g1908
sg64
(lp1923
g57
(g58
g59
NtRp1924
(dp1925
g62
(dp1926
g70
I4
ssg71
g1920
sg64
(lp1927
S"<Values at 0x90497ec: {'verbose': False, 'ip': '127.0.0.1', 'shutdown_timeout': 5, 'taskbar': False, 'nocron': False, 'pid_filename': 'httpserver.pid', 'maxthreads': None, 'softcron': False, 'server_name': 'hvn.vn', 'bpython': False, 'nogui': False, 'port': 8000, 'extcron': False, 'debuglevel': 30, 'test': None, 'folder': '/home/famihug/Apps/web2py', 'config': '', 'import_models': False, 'winservice': '', 'shell': None, 'run': '', 'log_filename': 'httpserver.log', 'args': [''], 'socket_timeout': 5, 'ssl_ca_certificate': None, 'scheduler': None, 'profiler_filename': None, 'ssl_private_key': '', 'password': 'hehehe', 'request_queue_size': 5, 'ssl_certificate': '', 'cronjob': False, 'numthreads': None, 'quiet': False, 'interfaces': None, 'minthreads': None, 'timeout': 10, 'plain': False, 'nobanner': False}>"
p1928
asbasbasbag57
(g73
g59
NtRp1929
(dp1930
g62
(dp1931
sg71
g1839
sg64
(lp1932
g57
(g78
g59
NtRp1933
(dp1934
g62
(dp1935
g82
g83
ssg71
g1929
sg64
(lp1936
g925
asbag57
(g78
g59
NtRp1937
(dp1938
g62
(dp1939
g89
g90
ssg71
g1929
sg64
(lp1940
S':'
asbag57
(g78
g59
NtRp1941
(dp1942
g62
(dp1943
sg71
g1929
sg64
(lp1944
g57
(g58
g59
NtRp1945
(dp1946
g62
(dp1947
g70
I4
ssg71
g1941
sg64
(lp1948
S'set([])'
p1949
asbasbasbag57
(g73
g59
NtRp1950
(dp1951
g62
(dp1952
sg71
g1839
sg64
(lp1953
g57
(g78
g59
NtRp1954
(dp1955
g62
(dp1956
g82
g83
ssg71
g1950
sg64
(lp1957
g947
asbag57
(g78
g59
NtRp1958
(dp1959
g62
(dp1960
g89
g90
ssg71
g1950
sg64
(lp1961
S':'
asbag57
(g78
g59
NtRp1962
(dp1963
g62
(dp1964
sg71
g1950
sg64
(lp1965
g57
(g58
g59
NtRp1966
(dp1967
g62
(dp1968
g70
I4
ssg71
g1962
sg64
(lp1969
g100
asbasbasbag57
(g73
g59
NtRp1970
(dp1971
g62
(dp1972
sg71
g1839
sg64
(lp1973
g57
(g78
g59
NtRp1974
(dp1975
g62
(dp1976
g82
g83
ssg71
g1970
sg64
(lp1977
g968
asbag57
(g78
g59
NtRp1978
(dp1979
g62
(dp1980
g89
g90
ssg71
g1970
sg64
(lp1981
S':'
asbag57
(g78
g59
NtRp1982
(dp1983
g62
(dp1984
sg71
g1970
sg64
(lp1985
g57
(g58
g59
NtRp1986
(dp1987
g62
(dp1988
g70
I4
ssg71
g1982
sg64
(lp1989
g981
asbasbasbag57
(g73
g59
NtRp1990
(dp1991
g62
(dp1992
sg71
g1839
sg64
(lp1993
g57
(g78
g59
NtRp1994
(dp1995
g62
(dp1996
g82
g83
ssg71
g1990
sg64
(lp1997
g1144
asbag57
(g78
g59
NtRp1998
(dp1999
g62
(dp2000
g89
g90
ssg71
g1990
sg64
(lp2001
S':'
asbag57
(g78
g59
NtRp2002
(dp2003
g62
(dp2004
sg71
g1990
sg64
(lp2005
g57
(g58
g59
NtRp2006
(dp2007
g62
(dp2008
g70
I4
ssg71
g2002
sg64
(lp2009
g100
asbasbasbag57
(g73
g59
NtRp2010
(dp2011
g62
(dp2012
sg71
g1839
sg64
(lp2013
g57
(g78
g59
NtRp2014
(dp2015
g62
(dp2016
g82
g83
ssg71
g2010
sg64
(lp2017
g1165
asbag57
(g78
g59
NtRp2018
(dp2019
g62
(dp2020
g89
g90
ssg71
g2010
sg64
(lp2021
S':'
asbag57
(g78
g59
NtRp2022
(dp2023
g62
(dp2024
sg71
g2010
sg64
(lp2025
g57
(g58
g59
NtRp2026
(dp2027
g62
(dp2028
g70
I4
ssg71
g2022
sg64
(lp2029
g100
asbasbasbag57
(g73
g59
NtRp2030
(dp2031
g62
(dp2032
sg71
g1839
sg64
(lp2033
g57
(g78
g59
NtRp2034
(dp2035
g62
(dp2036
g82
g83
ssg71
g2030
sg64
(lp2037
g1403
asbag57
(g78
g59
NtRp2038
(dp2039
g62
(dp2040
g89
g90
ssg71
g2030
sg64
(lp2041
S':'
asbag57
(g78
g59
NtRp2042
(dp2043
g62
(dp2044
sg71
g2030
sg64
(lp2045
g57
(g58
g59
NtRp2046
(dp2047
g62
(dp2048
g70
I4
ssg71
g2042
sg64
(lp2049
g1416
asbasbasbag57
(g73
g59
NtRp2050
(dp2051
g62
(dp2052
sg71
g1839
sg64
(lp2053
g57
(g78
g59
NtRp2054
(dp2055
g62
(dp2056
g82
g83
ssg71
g2050
sg64
(lp2057
g1446
asbag57
(g78
g59
NtRp2058
(dp2059
g62
(dp2060
g89
g90
ssg71
g2050
sg64
(lp2061
S':'
asbag57
(g78
g59
NtRp2062
(dp2063
g62
(dp2064
sg71
g2050
sg64
(lp2065
g57
(g58
g59
NtRp2066
(dp2067
g62
(dp2068
g70
I4
ssg71
g2062
sg64
(lp2069
g57
(g66
g59
NtRp2070
(dp2071
g62
(dp2072
g70
I3
ssg71
Nsg64
(lp2073
g57
(g73
g59
NtRp2074
(dp2075
g62
(dp2076
sg71
g2070
sg64
(lp2077
g57
(g78
g59
NtRp2078
(dp2079
g62
(dp2080
sg71
g2074
sg64
(lp2081
g57
(g58
g59
NtRp2082
(dp2083
g62
(dp2084
g70
I3
ssg71
g2078
sg64
(lp2085
S'1'
asbasbasbag57
(g73
g59
NtRp2086
(dp2087
g62
(dp2088
sg71
g2070
sg64
(lp2089
g57
(g78
g59
NtRp2090
(dp2091
g62
(dp2092
sg71
g2086
sg64
(lp2093
g57
(g58
g59
NtRp2094
(dp2095
g62
(dp2096
g70
I3
ssg71
g2090
sg64
(lp2097
S'99'
p2098
asbasbasbag57
(g73
g59
NtRp2099
(dp2100
g62
(dp2101
sg71
g2070
sg64
(lp2102
g57
(g78
g59
NtRp2103
(dp2104
g62
(dp2105
sg71
g2099
sg64
(lp2106
g57
(g58
g59
NtRp2107
(dp2108
g62
(dp2109
g70
I3
ssg71
g2103
sg64
(lp2110
S'7'
asbasbasbag57
(g73
g59
NtRp2111
(dp2112
g62
(dp2113
sg71
g2070
sg64
(lp2114
g57
(g78
g59
NtRp2115
(dp2116
g62
(dp2117
sg71
g2111
sg64
(lp2118
g57
(g58
g59
NtRp2119
(dp2120
g62
(dp2121
g70
I3
ssg71
g2115
sg64
(lp2122
S'datetime.datetime(2012, 3, 4, 22, 12, 8)'
p2123
asbasbasbag57
(g73
g59
NtRp2124
(dp2125
g62
(dp2126
sg71
g2070
sg64
(lp2127
g57
(g78
g59
NtRp2128
(dp2129
g62
(dp2130
sg71
g2124
sg64
(lp2131
g57
(g58
g59
NtRp2132
(dp2133
g62
(dp2134
g70
I3
ssg71
g2128
sg64
(lp2135
g1525
asbasbasbasbasbasbasbasbasbasbasbag57
(g73
g59
NtRp2136
(dp2137
g62
(dp2138
sg71
g67
sg64
(lp2139
g57
(g78
g59
NtRp2140
(dp2141
g62
(dp2142
g82
g83
ssg71
g2136
sg64
(lp2143
S'is_https'
p2144
asbag57
(g78
g59
NtRp2145
(dp2146
g62
(dp2147
g89
g90
ssg71
g2136
sg64
(lp2148
S':'
asbag57
(g78
g59
NtRp2149
(dp2150
g62
(dp2151
sg71
g2136
sg64
(lp2152
g57
(g58
g59
NtRp2153
(dp2154
g62
(dp2155
g70
I5
ssg71
g2149
sg64
(lp2156
g100
asbasbasbag57
(g73
g59
NtRp2157
(dp2158
g62
(dp2159
sg71
g67
sg64
(lp2160
g57
(g78
g59
NtRp2161
(dp2162
g62
(dp2163
g82
g83
ssg71
g2157
sg64
(lp2164
S'is_local'
p2165
asbag57
(g78
g59
NtRp2166
(dp2167
g62
(dp2168
g89
g90
ssg71
g2157
sg64
(lp2169
S':'
asbag57
(g78
g59
NtRp2170
(dp2171
g62
(dp2172
sg71
g2157
sg64
(lp2173
g57
(g58
g59
NtRp2174
(dp2175
g62
(dp2176
g70
I5
ssg71
g2170
sg64
(lp2177
g1634
asbasbasbag57
(g73
g59
NtRp2178
(dp2179
g62
(dp2180
sg71
g67
sg64
(lp2181
g57
(g78
g59
NtRp2182
(dp2183
g62
(dp2184
g82
g83
ssg71
g2178
sg64
(lp2185
S'is_restful'
p2186
asbag57
(g78
g59
NtRp2187
(dp2188
g62
(dp2189
g89
g90
ssg71
g2178
sg64
(lp2190
S':'
asbag57
(g78
g59
NtRp2191
(dp2192
g62
(dp2193
sg71
g2178
sg64
(lp2194
g57
(g58
g59
NtRp2195
(dp2196
g62
(dp2197
g70
I5
ssg71
g2191
sg64
(lp2198
g100
asbasbasbag57
(g73
g59
NtRp2199
(dp2200
g62
(dp2201
sg71
g67
sg64
(lp2202
g57
(g78
g59
NtRp2203
(dp2204
g62
(dp2205
g82
g83
ssg71
g2199
sg64
(lp2206
S'now'
p2207
asbag57
(g78
g59
NtRp2208
(dp2209
g62
(dp2210
g89
g90
ssg71
g2199
sg64
(lp2211
S':'
asbag57
(g78
g59
NtRp2212
(dp2213
g62
(dp2214
sg71
g2199
sg64
(lp2215
g57
(g58
g59
NtRp2216
(dp2217
g62
(dp2218
g70
I5
ssg71
g2212
sg64
(lp2219
S'datetime.datetime(2012, 7, 3, 13, 43, 30, 695188)'
p2220
asbasbasbag57
(g73
g59
NtRp2221
(dp2222
g62
(dp2223
sg71
g67
sg64
(lp2224
g57
(g78
g59
NtRp2225
(dp2226
g62
(dp2227
g82
g83
ssg71
g2221
sg64
(lp2228
S'post_vars'
p2229
asbag57
(g78
g59
NtRp2230
(dp2231
g62
(dp2232
g89
g90
ssg71
g2221
sg64
(lp2233
S':'
asbag57
(g78
g59
NtRp2234
(dp2235
g62
(dp2236
sg71
g2221
sg64
(lp2237
g57
(g58
g59
NtRp2238
(dp2239
g62
(dp2240
g70
I5
ssg71
g2234
sg64
(lp2241
g57
(g66
g59
NtRp2242
(dp2243
g62
(dp2244
g70
I4
ssg71
Nsg64
(lp2245
sbasbasbasbag57
(g73
g59
NtRp2246
(dp2247
g62
(dp2248
sg71
g67
sg64
(lp2249
g57
(g78
g59
NtRp2250
(dp2251
g62
(dp2252
g82
g83
ssg71
g2246
sg64
(lp2253
S'url'
p2254
asbag57
(g78
g59
NtRp2255
(dp2256
g62
(dp2257
g89
g90
ssg71
g2246
sg64
(lp2258
S':'
asbag57
(g78
g59
NtRp2259
(dp2260
g62
(dp2261
sg71
g2246
sg64
(lp2262
g57
(g58
g59
NtRp2263
(dp2264
g62
(dp2265
g70
I5
ssg71
g2259
sg64
(lp2266
S'/mTask/default/index'
p2267
asbasbasbag57
(g73
g59
NtRp2268
(dp2269
g62
(dp2270
sg71
g67
sg64
(lp2271
g57
(g78
g59
NtRp2272
(dp2273
g62
(dp2274
g82
g83
ssg71
g2268
sg64
(lp2275
S'utcnow'
p2276
asbag57
(g78
g59
NtRp2277
(dp2278
g62
(dp2279
g89
g90
ssg71
g2268
sg64
(lp2280
S':'
asbag57
(g78
g59
NtRp2281
(dp2282
g62
(dp2283
sg71
g2268
sg64
(lp2284
g57
(g58
g59
NtRp2285
(dp2286
g62
(dp2287
g70
I5
ssg71
g2281
sg64
(lp2288
S'datetime.datetime(2012, 7, 3, 6, 43, 30, 695224)'
p2289
asbasbasbag57
(g73
g59
NtRp2290
(dp2291
g62
(dp2292
sg71
g67
sg64
(lp2293
g57
(g78
g59
NtRp2294
(dp2295
g62
(dp2296
g82
g83
ssg71
g2290
sg64
(lp2297
S'uuid'
p2298
asbag57
(g78
g59
NtRp2299
(dp2300
g62
(dp2301
g89
g90
ssg71
g2290
sg64
(lp2302
S':'
asbag57
(g78
g59
NtRp2303
(dp2304
g62
(dp2305
sg71
g2290
sg64
(lp2306
g57
(g58
g59
NtRp2307
(dp2308
g62
(dp2309
g70
I5
ssg71
g2303
sg64
(lp2310
S'mTask/127.0.0.1.2012-07-03.13-43-30.dbb10823-87f5-4bb4-abda-a432c1a1897d'
p2311
asbasbasbag57
(g73
g59
NtRp2312
(dp2313
g62
(dp2314
sg71
g67
sg64
(lp2315
g57
(g78
g59
NtRp2316
(dp2317
g62
(dp2318
g82
g83
ssg71
g2312
sg64
(lp2319
S'vars'
p2320
asbag57
(g78
g59
NtRp2321
(dp2322
g62
(dp2323
g89
g90
ssg71
g2312
sg64
(lp2324
S':'
asbag57
(g78
g59
NtRp2325
(dp2326
g62
(dp2327
sg71
g2312
sg64
(lp2328
g57
(g58
g59
NtRp2329
(dp2330
g62
(dp2331
g70
I5
ssg71
g2325
sg64
(lp2332
g57
(g66
g59
NtRp2333
(dp2334
g62
(dp2335
g70
I4
ssg71
Nsg64
(lp2336
sbasbasbasbag57
(g73
g59
NtRp2337
(dp2338
g62
(dp2339
sg71
g67
sg64
(lp2340
g57
(g78
g59
NtRp2341
(dp2342
g62
(dp2343
g82
g83
ssg71
g2337
sg64
(lp2344
S'wsgi'
p2345
asbag57
(g78
g59
NtRp2346
(dp2347
g62
(dp2348
g89
g90
ssg71
g2337
sg64
(lp2349
S':'
asbag57
(g78
g59
NtRp2350
(dp2351
g62
(dp2352
sg71
g2337
sg64
(lp2353
g57
(g58
g59
NtRp2354
(dp2355
g62
(dp2356
g70
I5
ssg71
g2350
sg64
(lp2357
g57
(g66
g59
NtRp2358
(dp2359
g62
(dp2360
g70
I4
ssg71
Nsg64
(lp2361
g57
(g73
g59
NtRp2362
(dp2363
g62
(dp2364
sg71
g2358
sg64
(lp2365
g57
(g78
g59
NtRp2366
(dp2367
g62
(dp2368
g82
g83
ssg71
g2362
sg64
(lp2369
S'environ'
p2370
asbag57
(g78
g59
NtRp2371
(dp2372
g62
(dp2373
g89
g90
ssg71
g2362
sg64
(lp2374
S':'
asbag57
(g78
g59
NtRp2375
(dp2376
g62
(dp2377
sg71
g2362
sg64
(lp2378
g57
(g58
g59
NtRp2379
(dp2380
g62
(dp2381
g70
I4
ssg71
g2375
sg64
(lp2382
g57
(g66
g59
NtRp2383
(dp2384
g62
(dp2385
g70
I3
ssg71
Nsg64
(lp2386
g57
(g73
g59
NtRp2387
(dp2388
g62
(dp2389
sg71
g2383
sg64
(lp2390
g57
(g78
g59
NtRp2391
(dp2392
g62
(dp2393
g82
g83
ssg71
g2387
sg64
(lp2394
S'HTTP_ACCEPT'
p2395
asbag57
(g78
g59
NtRp2396
(dp2397
g62
(dp2398
g89
g90
ssg71
g2387
sg64
(lp2399
S':'
asbag57
(g78
g59
NtRp2400
(dp2401
g62
(dp2402
sg71
g2387
sg64
(lp2403
g57
(g58
g59
NtRp2404
(dp2405
g62
(dp2406
g70
I3
ssg71
g2400
sg64
(lp2407
g1003
asbasbasbag57
(g73
g59
NtRp2408
(dp2409
g62
(dp2410
sg71
g2383
sg64
(lp2411
g57
(g78
g59
NtRp2412
(dp2413
g62
(dp2414
g82
g83
ssg71
g2408
sg64
(lp2415
S'HTTP_ACCEPT_ENCODING'
p2416
asbag57
(g78
g59
NtRp2417
(dp2418
g62
(dp2419
g89
g90
ssg71
g2408
sg64
(lp2420
S':'
asbag57
(g78
g59
NtRp2421
(dp2422
g62
(dp2423
sg71
g2408
sg64
(lp2424
g57
(g58
g59
NtRp2425
(dp2426
g62
(dp2427
g70
I3
ssg71
g2421
sg64
(lp2428
g1025
asbasbasbag57
(g73
g59
NtRp2429
(dp2430
g62
(dp2431
sg71
g2383
sg64
(lp2432
g57
(g78
g59
NtRp2433
(dp2434
g62
(dp2435
g82
g83
ssg71
g2429
sg64
(lp2436
S'HTTP_ACCEPT_LANGUAGE'
p2437
asbag57
(g78
g59
NtRp2438
(dp2439
g62
(dp2440
g89
g90
ssg71
g2429
sg64
(lp2441
S':'
asbag57
(g78
g59
NtRp2442
(dp2443
g62
(dp2444
sg71
g2429
sg64
(lp2445
g57
(g58
g59
NtRp2446
(dp2447
g62
(dp2448
g70
I3
ssg71
g2442
sg64
(lp2449
g1047
asbasbasbag57
(g73
g59
NtRp2450
(dp2451
g62
(dp2452
sg71
g2383
sg64
(lp2453
g57
(g78
g59
NtRp2454
(dp2455
g62
(dp2456
g82
g83
ssg71
g2450
sg64
(lp2457
S'HTTP_CONNECTION'
p2458
asbag57
(g78
g59
NtRp2459
(dp2460
g62
(dp2461
g89
g90
ssg71
g2450
sg64
(lp2462
S':'
asbag57
(g78
g59
NtRp2463
(dp2464
g62
(dp2465
sg71
g2450
sg64
(lp2466
g57
(g58
g59
NtRp2467
(dp2468
g62
(dp2469
g70
I3
ssg71
g2463
sg64
(lp2470
g1069
asbasbasbag57
(g73
g59
NtRp2471
(dp2472
g62
(dp2473
sg71
g2383
sg64
(lp2474
g57
(g78
g59
NtRp2475
(dp2476
g62
(dp2477
g82
g83
ssg71
g2471
sg64
(lp2478
S'HTTP_COOKIE'
p2479
asbag57
(g78
g59
NtRp2480
(dp2481
g62
(dp2482
g89
g90
ssg71
g2471
sg64
(lp2483
S':'
asbag57
(g78
g59
NtRp2484
(dp2485
g62
(dp2486
sg71
g2471
sg64
(lp2487
g57
(g58
g59
NtRp2488
(dp2489
g62
(dp2490
g70
I3
ssg71
g2484
sg64
(lp2491
g1091
asbasbasbag57
(g73
g59
NtRp2492
(dp2493
g62
(dp2494
sg71
g2383
sg64
(lp2495
g57
(g78
g59
NtRp2496
(dp2497
g62
(dp2498
g82
g83
ssg71
g2492
sg64
(lp2499
S'HTTP_HOST'
p2500
asbag57
(g78
g59
NtRp2501
(dp2502
g62
(dp2503
g89
g90
ssg71
g2492
sg64
(lp2504
S':'
asbag57
(g78
g59
NtRp2505
(dp2506
g62
(dp2507
sg71
g2492
sg64
(lp2508
g57
(g58
g59
NtRp2509
(dp2510
g62
(dp2511
g70
I3
ssg71
g2505
sg64
(lp2512
g1113
asbasbasbag57
(g73
g59
NtRp2513
(dp2514
g62
(dp2515
sg71
g2383
sg64
(lp2516
g57
(g78
g59
NtRp2517
(dp2518
g62
(dp2519
g82
g83
ssg71
g2513
sg64
(lp2520
S'HTTP_USER_AGENT'
p2521
asbag57
(g78
g59
NtRp2522
(dp2523
g62
(dp2524
g89
g90
ssg71
g2513
sg64
(lp2525
S':'
asbag57
(g78
g59
NtRp2526
(dp2527
g62
(dp2528
sg71
g2513
sg64
(lp2529
g57
(g58
g59
NtRp2530
(dp2531
g62
(dp2532
g70
I3
ssg71
g2526
sg64
(lp2533
g1135
asbasbasbag57
(g73
g59
NtRp2534
(dp2535
g62
(dp2536
sg71
g2383
sg64
(lp2537
g57
(g78
g59
NtRp2538
(dp2539
g62
(dp2540
g82
g83
ssg71
g2534
sg64
(lp2541
S'PATH_INFO'
p2542
asbag57
(g78
g59
NtRp2543
(dp2544
g62
(dp2545
g89
g90
ssg71
g2534
sg64
(lp2546
S':'
asbag57
(g78
g59
NtRp2547
(dp2548
g62
(dp2549
sg71
g2534
sg64
(lp2550
g57
(g58
g59
NtRp2551
(dp2552
g62
(dp2553
g70
I3
ssg71
g2547
sg64
(lp2554
g1199
asbasbasbag57
(g73
g59
NtRp2555
(dp2556
g62
(dp2557
sg71
g2383
sg64
(lp2558
g57
(g78
g59
NtRp2559
(dp2560
g62
(dp2561
g82
g83
ssg71
g2555
sg64
(lp2562
S'QUERY_STRING'
p2563
asbag57
(g78
g59
NtRp2564
(dp2565
g62
(dp2566
g89
g90
ssg71
g2555
sg64
(lp2567
S':'
asbag57
(g78
g59
NtRp2568
(dp2569
g62
(dp2570
sg71
g2555
sg64
(lp2571
g57
(g58
g59
NtRp2572
(dp2573
g62
(dp2574
g70
I3
ssg71
g2568
sg64
(lp2575
S''
asbasbasbag57
(g73
g59
NtRp2576
(dp2577
g62
(dp2578
sg71
g2383
sg64
(lp2579
g57
(g78
g59
NtRp2580
(dp2581
g62
(dp2582
g82
g83
ssg71
g2576
sg64
(lp2583
S'REMOTE_ADDR'
p2584
asbag57
(g78
g59
NtRp2585
(dp2586
g62
(dp2587
g89
g90
ssg71
g2576
sg64
(lp2588
S':'
asbag57
(g78
g59
NtRp2589
(dp2590
g62
(dp2591
sg71
g2576
sg64
(lp2592
g57
(g58
g59
NtRp2593
(dp2594
g62
(dp2595
g70
I3
ssg71
g2589
sg64
(lp2596
g190
asbasbasbag57
(g73
g59
NtRp2597
(dp2598
g62
(dp2599
sg71
g2383
sg64
(lp2600
g57
(g78
g59
NtRp2601
(dp2602
g62
(dp2603
g82
g83
ssg71
g2597
sg64
(lp2604
S'REMOTE_PORT'
p2605
asbag57
(g78
g59
NtRp2606
(dp2607
g62
(dp2608
g89
g90
ssg71
g2597
sg64
(lp2609
S':'
asbag57
(g78
g59
NtRp2610
(dp2611
g62
(dp2612
sg71
g2597
sg64
(lp2613
g57
(g58
g59
NtRp2614
(dp2615
g62
(dp2616
g70
I3
ssg71
g2610
sg64
(lp2617
g1263
asbasbasbag57
(g73
g59
NtRp2618
(dp2619
g62
(dp2620
sg71
g2383
sg64
(lp2621
g57
(g78
g59
NtRp2622
(dp2623
g62
(dp2624
g82
g83
ssg71
g2618
sg64
(lp2625
S'REQUEST_METHOD'
p2626
asbag57
(g78
g59
NtRp2627
(dp2628
g62
(dp2629
g89
g90
ssg71
g2618
sg64
(lp2630
S':'
asbag57
(g78
g59
NtRp2631
(dp2632
g62
(dp2633
sg71
g2618
sg64
(lp2634
g57
(g58
g59
NtRp2635
(dp2636
g62
(dp2637
g70
I3
ssg71
g2631
sg64
(lp2638
g1285
asbasbasbag57
(g73
g59
NtRp2639
(dp2640
g62
(dp2641
sg71
g2383
sg64
(lp2642
g57
(g78
g59
NtRp2643
(dp2644
g62
(dp2645
g82
g83
ssg71
g2639
sg64
(lp2646
S'SCRIPT_NAME'
p2647
asbag57
(g78
g59
NtRp2648
(dp2649
g62
(dp2650
g89
g90
ssg71
g2639
sg64
(lp2651
S':'
asbag57
(g78
g59
NtRp2652
(dp2653
g62
(dp2654
sg71
g2639
sg64
(lp2655
g57
(g58
g59
NtRp2656
(dp2657
g62
(dp2658
g70
I3
ssg71
g2652
sg64
(lp2659
S''
asbasbasbag57
(g73
g59
NtRp2660
(dp2661
g62
(dp2662
sg71
g2383
sg64
(lp2663
g57
(g78
g59
NtRp2664
(dp2665
g62
(dp2666
g82
g83
ssg71
g2660
sg64
(lp2667
S'SERVER_NAME'
p2668
asbag57
(g78
g59
NtRp2669
(dp2670
g62
(dp2671
g89
g90
ssg71
g2660
sg64
(lp2672
S':'
asbag57
(g78
g59
NtRp2673
(dp2674
g62
(dp2675
sg71
g2660
sg64
(lp2676
g57
(g58
g59
NtRp2677
(dp2678
g62
(dp2679
g70
I3
ssg71
g2673
sg64
(lp2680
g1328
asbasbasbag57
(g73
g59
NtRp2681
(dp2682
g62
(dp2683
sg71
g2383
sg64
(lp2684
g57
(g78
g59
NtRp2685
(dp2686
g62
(dp2687
g82
g83
ssg71
g2681
sg64
(lp2688
S'SERVER_PORT'
p2689
asbag57
(g78
g59
NtRp2690
(dp2691
g62
(dp2692
g89
g90
ssg71
g2681
sg64
(lp2693
S':'
asbag57
(g78
g59
NtRp2694
(dp2695
g62
(dp2696
sg71
g2681
sg64
(lp2697
g57
(g58
g59
NtRp2698
(dp2699
g62
(dp2700
g70
I3
ssg71
g2694
sg64
(lp2701
g1350
asbasbasbag57
(g73
g59
NtRp2702
(dp2703
g62
(dp2704
sg71
g2383
sg64
(lp2705
g57
(g78
g59
NtRp2706
(dp2707
g62
(dp2708
g82
g83
ssg71
g2702
sg64
(lp2709
S'SERVER_PROTOCOL'
p2710
asbag57
(g78
g59
NtRp2711
(dp2712
g62
(dp2713
g89
g90
ssg71
g2702
sg64
(lp2714
S':'
asbag57
(g78
g59
NtRp2715
(dp2716
g62
(dp2717
sg71
g2702
sg64
(lp2718
g57
(g58
g59
NtRp2719
(dp2720
g62
(dp2721
g70
I3
ssg71
g2715
sg64
(lp2722
g1372
asbasbasbag57
(g73
g59
NtRp2723
(dp2724
g62
(dp2725
sg71
g2383
sg64
(lp2726
g57
(g78
g59
NtRp2727
(dp2728
g62
(dp2729
g82
g83
ssg71
g2723
sg64
(lp2730
S'SERVER_SOFTWARE'
p2731
asbag57
(g78
g59
NtRp2732
(dp2733
g62
(dp2734
g89
g90
ssg71
g2723
sg64
(lp2735
S':'
asbag57
(g78
g59
NtRp2736
(dp2737
g62
(dp2738
sg71
g2723
sg64
(lp2739
g57
(g58
g59
NtRp2740
(dp2741
g62
(dp2742
g70
I3
ssg71
g2736
sg64
(lp2743
g1394
asbasbasbag57
(g73
g59
NtRp2744
(dp2745
g62
(dp2746
sg71
g2383
sg64
(lp2747
g57
(g78
g59
NtRp2748
(dp2749
g62
(dp2750
g82
g83
ssg71
g2744
sg64
(lp2751
S'wsgi.errors'
p2752
asbag57
(g78
g59
NtRp2753
(dp2754
g62
(dp2755
g89
g90
ssg71
g2744
sg64
(lp2756
S':'
asbag57
(g78
g59
NtRp2757
(dp2758
g62
(dp2759
sg71
g2744
sg64
(lp2760
g57
(g58
g59
NtRp2761
(dp2762
g62
(dp2763
g70
I3
ssg71
g2757
sg64
(lp2764
S"<open file '<stderr>', mode 'w' at 0xb76ea0d0>"
p2765
asbasbasbag57
(g73
g59
NtRp2766
(dp2767
g62
(dp2768
sg71
g2383
sg64
(lp2769
g57
(g78
g59
NtRp2770
(dp2771
g62
(dp2772
g82
g83
ssg71
g2766
sg64
(lp2773
S'wsgi.file_wrapper'
p2774
asbag57
(g78
g59
NtRp2775
(dp2776
g62
(dp2777
g89
g90
ssg71
g2766
sg64
(lp2778
S':'
asbag57
(g78
g59
NtRp2779
(dp2780
g62
(dp2781
sg71
g2766
sg64
(lp2782
g57
(g58
g59
NtRp2783
(dp2784
g62
(dp2785
g70
I3
ssg71
g2779
sg64
(lp2786
S'<class wsgiref.util.FileWrapper at 0x8ff09ec>'
p2787
asbasbasbag57
(g73
g59
NtRp2788
(dp2789
g62
(dp2790
sg71
g2383
sg64
(lp2791
g57
(g78
g59
NtRp2792
(dp2793
g62
(dp2794
g82
g83
ssg71
g2788
sg64
(lp2795
S'wsgi.input'
p2796
asbag57
(g78
g59
NtRp2797
(dp2798
g62
(dp2799
g89
g90
ssg71
g2788
sg64
(lp2800
S':'
asbag57
(g78
g59
NtRp2801
(dp2802
g62
(dp2803
sg71
g2788
sg64
(lp2804
g57
(g58
g59
NtRp2805
(dp2806
g62
(dp2807
g70
I3
ssg71
g2801
sg64
(lp2808
S'<cStringIO.StringO object at 0x97ad3c0>'
p2809
asbasbasbag57
(g73
g59
NtRp2810
(dp2811
g62
(dp2812
sg71
g2383
sg64
(lp2813
g57
(g78
g59
NtRp2814
(dp2815
g62
(dp2816
g82
g83
ssg71
g2810
sg64
(lp2817
S'wsgi.multiprocess'
p2818
asbag57
(g78
g59
NtRp2819
(dp2820
g62
(dp2821
g89
g90
ssg71
g2810
sg64
(lp2822
S':'
asbag57
(g78
g59
NtRp2823
(dp2824
g62
(dp2825
sg71
g2810
sg64
(lp2826
g57
(g58
g59
NtRp2827
(dp2828
g62
(dp2829
g70
I3
ssg71
g2823
sg64
(lp2830
g100
asbasbasbag57
(g73
g59
NtRp2831
(dp2832
g62
(dp2833
sg71
g2383
sg64
(lp2834
g57
(g78
g59
NtRp2835
(dp2836
g62
(dp2837
g82
g83
ssg71
g2831
sg64
(lp2838
S'wsgi.multithread'
p2839
asbag57
(g78
g59
NtRp2840
(dp2841
g62
(dp2842
g89
g90
ssg71
g2831
sg64
(lp2843
S':'
asbag57
(g78
g59
NtRp2844
(dp2845
g62
(dp2846
sg71
g2831
sg64
(lp2847
g57
(g58
g59
NtRp2848
(dp2849
g62
(dp2850
g70
I3
ssg71
g2844
sg64
(lp2851
g1634
asbasbasbag57
(g73
g59
NtRp2852
(dp2853
g62
(dp2854
sg71
g2383
sg64
(lp2855
g57
(g78
g59
NtRp2856
(dp2857
g62
(dp2858
g82
g83
ssg71
g2852
sg64
(lp2859
S'wsgi.run_once'
p2860
asbag57
(g78
g59
NtRp2861
(dp2862
g62
(dp2863
g89
g90
ssg71
g2852
sg64
(lp2864
S':'
asbag57
(g78
g59
NtRp2865
(dp2866
g62
(dp2867
sg71
g2852
sg64
(lp2868
g57
(g58
g59
NtRp2869
(dp2870
g62
(dp2871
g70
I3
ssg71
g2865
sg64
(lp2872
g100
asbasbasbag57
(g73
g59
NtRp2873
(dp2874
g62
(dp2875
sg71
g2383
sg64
(lp2876
g57
(g78
g59
NtRp2877
(dp2878
g62
(dp2879
g82
g83
ssg71
g2873
sg64
(lp2880
S'wsgi.url_scheme'
p2881
asbag57
(g78
g59
NtRp2882
(dp2883
g62
(dp2884
g89
g90
ssg71
g2873
sg64
(lp2885
S':'
asbag57
(g78
g59
NtRp2886
(dp2887
g62
(dp2888
sg71
g2873
sg64
(lp2889
g57
(g58
g59
NtRp2890
(dp2891
g62
(dp2892
g70
I3
ssg71
g2886
sg64
(lp2893
g1677
asbasbasbag57
(g73
g59
NtRp2894
(dp2895
g62
(dp2896
sg71
g2383
sg64
(lp2897
g57
(g78
g59
NtRp2898
(dp2899
g62
(dp2900
g82
g83
ssg71
g2894
sg64
(lp2901
S'wsgi.version'
p2902
asbag57
(g78
g59
NtRp2903
(dp2904
g62
(dp2905
g89
g90
ssg71
g2894
sg64
(lp2906
S':'
asbag57
(g78
g59
NtRp2907
(dp2908
g62
(dp2909
sg71
g2894
sg64
(lp2910
g57
(g58
g59
NtRp2911
(dp2912
g62
(dp2913
g70
I3
ssg71
g2907
sg64
(lp2914
S'1'
asbasbasbasbasbasbasbasbasbasbasbasbasbsS'frames'
p2915
(lp2916
(dp2917
S'file'
p2918
S'/home/famihug/Apps/web2py/gluon/restricted.py'
p2919
sS'dump'
p2920
(dp2921
S'environment'
p2922
S"{'A': <class 'gluon.html.A'>, 'Auth': <class 'gluon.tools.Auth'>, 'B': <class 'gluon.html.B'>, 'BEAUTIFY': <class 'gluon.html.BEAUTIFY'>, 'BODY': <class 'gluon.html.BODY'>, 'BR': <class 'gluon.html.BR'>, 'BUTTON': <class 'gluon.html.BUTTON'>, 'CAT': <class 'gluon.html.CAT'>, 'CENTER': <class 'gluon.html.CENTER'>, 'CLEANUP': <class 'gluon.validators.CLEANUP'>, ...}"
p2923
sS'ccode'
p2924
S'<code object <module> at 0xa16c800, file "/home/...ications/mTask/views/default/index.html", line 1>'
p2925
ssS'lnum'
p2926
I205
sS'lines'
p2927
(dp2928
I200
S'    try:'
p2929
sI201
S'        if type(code) == types.CodeType:'
p2930
sI202
S'            ccode = code'
p2931
sI203
S'        else:'
p2932
sI204
S'            ccode = compile2(code,layer)'
p2933
sI205
S'        exec ccode in environment'
p2934
sI206
S'    except HTTP:'
p2935
sI207
S'        raise'
p2936
sI208
S'    except RestrictedError:'
p2937
sI209
S'        # do not encapsulate (obfuscate) the original RestrictedError'
p2938
ssS'call'
p2939
S'(code=r"left_sidebar_enabled,right_sidebar_enabled=False...ponse.write(\'\\n</body>\\n</html>\\n\', escape=False)", environment={\'A\': <class \'gluon.html.A\'>, \'Auth\': <class \'gluon.tools.Auth\'>, \'B\': <class \'gluon.html.B\'>, \'BEAUTIFY\': <class \'gluon.html.BEAUTIFY\'>, \'BODY\': <class \'gluon.html.BODY\'>, \'BR\': <class \'gluon.html.BR\'>, \'BUTTON\': <class \'gluon.html.BUTTON\'>, \'CAT\': <class \'gluon.html.CAT\'>, \'CENTER\': <class \'gluon.html.CENTER\'>, \'CLEANUP\': <class \'gluon.validators.CLEANUP\'>, ...}, layer=\'/home/famihug/Apps/web2py/applications/mTask/views/default/index.html\')'
p2940
sS'func'
p2941
S'restricted'
p2942
sa(dp2943
g2918
S'/home/famihug/Apps/web2py/applications/mTask/views/default/index.html'
p2944
sg2920
(dp2945
sg2926
I101
sg2927
(dp2946
I96
S"    response.write('\\n<h4>Start date: ', escape=False)"
p2947
sI97
S'    response.write(task.startdate)'
p2948
sI98
S"    response.write(' </h4>\\n<h4>End date: ', escape=False)"
p2949
sI99
S'    response.write(task.enddate)'
p2950
sI100
S"    response.write(' </h4>\\n', escape=False)"
p2951
sI101
S'    endif'
p2952
sI102
S"    response.write('\\n', escape=False)"
p2953
sI103
S'    pass'
p2954
sI104
S"response.write('\\n</ul>\\n\\n', escape=False)"
p2955
sI105
S"response.write('\\n', escape=False)"
p2956
sI106
S"response.write('\\n          ', escape=False)"
p2957
sI107
S"response.write('\\n        </div>\\n        \\n        ', escape=False)"
p2958
sI108
S'if right_sidebar_enabled:'
p2959
sI109
S'    response.write(\'\\n        <div class="four columns">\\n          \', escape=False)'
p2960
sI110
S"    response.write('\\n<h2>Navigator</h2>\\n', escape=False)"
p2961
sI111
S'    response.write(A(T("Create new task"), _href=URL(\'mTask\',\'default\',\'create\'), _class=\'button\','
p2962
sI92
S"        response.write('</h2></li>\\n<h4 style=color:red>Days left: ', escape=False)"
p2963
sI93
S'        response.write(task.enddate - today)'
p2964
sI94
S"        response.write('</h4> ', escape=False)"
p2965
sI95
S'        pass'
p2966
ssg2939
S'()'
p2967
sg2941
S'<module>'
p2968
sasS'pyver'
p2969
S'Python 2.6.6: /usr/bin/python'
p2970
sS'session'
p2971
g57
(g58
g59
NtRp2972
(dp2973
g62
(dp2974
sg64
(lp2975
g57
(g66
g59
NtRp2976
(dp2977
g62
(dp2978
g70
I5
ssg71
Nsg64
(lp2979
g57
(g73
g59
NtRp2980
(dp2981
g62
(dp2982
sg71
g2976
sg64
(lp2983
g57
(g78
g59
NtRp2984
(dp2985
g62
(dp2986
g82
g83
ssg71
g2980
sg64
(lp2987
S'flash'
p2988
asbag57
(g78
g59
NtRp2989
(dp2990
g62
(dp2991
g89
g90
ssg71
g2980
sg64
(lp2992
S':'
asbag57
(g78
g59
NtRp2993
(dp2994
g62
(dp2995
sg71
g2980
sg64
(lp2996
g57
(g58
g59
NtRp2997
(dp2998
g62
(dp2999
g70
I5
ssg71
g2993
sg64
(lp3000
S''
asbasbasbasbasbsS'etype'
p3001
S"<type 'exceptions.NameError'>"
p3002
sS'date'
p3003
S'Tue Jul  3 13:43:30 2012'
p3004
sS'response'
p3005
g57
(g58
g59
NtRp3006
(dp3007
g62
(dp3008
sg64
(lp3009
g57
(g66
g59
NtRp3010
(dp3011
g62
(dp3012
g70
I5
ssg71
Nsg64
(lp3013
g57
(g73
g59
NtRp3014
(dp3015
g62
(dp3016
sg71
g3010
sg64
(lp3017
g57
(g78
g59
NtRp3018
(dp3019
g62
(dp3020
g82
g83
ssg71
g3014
sg64
(lp3021
g155
asbag57
(g78
g59
NtRp3022
(dp3023
g62
(dp3024
g89
g90
ssg71
g3014
sg64
(lp3025
S':'
asbag57
(g78
g59
NtRp3026
(dp3027
g62
(dp3028
sg71
g3014
sg64
(lp3029
g57
(g58
g59
NtRp3030
(dp3031
g62
(dp3032
g70
I5
ssg71
g3026
sg64
(lp3033
S'<cStringIO.StringO object at 0x97d7980>'
p3034
asbasbasbag57
(g73
g59
NtRp3035
(dp3036
g62
(dp3037
sg71
g3010
sg64
(lp3038
g57
(g78
g59
NtRp3039
(dp3040
g62
(dp3041
g82
g83
ssg71
g3035
sg64
(lp3042
g221
asbag57
(g78
g59
NtRp3043
(dp3044
g62
(dp3045
g89
g90
ssg71
g3035
sg64
(lp3046
S':'
asbag57
(g78
g59
NtRp3047
(dp3048
g62
(dp3049
sg71
g3035
sg64
(lp3050
g57
(g58
g59
NtRp3051
(dp3052
g62
(dp3053
g70
I5
ssg71
g3047
sg64
(lp3054
g57
(g66
g59
NtRp3055
(dp3056
g62
(dp3057
g70
I4
ssg71
Nsg64
(lp3058
g57
(g73
g59
NtRp3059
(dp3060
g62
(dp3061
sg71
g3055
sg64
(lp3062
g57
(g78
g59
NtRp3063
(dp3064
g62
(dp3065
g82
g83
ssg71
g3059
sg64
(lp3066
S'session_id_mtask'
p3067
asbag57
(g78
g59
NtRp3068
(dp3069
g62
(dp3070
g89
g90
ssg71
g3059
sg64
(lp3071
S':'
asbag57
(g78
g59
NtRp3072
(dp3073
g62
(dp3074
sg71
g3059
sg64
(lp3075
g57
(g58
g59
NtRp3076
(dp3077
g62
(dp3078
g70
I4
ssg71
g3072
sg64
(lp3079
g57
(g66
g59
NtRp3080
(dp3081
g62
(dp3082
g70
I3
ssg71
Nsg64
(lp3083
g57
(g73
g59
NtRp3084
(dp3085
g62
(dp3086
sg71
g3080
sg64
(lp3087
g57
(g78
g59
NtRp3088
(dp3089
g62
(dp3090
g82
g83
ssg71
g3084
sg64
(lp3091
g271
asbag57
(g78
g59
NtRp3092
(dp3093
g62
(dp3094
g89
g90
ssg71
g3084
sg64
(lp3095
S':'
asbag57
(g78
g59
NtRp3096
(dp3097
g62
(dp3098
sg71
g3084
sg64
(lp3099
g57
(g58
g59
NtRp3100
(dp3101
g62
(dp3102
g70
I3
ssg71
g3096
sg64
(lp3103
S''
asbasbasbag57
(g73
g59
NtRp3104
(dp3105
g62
(dp3106
sg71
g3080
sg64
(lp3107
g57
(g78
g59
NtRp3108
(dp3109
g62
(dp3110
g82
g83
ssg71
g3104
sg64
(lp3111
g292
asbag57
(g78
g59
NtRp3112
(dp3113
g62
(dp3114
g89
g90
ssg71
g3104
sg64
(lp3115
S':'
asbag57
(g78
g59
NtRp3116
(dp3117
g62
(dp3118
sg71
g3104
sg64
(lp3119
g57
(g58
g59
NtRp3120
(dp3121
g62
(dp3122
g70
I3
ssg71
g3116
sg64
(lp3123
S''
asbasbasbag57
(g73
g59
NtRp3124
(dp3125
g62
(dp3126
sg71
g3080
sg64
(lp3127
g57
(g78
g59
NtRp3128
(dp3129
g62
(dp3130
g82
g83
ssg71
g3124
sg64
(lp3131
g313
asbag57
(g78
g59
NtRp3132
(dp3133
g62
(dp3134
g89
g90
ssg71
g3124
sg64
(lp3135
S':'
asbag57
(g78
g59
NtRp3136
(dp3137
g62
(dp3138
sg71
g3124
sg64
(lp3139
g57
(g58
g59
NtRp3140
(dp3141
g62
(dp3142
g70
I3
ssg71
g3136
sg64
(lp3143
S''
asbasbasbag57
(g73
g59
NtRp3144
(dp3145
g62
(dp3146
sg71
g3080
sg64
(lp3147
g57
(g78
g59
NtRp3148
(dp3149
g62
(dp3150
g82
g83
ssg71
g3144
sg64
(lp3151
g334
asbag57
(g78
g59
NtRp3152
(dp3153
g62
(dp3154
g89
g90
ssg71
g3144
sg64
(lp3155
S':'
asbag57
(g78
g59
NtRp3156
(dp3157
g62
(dp3158
sg71
g3144
sg64
(lp3159
g57
(g58
g59
NtRp3160
(dp3161
g62
(dp3162
g70
I3
ssg71
g3156
sg64
(lp3163
S''
asbasbasbag57
(g73
g59
NtRp3164
(dp3165
g62
(dp3166
sg71
g3080
sg64
(lp3167
g57
(g78
g59
NtRp3168
(dp3169
g62
(dp3170
g82
g83
ssg71
g3164
sg64
(lp3171
g355
asbag57
(g78
g59
NtRp3172
(dp3173
g62
(dp3174
g89
g90
ssg71
g3164
sg64
(lp3175
S':'
asbag57
(g78
g59
NtRp3176
(dp3177
g62
(dp3178
sg71
g3164
sg64
(lp3179
g57
(g58
g59
NtRp3180
(dp3181
g62
(dp3182
g70
I3
ssg71
g3176
sg64
(lp3183
S''
asbasbasbag57
(g73
g59
NtRp3184
(dp3185
g62
(dp3186
sg71
g3080
sg64
(lp3187
g57
(g78
g59
NtRp3188
(dp3189
g62
(dp3190
g82
g83
ssg71
g3184
sg64
(lp3191
g376
asbag57
(g78
g59
NtRp3192
(dp3193
g62
(dp3194
g89
g90
ssg71
g3184
sg64
(lp3195
S':'
asbag57
(g78
g59
NtRp3196
(dp3197
g62
(dp3198
sg71
g3184
sg64
(lp3199
g57
(g58
g59
NtRp3200
(dp3201
g62
(dp3202
g70
I3
ssg71
g3196
sg64
(lp3203
S'/'
asbasbasbag57
(g73
g59
NtRp3204
(dp3205
g62
(dp3206
sg71
g3080
sg64
(lp3207
g57
(g78
g59
NtRp3208
(dp3209
g62
(dp3210
g82
g83
ssg71
g3204
sg64
(lp3211
g397
asbag57
(g78
g59
NtRp3212
(dp3213
g62
(dp3214
g89
g90
ssg71
g3204
sg64
(lp3215
S':'
asbag57
(g78
g59
NtRp3216
(dp3217
g62
(dp3218
sg71
g3204
sg64
(lp3219
g57
(g58
g59
NtRp3220
(dp3221
g62
(dp3222
g70
I3
ssg71
g3216
sg64
(lp3223
S''
asbasbasbag57
(g73
g59
NtRp3224
(dp3225
g62
(dp3226
sg71
g3080
sg64
(lp3227
g57
(g78
g59
NtRp3228
(dp3229
g62
(dp3230
g82
g83
ssg71
g3224
sg64
(lp3231
g418
asbag57
(g78
g59
NtRp3232
(dp3233
g62
(dp3234
g89
g90
ssg71
g3224
sg64
(lp3235
S':'
asbag57
(g78
g59
NtRp3236
(dp3237
g62
(dp3238
sg71
g3224
sg64
(lp3239
g57
(g58
g59
NtRp3240
(dp3241
g62
(dp3242
g70
I3
ssg71
g3236
sg64
(lp3243
S''
asbasbasbasbasbasbasbasbasbasbasbag57
(g73
g59
NtRp3244
(dp3245
g62
(dp3246
sg71
g3010
sg64
(lp3247
g57
(g78
g59
NtRp3248
(dp3249
g62
(dp3250
g82
g83
ssg71
g3244
sg64
(lp3251
S'delimiters'
p3252
asbag57
(g78
g59
NtRp3253
(dp3254
g62
(dp3255
g89
g90
ssg71
g3244
sg64
(lp3256
S':'
asbag57
(g78
g59
NtRp3257
(dp3258
g62
(dp3259
sg71
g3244
sg64
(lp3260
g57
(g58
g59
NtRp3261
(dp3262
g62
(dp3263
g70
I5
ssg71
g3257
sg64
(lp3264
g57
(g66
g59
NtRp3265
(dp3266
g62
(dp3267
g70
I4
ssg71
Nsg64
(lp3268
g57
(g73
g59
NtRp3269
(dp3270
g62
(dp3271
sg71
g3265
sg64
(lp3272
g57
(g78
g59
NtRp3273
(dp3274
g62
(dp3275
sg71
g3269
sg64
(lp3276
g57
(g58
g59
NtRp3277
(dp3278
g62
(dp3279
g70
I4
ssg71
g3273
sg64
(lp3280
S'{{'
p3281
asbasbasbag57
(g73
g59
NtRp3282
(dp3283
g62
(dp3284
sg71
g3265
sg64
(lp3285
g57
(g78
g59
NtRp3286
(dp3287
g62
(dp3288
sg71
g3282
sg64
(lp3289
g57
(g58
g59
NtRp3290
(dp3291
g62
(dp3292
g70
I4
ssg71
g3286
sg64
(lp3293
S'}}'
p3294
asbasbasbasbasbasbasbag57
(g73
g59
NtRp3295
(dp3296
g62
(dp3297
sg71
g3010
sg64
(lp3298
g57
(g78
g59
NtRp3299
(dp3300
g62
(dp3301
g82
g83
ssg71
g3295
sg64
(lp3302
S'files'
p3303
asbag57
(g78
g59
NtRp3304
(dp3305
g62
(dp3306
g89
g90
ssg71
g3295
sg64
(lp3307
S':'
asbag57
(g78
g59
NtRp3308
(dp3309
g62
(dp3310
sg71
g3295
sg64
(lp3311
g57
(g58
g59
NtRp3312
(dp3313
g62
(dp3314
g70
I5
ssg71
g3308
sg64
(lp3315
g57
(g66
g59
NtRp3316
(dp3317
g62
(dp3318
g70
I4
ssg71
Nsg64
(lp3319
g57
(g73
g59
NtRp3320
(dp3321
g62
(dp3322
sg71
g3316
sg64
(lp3323
g57
(g78
g59
NtRp3324
(dp3325
g62
(dp3326
sg71
g3320
sg64
(lp3327
g57
(g58
g59
NtRp3328
(dp3329
g62
(dp3330
g70
I4
ssg71
g3324
sg64
(lp3331
S'/mTask/static/js/jquery.js'
p3332
asbasbasbag57
(g73
g59
NtRp3333
(dp3334
g62
(dp3335
sg71
g3316
sg64
(lp3336
g57
(g78
g59
NtRp3337
(dp3338
g62
(dp3339
sg71
g3333
sg64
(lp3340
g57
(g58
g59
NtRp3341
(dp3342
g62
(dp3343
g70
I4
ssg71
g3337
sg64
(lp3344
S'/mTask/static/css/calendar.css'
p3345
asbasbasbag57
(g73
g59
NtRp3346
(dp3347
g62
(dp3348
sg71
g3316
sg64
(lp3349
g57
(g78
g59
NtRp3350
(dp3351
g62
(dp3352
sg71
g3346
sg64
(lp3353
g57
(g58
g59
NtRp3354
(dp3355
g62
(dp3356
g70
I4
ssg71
g3350
sg64
(lp3357
S'/mTask/static/js/calendar.js'
p3358
asbasbasbag57
(g73
g59
NtRp3359
(dp3360
g62
(dp3361
sg71
g3316
sg64
(lp3362
g57
(g78
g59
NtRp3363
(dp3364
g62
(dp3365
sg71
g3359
sg64
(lp3366
g57
(g58
g59
NtRp3367
(dp3368
g62
(dp3369
g70
I4
ssg71
g3363
sg64
(lp3370
S'/mTask/static/js/web2py.js'
p3371
asbasbasbag57
(g73
g59
NtRp3372
(dp3373
g62
(dp3374
sg71
g3316
sg64
(lp3375
g57
(g78
g59
NtRp3376
(dp3377
g62
(dp3378
sg71
g3372
sg64
(lp3379
g57
(g58
g59
NtRp3380
(dp3381
g62
(dp3382
g70
I4
ssg71
g3376
sg64
(lp3383
S'/mTask/static/css/skeleton.css'
p3384
asbasbasbag57
(g73
g59
NtRp3385
(dp3386
g62
(dp3387
sg71
g3316
sg64
(lp3388
g57
(g78
g59
NtRp3389
(dp3390
g62
(dp3391
sg71
g3385
sg64
(lp3392
g57
(g58
g59
NtRp3393
(dp3394
g62
(dp3395
g70
I4
ssg71
g3389
sg64
(lp3396
S'/mTask/static/css/web2py.css'
p3397
asbasbasbag57
(g73
g59
NtRp3398
(dp3399
g62
(dp3400
sg71
g3316
sg64
(lp3401
g57
(g78
g59
NtRp3402
(dp3403
g62
(dp3404
sg71
g3398
sg64
(lp3405
g57
(g58
g59
NtRp3406
(dp3407
g62
(dp3408
g70
I4
ssg71
g3402
sg64
(lp3409
S'/mTask/static/css/style.css'
p3410
asbasbasbag57
(g73
g59
NtRp3411
(dp3412
g62
(dp3413
sg71
g3316
sg64
(lp3414
g57
(g78
g59
NtRp3415
(dp3416
g62
(dp3417
sg71
g3411
sg64
(lp3418
g57
(g58
g59
NtRp3419
(dp3420
g62
(dp3421
g70
I4
ssg71
g3415
sg64
(lp3422
S'/mTask/static/css/superfish.css'
p3423
asbasbasbag57
(g73
g59
NtRp3424
(dp3425
g62
(dp3426
sg71
g3316
sg64
(lp3427
g57
(g78
g59
NtRp3428
(dp3429
g62
(dp3430
sg71
g3424
sg64
(lp3431
g57
(g58
g59
NtRp3432
(dp3433
g62
(dp3434
g70
I4
ssg71
g3428
sg64
(lp3435
S'/mTask/static/js/superfish.js'
p3436
asbasbasbasbasbasbasbag57
(g73
g59
NtRp3437
(dp3438
g62
(dp3439
sg71
g3010
sg64
(lp3440
g57
(g78
g59
NtRp3441
(dp3442
g62
(dp3443
g82
g83
ssg71
g3437
sg64
(lp3444
S'flash'
p3445
asbag57
(g78
g59
NtRp3446
(dp3447
g62
(dp3448
g89
g90
ssg71
g3437
sg64
(lp3449
S':'
asbag57
(g78
g59
NtRp3450
(dp3451
g62
(dp3452
sg71
g3437
sg64
(lp3453
g57
(g58
g59
NtRp3454
(dp3455
g62
(dp3456
g70
I5
ssg71
g3450
sg64
(lp3457
S'Welcome to web2py!'
p3458
asbasbasbag57
(g73
g59
NtRp3459
(dp3460
g62
(dp3461
sg71
g3010
sg64
(lp3462
g57
(g78
g59
NtRp3463
(dp3464
g62
(dp3465
g82
g83
ssg71
g3459
sg64
(lp3466
S'generic_patterns'
p3467
asbag57
(g78
g59
NtRp3468
(dp3469
g62
(dp3470
g89
g90
ssg71
g3459
sg64
(lp3471
S':'
asbag57
(g78
g59
NtRp3472
(dp3473
g62
(dp3474
sg71
g3459
sg64
(lp3475
g57
(g58
g59
NtRp3476
(dp3477
g62
(dp3478
g70
I5
ssg71
g3472
sg64
(lp3479
g57
(g66
g59
NtRp3480
(dp3481
g62
(dp3482
g70
I4
ssg71
Nsg64
(lp3483
g57
(g73
g59
NtRp3484
(dp3485
g62
(dp3486
sg71
g3480
sg64
(lp3487
g57
(g78
g59
NtRp3488
(dp3489
g62
(dp3490
sg71
g3484
sg64
(lp3491
g57
(g58
g59
NtRp3492
(dp3493
g62
(dp3494
g70
I4
ssg71
g3488
sg64
(lp3495
S'*'
asbasbasbasbasbasbasbag57
(g73
g59
NtRp3496
(dp3497
g62
(dp3498
sg71
g3010
sg64
(lp3499
g57
(g78
g59
NtRp3500
(dp3501
g62
(dp3502
g82
g83
ssg71
g3496
sg64
(lp3503
S'headers'
p3504
asbag57
(g78
g59
NtRp3505
(dp3506
g62
(dp3507
g89
g90
ssg71
g3496
sg64
(lp3508
S':'
asbag57
(g78
g59
NtRp3509
(dp3510
g62
(dp3511
sg71
g3496
sg64
(lp3512
g57
(g58
g59
NtRp3513
(dp3514
g62
(dp3515
g70
I5
ssg71
g3509
sg64
(lp3516
g57
(g66
g59
NtRp3517
(dp3518
g62
(dp3519
g70
I4
ssg71
Nsg64
(lp3520
g57
(g73
g59
NtRp3521
(dp3522
g62
(dp3523
sg71
g3517
sg64
(lp3524
g57
(g78
g59
NtRp3525
(dp3526
g62
(dp3527
g82
g83
ssg71
g3521
sg64
(lp3528
S'Cache-Control'
p3529
asbag57
(g78
g59
NtRp3530
(dp3531
g62
(dp3532
g89
g90
ssg71
g3521
sg64
(lp3533
S':'
asbag57
(g78
g59
NtRp3534
(dp3535
g62
(dp3536
sg71
g3521
sg64
(lp3537
g57
(g58
g59
NtRp3538
(dp3539
g62
(dp3540
g70
I4
ssg71
g3534
sg64
(lp3541
S'no-store, no-cache, must-revalidate, post-check=0, pre-check=0'
p3542
asbasbasbag57
(g73
g59
NtRp3543
(dp3544
g62
(dp3545
sg71
g3517
sg64
(lp3546
g57
(g78
g59
NtRp3547
(dp3548
g62
(dp3549
g82
g83
ssg71
g3543
sg64
(lp3550
S'Content-Type'
p3551
asbag57
(g78
g59
NtRp3552
(dp3553
g62
(dp3554
g89
g90
ssg71
g3543
sg64
(lp3555
S':'
asbag57
(g78
g59
NtRp3556
(dp3557
g62
(dp3558
sg71
g3543
sg64
(lp3559
g57
(g58
g59
NtRp3560
(dp3561
g62
(dp3562
g70
I4
ssg71
g3556
sg64
(lp3563
S'text/html; charset=utf-8'
p3564
asbasbasbag57
(g73
g59
NtRp3565
(dp3566
g62
(dp3567
sg71
g3517
sg64
(lp3568
g57
(g78
g59
NtRp3569
(dp3570
g62
(dp3571
g82
g83
ssg71
g3565
sg64
(lp3572
S'Expires'
p3573
asbag57
(g78
g59
NtRp3574
(dp3575
g62
(dp3576
g89
g90
ssg71
g3565
sg64
(lp3577
S':'
asbag57
(g78
g59
NtRp3578
(dp3579
g62
(dp3580
sg71
g3565
sg64
(lp3581
g57
(g58
g59
NtRp3582
(dp3583
g62
(dp3584
g70
I4
ssg71
g3578
sg64
(lp3585
S'Tue, 03 Jul 2012 06:43:30 GMT'
p3586
asbasbasbag57
(g73
g59
NtRp3587
(dp3588
g62
(dp3589
sg71
g3517
sg64
(lp3590
g57
(g78
g59
NtRp3591
(dp3592
g62
(dp3593
g82
g83
ssg71
g3587
sg64
(lp3594
S'Pragma'
p3595
asbag57
(g78
g59
NtRp3596
(dp3597
g62
(dp3598
g89
g90
ssg71
g3587
sg64
(lp3599
S':'
asbag57
(g78
g59
NtRp3600
(dp3601
g62
(dp3602
sg71
g3587
sg64
(lp3603
g57
(g58
g59
NtRp3604
(dp3605
g62
(dp3606
g70
I4
ssg71
g3600
sg64
(lp3607
S'no-cache'
p3608
asbasbasbag57
(g73
g59
NtRp3609
(dp3610
g62
(dp3611
sg71
g3517
sg64
(lp3612
g57
(g78
g59
NtRp3613
(dp3614
g62
(dp3615
g82
g83
ssg71
g3609
sg64
(lp3616
S'X-Powered-By'
p3617
asbag57
(g78
g59
NtRp3618
(dp3619
g62
(dp3620
g89
g90
ssg71
g3609
sg64
(lp3621
S':'
asbag57
(g78
g59
NtRp3622
(dp3623
g62
(dp3624
sg71
g3609
sg64
(lp3625
g57
(g58
g59
NtRp3626
(dp3627
g62
(dp3628
g70
I4
ssg71
g3622
sg64
(lp3629
S'web2py'
p3630
asbasbasbasbasbasbasbag57
(g73
g59
NtRp3631
(dp3632
g62
(dp3633
sg71
g3010
sg64
(lp3634
g57
(g78
g59
NtRp3635
(dp3636
g62
(dp3637
g82
g83
ssg71
g3631
sg64
(lp3638
S'menu'
p3639
asbag57
(g78
g59
NtRp3640
(dp3641
g62
(dp3642
g89
g90
ssg71
g3631
sg64
(lp3643
S':'
asbag57
(g78
g59
NtRp3644
(dp3645
g62
(dp3646
sg71
g3631
sg64
(lp3647
g57
(g58
g59
NtRp3648
(dp3649
g62
(dp3650
g70
I5
ssg71
g3644
sg64
(lp3651
g57
(g66
g59
NtRp3652
(dp3653
g62
(dp3654
g70
I4
ssg71
Nsg64
(lp3655
g57
(g73
g59
NtRp3656
(dp3657
g62
(dp3658
sg71
g3652
sg64
(lp3659
g57
(g78
g59
NtRp3660
(dp3661
g62
(dp3662
sg71
g3656
sg64
(lp3663
g57
(g58
g59
NtRp3664
(dp3665
g62
(dp3666
g70
I4
ssg71
g3660
sg64
(lp3667
g57
(g66
g59
NtRp3668
(dp3669
g62
(dp3670
g70
I3
ssg71
Nsg64
(lp3671
g57
(g73
g59
NtRp3672
(dp3673
g62
(dp3674
sg71
g3668
sg64
(lp3675
g57
(g78
g59
NtRp3676
(dp3677
g62
(dp3678
sg71
g3672
sg64
(lp3679
g57
(g58
g59
NtRp3680
(dp3681
g62
(dp3682
g70
I3
ssg71
g3676
sg64
(lp3683
cgluon.languages
lazyT_unpickle
p3684
(S's\x04\x00\x00\x00Home'
tRp3685
asbasbasbag57
(g73
g59
NtRp3686
(dp3687
g62
(dp3688
sg71
g3668
sg64
(lp3689
g57
(g78
g59
NtRp3690
(dp3691
g62
(dp3692
sg71
g3686
sg64
(lp3693
g57
(g58
g59
NtRp3694
(dp3695
g62
(dp3696
g70
I3
ssg71
g3690
sg64
(lp3697
g100
asbasbasbag57
(g73
g59
NtRp3698
(dp3699
g62
(dp3700
sg71
g3668
sg64
(lp3701
g57
(g78
g59
NtRp3702
(dp3703
g62
(dp3704
sg71
g3698
sg64
(lp3705
g57
(g58
g59
NtRp3706
(dp3707
g62
(dp3708
g70
I3
ssg71
g3702
sg64
(lp3709
S'/mTask/default/index'
p3710
asbasbasbag57
(g73
g59
NtRp3711
(dp3712
g62
(dp3713
sg71
g3668
sg64
(lp3714
g57
(g78
g59
NtRp3715
(dp3716
g62
(dp3717
sg71
g3711
sg64
(lp3718
g57
(g58
g59
NtRp3719
(dp3720
g62
(dp3721
g70
I3
ssg71
g3715
sg64
(lp3722
g57
(g66
g59
NtRp3723
(dp3724
g62
(dp3725
g70
I2
ssg71
Nsg64
(lp3726
sbasbasbasbasbasbasbasbag57
(g73
g59
NtRp3727
(dp3728
g62
(dp3729
sg71
g3652
sg64
(lp3730
g57
(g78
g59
NtRp3731
(dp3732
g62
(dp3733
sg71
g3727
sg64
(lp3734
g57
(g58
g59
NtRp3735
(dp3736
g62
(dp3737
g70
I4
ssg71
g3731
sg64
(lp3738
g57
(g66
g59
NtRp3739
(dp3740
g62
(dp3741
g70
I3
ssg71
Nsg64
(lp3742
g57
(g73
g59
NtRp3743
(dp3744
g62
(dp3745
sg71
g3739
sg64
(lp3746
g57
(g78
g59
NtRp3747
(dp3748
g62
(dp3749
sg71
g3743
sg64
(lp3750
g57
(g58
g59
NtRp3751
(dp3752
g62
(dp3753
g70
I3
ssg71
g3747
sg64
(lp3754
g57
(cgluon.html
SPAN
p3755
g59
NtRp3756
(dp3757
g62
(dp3758
g82
S'color:yellow'
p3759
ssg71
g57
(cgluon.html
A
p3760
g59
NtRp3761
(dp3762
g62
(dp3763
S'_onclick'
p3764
S'javascript:void(0);return false;'
p3765
sS'_href'
p3766
S'#'
ssg71
g57
(cgluon.html
LI
p3767
g59
NtRp3768
(dp3769
g62
(dp3770
S'_class'
p3771
S'web2py-menu-expand'
p3772
ssg71
g57
(cgluon.html
UL
p3773
g59
NtRp3774
(dp3775
g62
(dp3776
S'mobile'
p3777
I00
sS'li_class'
p3778
g3772
sg3771
S'sf-menu'
p3779
sS'ul_class'
p3780
S'web2py-menu-vertical'
p3781
sS'li_active'
p3782
S'web2py-menu-active'
p3783
ssg71
Nsg64
(lp3784
g57
(g3767
g59
NtRp3785
(dp3786
g62
(dp3787
sg71
g3774
sg64
(lp3788
g57
(g3760
g59
NtRp3789
(dp3790
g62
(dp3791
g3766
g3710
ssg71
g3785
sg64
(lp3792
g3685
asbasbag3768
asbsg64
(lp3793
g3761
ag57
(g3773
g59
NtRp3794
(dp3795
g62
(dp3796
g3771
g3781
ssg71
g3768
sg64
(lp3797
g57
(g3767
g59
NtRp3798
(dp3799
g62
(dp3800
sg71
g3794
sg64
(lp3801
g57
(g3760
g59
NtRp3802
(dp3803
g62
(dp3804
g3766
S'/admin/default/site'
p3805
ssg71
g3798
sg64
(lp3806
g3684
(S's\x08\x00\x00\x00My Sites'
tRp3807
asbasbag57
(g3767
g59
NtRp3808
(dp3809
g62
(dp3810
g3771
g3772
ssg71
g3794
sg64
(lp3811
g57
(g3760
g59
NtRp3812
(dp3813
g62
(dp3814
g3766
S'/admin/default/design/mTask'
p3815
ssg71
g3808
sg64
(lp3816
g3684
(S's\x08\x00\x00\x00This App'
tRp3817
asbag57
(g3773
g59
NtRp3818
(dp3819
g62
(dp3820
g3771
g3781
ssg71
g3808
sg64
(lp3821
g57
(g3767
g59
NtRp3822
(dp3823
g62
(dp3824
sg71
g3818
sg64
(lp3825
g57
(g3760
g59
NtRp3826
(dp3827
g62
(dp3828
g3766
S'/admin/default/edit/mTask/controllers/default.py'
p3829
ssg71
g3822
sg64
(lp3830
g3684
(S's\n\x00\x00\x00Controller'
tRp3831
asbasbag57
(g3767
g59
NtRp3832
(dp3833
g62
(dp3834
sg71
g3818
sg64
(lp3835
g57
(g3760
g59
NtRp3836
(dp3837
g62
(dp3838
g3766
S'/admin/default/edit/mTask/views/default/index.html'
p3839
ssg71
g3832
sg64
(lp3840
g3684
(S's\x04\x00\x00\x00View'
tRp3841
asbasbag57
(g3767
g59
NtRp3842
(dp3843
g62
(dp3844
sg71
g3818
sg64
(lp3845
g57
(g3760
g59
NtRp3846
(dp3847
g62
(dp3848
g3766
S'/admin/default/edit/mTask/views/layout.html'
p3849
ssg71
g3842
sg64
(lp3850
g3684
(S's\x06\x00\x00\x00Layout'
tRp3851
asbasbag57
(g3767
g59
NtRp3852
(dp3853
g62
(dp3854
sg71
g3818
sg64
(lp3855
g57
(g3760
g59
NtRp3856
(dp3857
g62
(dp3858
g3766
S'/admin/default/edit/mTask/static/css/web2py.css'
p3859
ssg71
g3852
sg64
(lp3860
g3684
(S's\n\x00\x00\x00Stylesheet'
tRp3861
asbasbag57
(g3767
g59
NtRp3862
(dp3863
g62
(dp3864
sg71
g3818
sg64
(lp3865
g57
(g3760
g59
NtRp3866
(dp3867
g62
(dp3868
g3766
S'/admin/default/edit/mTask/models/db.py'
p3869
ssg71
g3862
sg64
(lp3870
g3684
(S's\x08\x00\x00\x00DB Model'
tRp3871
asbasbag57
(g3767
g59
NtRp3872
(dp3873
g62
(dp3874
sg71
g3818
sg64
(lp3875
g57
(g3760
g59
NtRp3876
(dp3877
g62
(dp3878
g3766
S'/admin/default/edit/mTask/models/menu.py'
p3879
ssg71
g3872
sg64
(lp3880
g3684
(S's\n\x00\x00\x00Menu Model'
tRp3881
asbasbag57
(g3767
g59
NtRp3882
(dp3883
g62
(dp3884
sg71
g3818
sg64
(lp3885
g57
(g3760
g59
NtRp3886
(dp3887
g62
(dp3888
g3766
S'/mTask/appadmin/index'
p3889
ssg71
g3882
sg64
(lp3890
g3684
(S's\x08\x00\x00\x00Database'
tRp3891
asbasbag57
(g3767
g59
NtRp3892
(dp3893
g62
(dp3894
sg71
g3818
sg64
(lp3895
g57
(g3760
g59
NtRp3896
(dp3897
g62
(dp3898
g3766
S'/admin/default/errors/mTask'
p3899
ssg71
g3892
sg64
(lp3900
g3684
(S's\x06\x00\x00\x00Errors'
tRp3901
asbasbag57
(g3767
g59
NtRp3902
(dp3903
g62
(dp3904
sg71
g3818
sg64
(lp3905
g57
(g3760
g59
NtRp3906
(dp3907
g62
(dp3908
g3766
S'/admin/default/about/mTask'
p3909
ssg71
g3902
sg64
(lp3910
g3684
(S's\x05\x00\x00\x00About'
tRp3911
asbasbasbasbag57
(g3767
g59
NtRp3912
(dp3913
g62
(dp3914
g3771
g3772
ssg71
g3794
sg64
(lp3915
g57
(g3760
g59
NtRp3916
(dp3917
g62
(dp3918
g3766
S'http://www.web2py.com'
p3919
ssg71
g3912
sg64
(lp3920
S'web2py.com'
p3921
asbag57
(g3773
g59
NtRp3922
(dp3923
g62
(dp3924
g3771
g3781
ssg71
g3912
sg64
(lp3925
g57
(g3767
g59
NtRp3926
(dp3927
g62
(dp3928
sg71
g3922
sg64
(lp3929
g57
(g3760
g59
NtRp3930
(dp3931
g62
(dp3932
g3766
S'http://www.web2py.com/examples/default/download'
p3933
ssg71
g3926
sg64
(lp3934
g3684
(S's\x08\x00\x00\x00Download'
tRp3935
asbasbag57
(g3767
g59
NtRp3936
(dp3937
g62
(dp3938
sg71
g3922
sg64
(lp3939
g57
(g3760
g59
NtRp3940
(dp3941
g62
(dp3942
g3766
S'http://www.web2py.com/examples/default/support'
p3943
ssg71
g3936
sg64
(lp3944
g3684
(S's\x07\x00\x00\x00Support'
tRp3945
asbasbag57
(g3767
g59
NtRp3946
(dp3947
g62
(dp3948
sg71
g3922
sg64
(lp3949
g57
(g3760
g59
NtRp3950
(dp3951
g62
(dp3952
g3766
S'http://web2py.com/demo_admin'
p3953
ssg71
g3946
sg64
(lp3954
g3684
(S's\x04\x00\x00\x00Demo'
tRp3955
asbasbag57
(g3767
g59
NtRp3956
(dp3957
g62
(dp3958
sg71
g3922
sg64
(lp3959
g57
(g3760
g59
NtRp3960
(dp3961
g62
(dp3962
g3766
S'http://web2py.com/examples/default/examples'
p3963
ssg71
g3956
sg64
(lp3964
g3684
(S's\x0e\x00\x00\x00Quick Examples'
tRp3965
asbasbag57
(g3767
g59
NtRp3966
(dp3967
g62
(dp3968
sg71
g3922
sg64
(lp3969
g57
(g3760
g59
NtRp3970
(dp3971
g62
(dp3972
g3766
S'http://web2py.com/AlterEgo'
p3973
ssg71
g3966
sg64
(lp3974
g3684
(S's\x03\x00\x00\x00FAQ'
tRp3975
asbasbag57
(g3767
g59
NtRp3976
(dp3977
g62
(dp3978
sg71
g3922
sg64
(lp3979
g57
(g3760
g59
NtRp3980
(dp3981
g62
(dp3982
g3766
S'http://www.web2py.com/examples/default/videos/'
p3983
ssg71
g3976
sg64
(lp3984
g3684
(S's\x06\x00\x00\x00Videos'
tRp3985
asbasbag57
(g3767
g59
NtRp3986
(dp3987
g62
(dp3988
sg71
g3922
sg64
(lp3989
g57
(g3760
g59
NtRp3990
(dp3991
g62
(dp3992
g3766
S'http://web2py.com/appliances'
p3993
ssg71
g3986
sg64
(lp3994
g3684
(S's\x11\x00\x00\x00Free Applications'
tRp3995
asbasbag57
(g3767
g59
NtRp3996
(dp3997
g62
(dp3998
sg71
g3922
sg64
(lp3999
g57
(g3760
g59
NtRp4000
(dp4001
g62
(dp4002
g3766
S'http://web2py.com/plugins'
p4003
ssg71
g3996
sg64
(lp4004
g3684
(S's\x07\x00\x00\x00Plugins'
tRp4005
asbasbag57
(g3767
g59
NtRp4006
(dp4007
g62
(dp4008
sg71
g3922
sg64
(lp4009
g57
(g3760
g59
NtRp4010
(dp4011
g62
(dp4012
g3766
S'http://web2py.com/layouts'
p4013
ssg71
g4006
sg64
(lp4014
g3684
(S's\x07\x00\x00\x00Layouts'
tRp4015
asbasbag57
(g3767
g59
NtRp4016
(dp4017
g62
(dp4018
sg71
g3922
sg64
(lp4019
g57
(g3760
g59
NtRp4020
(dp4021
g62
(dp4022
g3766
S'http://web2pyslices.com/'
p4023
ssg71
g4016
sg64
(lp4024
g3684
(S's\x07\x00\x00\x00Recipes'
tRp4025
asbasbag57
(g3767
g59
NtRp4026
(dp4027
g62
(dp4028
sg71
g3922
sg64
(lp4029
g57
(g3760
g59
NtRp4030
(dp4031
g62
(dp4032
g3766
S'http://web2py.com/semantic'
p4033
ssg71
g4026
sg64
(lp4034
g3684
(S's\x08\x00\x00\x00Semantic'
tRp4035
asbasbasbasbag57
(g3767
g59
NtRp4036
(dp4037
g62
(dp4038
g3771
g3772
ssg71
g3794
sg64
(lp4039
g57
(g3760
g59
NtRp4040
(dp4041
g62
(dp4042
g3766
S'http://www.web2py.com/book'
p4043
ssg71
g4036
sg64
(lp4044
g3684
(S's\r\x00\x00\x00Documentation'
tRp4045
asbag57
(g3773
g59
NtRp4046
(dp4047
g62
(dp4048
g3771
g3781
ssg71
g4036
sg64
(lp4049
g57
(g3767
g59
NtRp4050
(dp4051
g62
(dp4052
sg71
g4046
sg64
(lp4053
g57
(g3760
g59
NtRp4054
(dp4055
g62
(dp4056
g3766
S'http://www.web2py.com/book/default/chapter/00'
p4057
ssg71
g4050
sg64
(lp4058
g3684
(S's\x07\x00\x00\x00Preface'
tRp4059
asbasbag57
(g3767
g59
NtRp4060
(dp4061
g62
(dp4062
sg71
g4046
sg64
(lp4063
g57
(g3760
g59
NtRp4064
(dp4065
g62
(dp4066
g3766
S'http://www.web2py.com/book/default/chapter/01'
p4067
ssg71
g4060
sg64
(lp4068
g3684
(S's\x0c\x00\x00\x00Introduction'
tRp4069
asbasbag57
(g3767
g59
NtRp4070
(dp4071
g62
(dp4072
sg71
g4046
sg64
(lp4073
g57
(g3760
g59
NtRp4074
(dp4075
g62
(dp4076
g3766
S'http://www.web2py.com/book/default/chapter/02'
p4077
ssg71
g4070
sg64
(lp4078
g3684
(S's\x06\x00\x00\x00Python'
tRp4079
asbasbag57
(g3767
g59
NtRp4080
(dp4081
g62
(dp4082
sg71
g4046
sg64
(lp4083
g57
(g3760
g59
NtRp4084
(dp4085
g62
(dp4086
g3766
S'http://www.web2py.com/book/default/chapter/03'
p4087
ssg71
g4080
sg64
(lp4088
g3684
(S's\x08\x00\x00\x00Overview'
tRp4089
asbasbag57
(g3767
g59
NtRp4090
(dp4091
g62
(dp4092
sg71
g4046
sg64
(lp4093
g57
(g3760
g59
NtRp4094
(dp4095
g62
(dp4096
g3766
S'http://www.web2py.com/book/default/chapter/04'
p4097
ssg71
g4090
sg64
(lp4098
g3684
(S's\x08\x00\x00\x00The Core'
tRp4099
asbasbag57
(g3767
g59
NtRp4100
(dp4101
g62
(dp4102
sg71
g4046
sg64
(lp4103
g57
(g3760
g59
NtRp4104
(dp4105
g62
(dp4106
g3766
S'http://www.web2py.com/book/default/chapter/05'
p4107
ssg71
g4100
sg64
(lp4108
g3684
(S's\t\x00\x00\x00The Views'
tRp4109
asbasbag57
(g3767
g59
NtRp4110
(dp4111
g62
(dp4112
sg71
g4046
sg64
(lp4113
g57
(g3760
g59
NtRp4114
(dp4115
g62
(dp4116
g3766
S'http://www.web2py.com/book/default/chapter/06'
p4117
ssg71
g4110
sg64
(lp4118
g3684
(S's\x08\x00\x00\x00Database'
tRp4119
asbasbag57
(g3767
g59
NtRp4120
(dp4121
g62
(dp4122
sg71
g4046
sg64
(lp4123
g57
(g3760
g59
NtRp4124
(dp4125
g62
(dp4126
g3766
S'http://www.web2py.com/book/default/chapter/07'
p4127
ssg71
g4120
sg64
(lp4128
g3684
(S's\x14\x00\x00\x00Forms and Validators'
tRp4129
asbasbag57
(g3767
g59
NtRp4130
(dp4131
g62
(dp4132
sg71
g4046
sg64
(lp4133
g57
(g3760
g59
NtRp4134
(dp4135
g62
(dp4136
g3766
S'http://www.web2py.com/book/default/chapter/08'
p4137
ssg71
g4130
sg64
(lp4138
g3684
(S's\r\x00\x00\x00Email and SMS'
tRp4139
asbasbag57
(g3767
g59
NtRp4140
(dp4141
g62
(dp4142
sg71
g4046
sg64
(lp4143
g57
(g3760
g59
NtRp4144
(dp4145
g62
(dp4146
g3766
S'http://www.web2py.com/book/default/chapter/09'
p4147
ssg71
g4140
sg64
(lp4148
g3684
(S's\x0e\x00\x00\x00Access Control'
tRp4149
asbasbag57
(g3767
g59
NtRp4150
(dp4151
g62
(dp4152
sg71
g4046
sg64
(lp4153
g57
(g3760
g59
NtRp4154
(dp4155
g62
(dp4156
g3766
S'http://www.web2py.com/book/default/chapter/10'
p4157
ssg71
g4150
sg64
(lp4158
g3684
(S's\x08\x00\x00\x00Services'
tRp4159
asbasbag57
(g3767
g59
NtRp4160
(dp4161
g62
(dp4162
sg71
g4046
sg64
(lp4163
g57
(g3760
g59
NtRp4164
(dp4165
g62
(dp4166
g3766
S'http://www.web2py.com/book/default/chapter/11'
p4167
ssg71
g4160
sg64
(lp4168
g3684
(S's\x0c\x00\x00\x00Ajax Recipes'
tRp4169
asbasbag57
(g3767
g59
NtRp4170
(dp4171
g62
(dp4172
sg71
g4046
sg64
(lp4173
g57
(g3760
g59
NtRp4174
(dp4175
g62
(dp4176
g3766
S'http://www.web2py.com/book/default/chapter/12'
p4177
ssg71
g4170
sg64
(lp4178
g3684
(S's\x16\x00\x00\x00Components and Plugins'
tRp4179
asbasbag57
(g3767
g59
NtRp4180
(dp4181
g62
(dp4182
sg71
g4046
sg64
(lp4183
g57
(g3760
g59
NtRp4184
(dp4185
g62
(dp4186
g3766
S'http://www.web2py.com/book/default/chapter/13'
p4187
ssg71
g4180
sg64
(lp4188
g3684
(S's\x12\x00\x00\x00Deployment Recipes'
tRp4189
asbasbag57
(g3767
g59
NtRp4190
(dp4191
g62
(dp4192
sg71
g4046
sg64
(lp4193
g57
(g3760
g59
NtRp4194
(dp4195
g62
(dp4196
g3766
S'http://www.web2py.com/book/default/chapter/14'
p4197
ssg71
g4190
sg64
(lp4198
g3684
(S's\r\x00\x00\x00Other Recipes'
tRp4199
asbasbag57
(g3767
g59
NtRp4200
(dp4201
g62
(dp4202
sg71
g4046
sg64
(lp4203
g57
(g3760
g59
NtRp4204
(dp4205
g62
(dp4206
g3766
S'http://stores.lulu.com/web2py'
p4207
ssg71
g4200
sg64
(lp4208
g3684
(S's\r\x00\x00\x00Buy this book'
tRp4209
asbasbasbasbag57
(g3767
g59
NtRp4210
(dp4211
g62
(dp4212
g3771
g3772
ssg71
g3794
sg64
(lp4213
g57
(g3760
g59
NtRp4214
(dp4215
g62
(dp4216
g3764
g3765
sg3766
S'#'
ssg71
g4210
sg64
(lp4217
g3684
(S's\t\x00\x00\x00Community'
tRp4218
asbag57
(g3773
g59
NtRp4219
(dp4220
g62
(dp4221
g3771
g3781
ssg71
g4210
sg64
(lp4222
g57
(g3767
g59
NtRp4223
(dp4224
g62
(dp4225
sg71
g4219
sg64
(lp4226
g57
(g3760
g59
NtRp4227
(dp4228
g62
(dp4229
g3766
S'http://www.web2py.com/examples/default/usergroups'
p4230
ssg71
g4223
sg64
(lp4231
g3684
(S's\x06\x00\x00\x00Groups'
tRp4232
asbasbag57
(g3767
g59
NtRp4233
(dp4234
g62
(dp4235
sg71
g4219
sg64
(lp4236
g57
(g3760
g59
NtRp4237
(dp4238
g62
(dp4239
g3766
S'http://twitter.com/web2py'
p4240
ssg71
g4233
sg64
(lp4241
g3684
(S's\x07\x00\x00\x00Twitter'
tRp4242
asbasbag57
(g3767
g59
NtRp4243
(dp4244
g62
(dp4245
sg71
g4219
sg64
(lp4246
g57
(g3760
g59
NtRp4247
(dp4248
g62
(dp4249
g3766
S'http://webchat.freenode.net/?channels=web2py'
p4250
ssg71
g4243
sg64
(lp4251
g3684
(S's\t\x00\x00\x00Live Chat'
tRp4252
asbasbasbasbag57
(g3767
g59
NtRp4253
(dp4254
g62
(dp4255
g3771
g3772
ssg71
g3794
sg64
(lp4256
g57
(g3760
g59
NtRp4257
(dp4258
g62
(dp4259
g3764
g3765
sg3766
S'#'
ssg71
g4253
sg64
(lp4260
g3684
(S's\x07\x00\x00\x00Plugins'
tRp4261
asbag57
(g3773
g59
NtRp4262
(dp4263
g62
(dp4264
g3771
g3781
ssg71
g4253
sg64
(lp4265
g57
(g3767
g59
NtRp4266
(dp4267
g62
(dp4268
sg71
g4262
sg64
(lp4269
g57
(g3760
g59
NtRp4270
(dp4271
g62
(dp4272
g3766
S'http://web2py.com/examples/default/download'
p4273
ssg71
g4266
sg64
(lp4274
S'plugin_wiki'
p4275
asbasbag57
(g3767
g59
NtRp4276
(dp4277
g62
(dp4278
sg71
g4262
sg64
(lp4279
g57
(g3760
g59
NtRp4280
(dp4281
g62
(dp4282
g3766
g4003
ssg71
g4276
sg64
(lp4283
g3684
(S's\r\x00\x00\x00Other Plugins'
tRp4284
asbasbag57
(g3767
g59
NtRp4285
(dp4286
g62
(dp4287
sg71
g4262
sg64
(lp4288
g57
(g3760
g59
NtRp4289
(dp4290
g62
(dp4291
g3766
g4013
ssg71
g4285
sg64
(lp4292
g3684
(S's\x0e\x00\x00\x00Layout Plugins'
tRp4293
asbasbasbasbasbasbsg64
(lp4294
g3756
asbsg64
(lp4295
g3630
asbasbasbasbag57
(g73
g59
NtRp4296
(dp4297
g62
(dp4298
sg71
g3739
sg64
(lp4299
g57
(g78
g59
NtRp4300
(dp4301
g62
(dp4302
sg71
g4296
sg64
(lp4303
g57
(g58
g59
NtRp4304
(dp4305
g62
(dp4306
g70
I3
ssg71
g4300
sg64
(lp4307
g100
asbasbasbag57
(g73
g59
NtRp4308
(dp4309
g62
(dp4310
sg71
g3739
sg64
(lp4311
g57
(g78
g59
NtRp4312
(dp4313
g62
(dp4314
sg71
g4308
sg64
(lp4315
g57
(g58
g59
NtRp4316
(dp4317
g62
(dp4318
g70
I3
ssg71
g4312
sg64
(lp4319
S'None'
p4320
asbasbasbag57
(g73
g59
NtRp4321
(dp4322
g62
(dp4323
sg71
g3739
sg64
(lp4324
g57
(g78
g59
NtRp4325
(dp4326
g62
(dp4327
sg71
g4321
sg64
(lp4328
g57
(g58
g59
NtRp4329
(dp4330
g62
(dp4331
g70
I3
ssg71
g4325
sg64
(lp4332
g57
(g66
g59
NtRp4333
(dp4334
g62
(dp4335
g70
I2
ssg71
Nsg64
(lp4336
g57
(g73
g59
NtRp4337
(dp4338
g62
(dp4339
sg71
g4333
sg64
(lp4340
g57
(g78
g59
NtRp4341
(dp4342
g62
(dp4343
sg71
g4337
sg64
(lp4344
g57
(g58
g59
NtRp4345
(dp4346
g62
(dp4347
g70
I2
ssg71
g4341
sg64
(lp4348
g57
(g66
g59
NtRp4349
(dp4350
g62
(dp4351
g70
I1
ssg71
Nsg64
(lp4352
g57
(g73
g59
NtRp4353
(dp4354
g62
(dp4355
sg71
g4349
sg64
(lp4356
g57
(g78
g59
NtRp4357
(dp4358
g62
(dp4359
sg71
g4353
sg64
(lp4360
g57
(g58
g59
NtRp4361
(dp4362
g62
(dp4363
g70
I1
ssg71
g4357
sg64
(lp4364
g3807
asbasbasbag57
(g73
g59
NtRp4365
(dp4366
g62
(dp4367
sg71
g4349
sg64
(lp4368
g57
(g78
g59
NtRp4369
(dp4370
g62
(dp4371
sg71
g4365
sg64
(lp4372
g57
(g58
g59
NtRp4373
(dp4374
g62
(dp4375
g70
I1
ssg71
g4369
sg64
(lp4376
I00
asbasbasbag57
(g73
g59
NtRp4377
(dp4378
g62
(dp4379
sg71
g4349
sg64
(lp4380
g57
(g78
g59
NtRp4381
(dp4382
g62
(dp4383
sg71
g4377
sg64
(lp4384
g57
(g58
g59
NtRp4385
(dp4386
g62
(dp4387
g70
I1
ssg71
g4381
sg64
(lp4388
g3805
asbasbasbasbasbasbasbag57
(g73
g59
NtRp4389
(dp4390
g62
(dp4391
sg71
g4333
sg64
(lp4392
g57
(g78
g59
NtRp4393
(dp4394
g62
(dp4395
sg71
g4389
sg64
(lp4396
g57
(g58
g59
NtRp4397
(dp4398
g62
(dp4399
g70
I2
ssg71
g4393
sg64
(lp4400
g57
(g66
g59
NtRp4401
(dp4402
g62
(dp4403
g70
I1
ssg71
Nsg64
(lp4404
g57
(g73
g59
NtRp4405
(dp4406
g62
(dp4407
sg71
g4401
sg64
(lp4408
g57
(g78
g59
NtRp4409
(dp4410
g62
(dp4411
sg71
g4405
sg64
(lp4412
g57
(g58
g59
NtRp4413
(dp4414
g62
(dp4415
g70
I1
ssg71
g4409
sg64
(lp4416
g3817
asbasbasbag57
(g73
g59
NtRp4417
(dp4418
g62
(dp4419
sg71
g4401
sg64
(lp4420
g57
(g78
g59
NtRp4421
(dp4422
g62
(dp4423
sg71
g4417
sg64
(lp4424
g57
(g58
g59
NtRp4425
(dp4426
g62
(dp4427
g70
I1
ssg71
g4421
sg64
(lp4428
I00
asbasbasbag57
(g73
g59
NtRp4429
(dp4430
g62
(dp4431
sg71
g4401
sg64
(lp4432
g57
(g78
g59
NtRp4433
(dp4434
g62
(dp4435
sg71
g4429
sg64
(lp4436
g57
(g58
g59
NtRp4437
(dp4438
g62
(dp4439
g70
I1
ssg71
g4433
sg64
(lp4440
g3815
asbasbasbag57
(g73
g59
NtRp4441
(dp4442
g62
(dp4443
sg71
g4401
sg64
(lp4444
g57
(g78
g59
NtRp4445
(dp4446
g62
(dp4447
sg71
g4441
sg64
(lp4448
g57
(g58
g59
NtRp4449
(dp4450
g62
(dp4451
g70
I1
ssg71
g4445
sg64
(lp4452
(lp4453
(g3831
I00
g3829
tp4454
a(g3841
I00
g3839
tp4455
a(g3851
I00
g3849
tp4456
a(g3861
I00
g3859
tp4457
a(g3871
I00
g3869
tp4458
a(g3881
I00
g3879
tp4459
a(g3891
I00
g3889
tp4460
a(g3901
I00
g3899
tp4461
a(g3911
I00
g3909
tp4462
aasbasbasbasbasbasbasbag57
(g73
g59
NtRp4463
(dp4464
g62
(dp4465
sg71
g4333
sg64
(lp4466
g57
(g78
g59
NtRp4467
(dp4468
g62
(dp4469
sg71
g4463
sg64
(lp4470
g57
(g58
g59
NtRp4471
(dp4472
g62
(dp4473
g70
I2
ssg71
g4467
sg64
(lp4474
g57
(g66
g59
NtRp4475
(dp4476
g62
(dp4477
g70
I1
ssg71
Nsg64
(lp4478
g57
(g73
g59
NtRp4479
(dp4480
g62
(dp4481
sg71
g4475
sg64
(lp4482
g57
(g78
g59
NtRp4483
(dp4484
g62
(dp4485
sg71
g4479
sg64
(lp4486
g57
(g58
g59
NtRp4487
(dp4488
g62
(dp4489
g70
I1
ssg71
g4483
sg64
(lp4490
g3921
asbasbasbag57
(g73
g59
NtRp4491
(dp4492
g62
(dp4493
sg71
g4475
sg64
(lp4494
g57
(g78
g59
NtRp4495
(dp4496
g62
(dp4497
sg71
g4491
sg64
(lp4498
g57
(g58
g59
NtRp4499
(dp4500
g62
(dp4501
g70
I1
ssg71
g4495
sg64
(lp4502
I00
asbasbasbag57
(g73
g59
NtRp4503
(dp4504
g62
(dp4505
sg71
g4475
sg64
(lp4506
g57
(g78
g59
NtRp4507
(dp4508
g62
(dp4509
sg71
g4503
sg64
(lp4510
g57
(g58
g59
NtRp4511
(dp4512
g62
(dp4513
g70
I1
ssg71
g4507
sg64
(lp4514
g3919
asbasbasbag57
(g73
g59
NtRp4515
(dp4516
g62
(dp4517
sg71
g4475
sg64
(lp4518
g57
(g78
g59
NtRp4519
(dp4520
g62
(dp4521
sg71
g4515
sg64
(lp4522
g57
(g58
g59
NtRp4523
(dp4524
g62
(dp4525
g70
I1
ssg71
g4519
sg64
(lp4526
(lp4527
(g3935
I00
g3933
tp4528
a(g3945
I00
g3943
tp4529
a(g3955
I00
g3953
tp4530
a(g3965
I00
g3963
tp4531
a(g3975
I00
g3973
tp4532
a(g3985
I00
g3983
tp4533
a(g3995
I00
g3993
tp4534
a(g4005
I00
g4003
tp4535
a(g4015
I00
g4013
tp4536
a(g4025
I00
g4023
tp4537
a(g4035
I00
g4033
tp4538
aasbasbasbasbasbasbasbag57
(g73
g59
NtRp4539
(dp4540
g62
(dp4541
sg71
g4333
sg64
(lp4542
g57
(g78
g59
NtRp4543
(dp4544
g62
(dp4545
sg71
g4539
sg64
(lp4546
g57
(g58
g59
NtRp4547
(dp4548
g62
(dp4549
g70
I2
ssg71
g4543
sg64
(lp4550
g57
(g66
g59
NtRp4551
(dp4552
g62
(dp4553
g70
I1
ssg71
Nsg64
(lp4554
g57
(g73
g59
NtRp4555
(dp4556
g62
(dp4557
sg71
g4551
sg64
(lp4558
g57
(g78
g59
NtRp4559
(dp4560
g62
(dp4561
sg71
g4555
sg64
(lp4562
g57
(g58
g59
NtRp4563
(dp4564
g62
(dp4565
g70
I1
ssg71
g4559
sg64
(lp4566
g4045
asbasbasbag57
(g73
g59
NtRp4567
(dp4568
g62
(dp4569
sg71
g4551
sg64
(lp4570
g57
(g78
g59
NtRp4571
(dp4572
g62
(dp4573
sg71
g4567
sg64
(lp4574
g57
(g58
g59
NtRp4575
(dp4576
g62
(dp4577
g70
I1
ssg71
g4571
sg64
(lp4578
I00
asbasbasbag57
(g73
g59
NtRp4579
(dp4580
g62
(dp4581
sg71
g4551
sg64
(lp4582
g57
(g78
g59
NtRp4583
(dp4584
g62
(dp4585
sg71
g4579
sg64
(lp4586
g57
(g58
g59
NtRp4587
(dp4588
g62
(dp4589
g70
I1
ssg71
g4583
sg64
(lp4590
g4043
asbasbasbag57
(g73
g59
NtRp4591
(dp4592
g62
(dp4593
sg71
g4551
sg64
(lp4594
g57
(g78
g59
NtRp4595
(dp4596
g62
(dp4597
sg71
g4591
sg64
(lp4598
g57
(g58
g59
NtRp4599
(dp4600
g62
(dp4601
g70
I1
ssg71
g4595
sg64
(lp4602
(lp4603
(g4059
I00
g4057
tp4604
a(g4069
I00
g4067
tp4605
a(g4079
I00
g4077
tp4606
a(g4089
I00
g4087
tp4607
a(g4099
I00
g4097
tp4608
a(g4109
I00
g4107
tp4609
a(g4119
I00
g4117
tp4610
a(g4129
I00
g4127
tp4611
a(g4139
I00
g4137
tp4612
a(g4149
I00
g4147
tp4613
a(g4159
I00
g4157
tp4614
a(g4169
I00
g4167
tp4615
a(g4179
I00
g4177
tp4616
a(g4189
I00
g4187
tp4617
a(g4199
I00
g4197
tp4618
a(g4209
I00
g4207
tp4619
aasbasbasbasbasbasbasbag57
(g73
g59
NtRp4620
(dp4621
g62
(dp4622
sg71
g4333
sg64
(lp4623
g57
(g78
g59
NtRp4624
(dp4625
g62
(dp4626
sg71
g4620
sg64
(lp4627
g57
(g58
g59
NtRp4628
(dp4629
g62
(dp4630
g70
I2
ssg71
g4624
sg64
(lp4631
g57
(g66
g59
NtRp4632
(dp4633
g62
(dp4634
g70
I1
ssg71
Nsg64
(lp4635
g57
(g73
g59
NtRp4636
(dp4637
g62
(dp4638
sg71
g4632
sg64
(lp4639
g57
(g78
g59
NtRp4640
(dp4641
g62
(dp4642
sg71
g4636
sg64
(lp4643
g57
(g58
g59
NtRp4644
(dp4645
g62
(dp4646
g70
I1
ssg71
g4640
sg64
(lp4647
g4218
asbasbasbag57
(g73
g59
NtRp4648
(dp4649
g62
(dp4650
sg71
g4632
sg64
(lp4651
g57
(g78
g59
NtRp4652
(dp4653
g62
(dp4654
sg71
g4648
sg64
(lp4655
g57
(g58
g59
NtRp4656
(dp4657
g62
(dp4658
g70
I1
ssg71
g4652
sg64
(lp4659
I00
asbasbasbag57
(g73
g59
NtRp4660
(dp4661
g62
(dp4662
sg71
g4632
sg64
(lp4663
g57
(g78
g59
NtRp4664
(dp4665
g62
(dp4666
sg71
g4660
sg64
(lp4667
g57
(g58
g59
NtRp4668
(dp4669
g62
(dp4670
g70
I1
ssg71
g4664
sg64
(lp4671
Nasbasbasbag57
(g73
g59
NtRp4672
(dp4673
g62
(dp4674
sg71
g4632
sg64
(lp4675
g57
(g78
g59
NtRp4676
(dp4677
g62
(dp4678
sg71
g4672
sg64
(lp4679
g57
(g58
g59
NtRp4680
(dp4681
g62
(dp4682
g70
I1
ssg71
g4676
sg64
(lp4683
(lp4684
(g4232
I00
g4230
tp4685
a(g4242
I00
g4240
tp4686
a(g4252
I00
g4250
tp4687
aasbasbasbasbasbasbasbag57
(g73
g59
NtRp4688
(dp4689
g62
(dp4690
sg71
g4333
sg64
(lp4691
g57
(g78
g59
NtRp4692
(dp4693
g62
(dp4694
sg71
g4688
sg64
(lp4695
g57
(g58
g59
NtRp4696
(dp4697
g62
(dp4698
g70
I2
ssg71
g4692
sg64
(lp4699
g57
(g66
g59
NtRp4700
(dp4701
g62
(dp4702
g70
I1
ssg71
Nsg64
(lp4703
g57
(g73
g59
NtRp4704
(dp4705
g62
(dp4706
sg71
g4700
sg64
(lp4707
g57
(g78
g59
NtRp4708
(dp4709
g62
(dp4710
sg71
g4704
sg64
(lp4711
g57
(g58
g59
NtRp4712
(dp4713
g62
(dp4714
g70
I1
ssg71
g4708
sg64
(lp4715
g4261
asbasbasbag57
(g73
g59
NtRp4716
(dp4717
g62
(dp4718
sg71
g4700
sg64
(lp4719
g57
(g78
g59
NtRp4720
(dp4721
g62
(dp4722
sg71
g4716
sg64
(lp4723
g57
(g58
g59
NtRp4724
(dp4725
g62
(dp4726
g70
I1
ssg71
g4720
sg64
(lp4727
I00
asbasbasbag57
(g73
g59
NtRp4728
(dp4729
g62
(dp4730
sg71
g4700
sg64
(lp4731
g57
(g78
g59
NtRp4732
(dp4733
g62
(dp4734
sg71
g4728
sg64
(lp4735
g57
(g58
g59
NtRp4736
(dp4737
g62
(dp4738
g70
I1
ssg71
g4732
sg64
(lp4739
Nasbasbasbag57
(g73
g59
NtRp4740
(dp4741
g62
(dp4742
sg71
g4700
sg64
(lp4743
g57
(g78
g59
NtRp4744
(dp4745
g62
(dp4746
sg71
g4740
sg64
(lp4747
g57
(g58
g59
NtRp4748
(dp4749
g62
(dp4750
g70
I1
ssg71
g4744
sg64
(lp4751
(lp4752
(g4275
I00
g4273
tp4753
a(g4284
I00
g4003
tp4754
a(g4293
I00
g4013
tp4755
aasbasbasbasbasbasbasbasbasbasbasbasbasbasbasbasbasbasbasbag57
(g73
g59
NtRp4756
(dp4757
g62
(dp4758
sg71
g3010
sg64
(lp4759
g57
(g78
g59
NtRp4760
(dp4761
g62
(dp4762
g82
g83
ssg71
g4756
sg64
(lp4763
S'meta'
p4764
asbag57
(g78
g59
NtRp4765
(dp4766
g62
(dp4767
g89
g90
ssg71
g4756
sg64
(lp4768
S':'
asbag57
(g78
g59
NtRp4769
(dp4770
g62
(dp4771
sg71
g4756
sg64
(lp4772
g57
(g58
g59
NtRp4773
(dp4774
g62
(dp4775
g70
I5
ssg71
g4769
sg64
(lp4776
g57
(g66
g59
NtRp4777
(dp4778
g62
(dp4779
g70
I4
ssg71
Nsg64
(lp4780
g57
(g73
g59
NtRp4781
(dp4782
g62
(dp4783
sg71
g4777
sg64
(lp4784
g57
(g78
g59
NtRp4785
(dp4786
g62
(dp4787
g82
g83
ssg71
g4781
sg64
(lp4788
S'author'
p4789
asbag57
(g78
g59
NtRp4790
(dp4791
g62
(dp4792
g89
g90
ssg71
g4781
sg64
(lp4793
S':'
asbag57
(g78
g59
NtRp4794
(dp4795
g62
(dp4796
sg71
g4781
sg64
(lp4797
g57
(g58
g59
NtRp4798
(dp4799
g62
(dp4800
g70
I4
ssg71
g4794
sg64
(lp4801
S'Your Name <you@example.com>'
p4802
asbasbasbag57
(g73
g59
NtRp4803
(dp4804
g62
(dp4805
sg71
g4777
sg64
(lp4806
g57
(g78
g59
NtRp4807
(dp4808
g62
(dp4809
g82
g83
ssg71
g4803
sg64
(lp4810
S'copyright'
p4811
asbag57
(g78
g59
NtRp4812
(dp4813
g62
(dp4814
g89
g90
ssg71
g4803
sg64
(lp4815
S':'
asbag57
(g78
g59
NtRp4816
(dp4817
g62
(dp4818
sg71
g4803
sg64
(lp4819
g57
(g58
g59
NtRp4820
(dp4821
g62
(dp4822
g70
I4
ssg71
g4816
sg64
(lp4823
S'Copyright 2011'
p4824
asbasbasbag57
(g73
g59
NtRp4825
(dp4826
g62
(dp4827
sg71
g4777
sg64
(lp4828
g57
(g78
g59
NtRp4829
(dp4830
g62
(dp4831
g82
g83
ssg71
g4825
sg64
(lp4832
S'description'
p4833
asbag57
(g78
g59
NtRp4834
(dp4835
g62
(dp4836
g89
g90
ssg71
g4825
sg64
(lp4837
S':'
asbag57
(g78
g59
NtRp4838
(dp4839
g62
(dp4840
sg71
g4825
sg64
(lp4841
g57
(g58
g59
NtRp4842
(dp4843
g62
(dp4844
g70
I4
ssg71
g4838
sg64
(lp4845
S'a cool new app'
p4846
asbasbasbag57
(g73
g59
NtRp4847
(dp4848
g62
(dp4849
sg71
g4777
sg64
(lp4850
g57
(g78
g59
NtRp4851
(dp4852
g62
(dp4853
g82
g83
ssg71
g4847
sg64
(lp4854
S'generator'
p4855
asbag57
(g78
g59
NtRp4856
(dp4857
g62
(dp4858
g89
g90
ssg71
g4847
sg64
(lp4859
S':'
asbag57
(g78
g59
NtRp4860
(dp4861
g62
(dp4862
sg71
g4847
sg64
(lp4863
g57
(g58
g59
NtRp4864
(dp4865
g62
(dp4866
g70
I4
ssg71
g4860
sg64
(lp4867
S'Web2py Web Framework'
p4868
asbasbasbag57
(g73
g59
NtRp4869
(dp4870
g62
(dp4871
sg71
g4777
sg64
(lp4872
g57
(g78
g59
NtRp4873
(dp4874
g62
(dp4875
g82
g83
ssg71
g4869
sg64
(lp4876
S'keywords'
p4877
asbag57
(g78
g59
NtRp4878
(dp4879
g62
(dp4880
g89
g90
ssg71
g4869
sg64
(lp4881
S':'
asbag57
(g78
g59
NtRp4882
(dp4883
g62
(dp4884
sg71
g4869
sg64
(lp4885
g57
(g58
g59
NtRp4886
(dp4887
g62
(dp4888
g70
I4
ssg71
g4882
sg64
(lp4889
S'web2py, python, framework'
p4890
asbasbasbasbasbasbasbag57
(g73
g59
NtRp4891
(dp4892
g62
(dp4893
sg71
g3010
sg64
(lp4894
g57
(g78
g59
NtRp4895
(dp4896
g62
(dp4897
g82
g83
ssg71
g4891
sg64
(lp4898
S'postprocessing'
p4899
asbag57
(g78
g59
NtRp4900
(dp4901
g62
(dp4902
g89
g90
ssg71
g4891
sg64
(lp4903
S':'
asbag57
(g78
g59
NtRp4904
(dp4905
g62
(dp4906
sg71
g4891
sg64
(lp4907
g57
(g58
g59
NtRp4908
(dp4909
g62
(dp4910
g70
I5
ssg71
g4904
sg64
(lp4911
g57
(g66
g59
NtRp4912
(dp4913
g62
(dp4914
g70
I4
ssg71
Nsg64
(lp4915
sbasbasbasbag57
(g73
g59
NtRp4916
(dp4917
g62
(dp4918
sg71
g3010
sg64
(lp4919
g57
(g78
g59
NtRp4920
(dp4921
g62
(dp4922
g82
g83
ssg71
g4916
sg64
(lp4923
S'session_file'
p4924
asbag57
(g78
g59
NtRp4925
(dp4926
g62
(dp4927
g89
g90
ssg71
g4916
sg64
(lp4928
S':'
asbag57
(g78
g59
NtRp4929
(dp4930
g62
(dp4931
sg71
g4916
sg64
(lp4932
g57
(g58
g59
NtRp4933
(dp4934
g62
(dp4935
g70
I5
ssg71
g4929
sg64
(lp4936
S"<open file '/home/famihug/Apps/web2py/applications/mTask/sessions/127.0.0.1-d1cfb7ee-ab22-4bca-bef2-e37fe3fe8940', mode 'rb+' at 0x93e3548>"
p4937
asbasbasbag57
(g73
g59
NtRp4938
(dp4939
g62
(dp4940
sg71
g3010
sg64
(lp4941
g57
(g78
g59
NtRp4942
(dp4943
g62
(dp4944
g82
g83
ssg71
g4938
sg64
(lp4945
S'session_filename'
p4946
asbag57
(g78
g59
NtRp4947
(dp4948
g62
(dp4949
g89
g90
ssg71
g4938
sg64
(lp4950
S':'
asbag57
(g78
g59
NtRp4951
(dp4952
g62
(dp4953
sg71
g4938
sg64
(lp4954
g57
(g58
g59
NtRp4955
(dp4956
g62
(dp4957
g70
I5
ssg71
g4951
sg64
(lp4958
S'/home/famihug/Apps/web2py/applications/mTask/sessions/127.0.0.1-d1cfb7ee-ab22-4bca-bef2-e37fe3fe8940'
p4959
asbasbasbag57
(g73
g59
NtRp4960
(dp4961
g62
(dp4962
sg71
g3010
sg64
(lp4963
g57
(g78
g59
NtRp4964
(dp4965
g62
(dp4966
g82
g83
ssg71
g4960
sg64
(lp4967
S'session_id'
p4968
asbag57
(g78
g59
NtRp4969
(dp4970
g62
(dp4971
g89
g90
ssg71
g4960
sg64
(lp4972
S':'
asbag57
(g78
g59
NtRp4973
(dp4974
g62
(dp4975
sg71
g4960
sg64
(lp4976
g57
(g58
g59
NtRp4977
(dp4978
g62
(dp4979
g70
I5
ssg71
g4973
sg64
(lp4980
S'127.0.0.1-d1cfb7ee-ab22-4bca-bef2-e37fe3fe8940'
p4981
asbasbasbag57
(g73
g59
NtRp4982
(dp4983
g62
(dp4984
sg71
g3010
sg64
(lp4985
g57
(g78
g59
NtRp4986
(dp4987
g62
(dp4988
g82
g83
ssg71
g4982
sg64
(lp4989
S'session_id_name'
p4990
asbag57
(g78
g59
NtRp4991
(dp4992
g62
(dp4993
g89
g90
ssg71
g4982
sg64
(lp4994
S':'
asbag57
(g78
g59
NtRp4995
(dp4996
g62
(dp4997
sg71
g4982
sg64
(lp4998
g57
(g58
g59
NtRp4999
(dp5000
g62
(dp5001
g70
I5
ssg71
g4995
sg64
(lp5002
g3067
asbasbasbag57
(g73
g59
NtRp5003
(dp5004
g62
(dp5005
sg71
g3010
sg64
(lp5006
g57
(g78
g59
NtRp5007
(dp5008
g62
(dp5009
g82
g83
ssg71
g5003
sg64
(lp5010
S'session_locked'
p5011
asbag57
(g78
g59
NtRp5012
(dp5013
g62
(dp5014
g89
g90
ssg71
g5003
sg64
(lp5015
S':'
asbag57
(g78
g59
NtRp5016
(dp5017
g62
(dp5018
sg71
g5003
sg64
(lp5019
g57
(g58
g59
NtRp5020
(dp5021
g62
(dp5022
g70
I5
ssg71
g5016
sg64
(lp5023
g1634
asbasbasbag57
(g73
g59
NtRp5024
(dp5025
g62
(dp5026
sg71
g3010
sg64
(lp5027
g57
(g78
g59
NtRp5028
(dp5029
g62
(dp5030
g82
g83
ssg71
g5024
sg64
(lp5031
S'session_new'
p5032
asbag57
(g78
g59
NtRp5033
(dp5034
g62
(dp5035
g89
g90
ssg71
g5024
sg64
(lp5036
S':'
asbag57
(g78
g59
NtRp5037
(dp5038
g62
(dp5039
sg71
g5024
sg64
(lp5040
g57
(g58
g59
NtRp5041
(dp5042
g62
(dp5043
g70
I5
ssg71
g5037
sg64
(lp5044
g100
asbasbasbag57
(g73
g59
NtRp5045
(dp5046
g62
(dp5047
sg71
g3010
sg64
(lp5048
g57
(g78
g59
NtRp5049
(dp5050
g62
(dp5051
g82
g83
ssg71
g5045
sg64
(lp5052
S'status'
p5053
asbag57
(g78
g59
NtRp5054
(dp5055
g62
(dp5056
g89
g90
ssg71
g5045
sg64
(lp5057
S':'
asbag57
(g78
g59
NtRp5058
(dp5059
g62
(dp5060
sg71
g5045
sg64
(lp5061
g57
(g58
g59
NtRp5062
(dp5063
g62
(dp5064
g70
I5
ssg71
g5058
sg64
(lp5065
S'200'
p5066
asbasbasbag57
(g73
g59
NtRp5067
(dp5068
g62
(dp5069
sg71
g3010
sg64
(lp5070
g57
(g78
g59
NtRp5071
(dp5072
g62
(dp5073
g82
g83
ssg71
g5067
sg64
(lp5074
S'subtitle'
p5075
asbag57
(g78
g59
NtRp5076
(dp5077
g62
(dp5078
g89
g90
ssg71
g5067
sg64
(lp5079
S':'
asbag57
(g78
g59
NtRp5080
(dp5081
g62
(dp5082
sg71
g5067
sg64
(lp5083
g57
(g58
g59
NtRp5084
(dp5085
g62
(dp5086
g70
I5
ssg71
g5080
sg64
(lp5087
S'mini personal task-manager'
p5088
asbasbasbag57
(g73
g59
NtRp5089
(dp5090
g62
(dp5091
sg71
g3010
sg64
(lp5092
g57
(g78
g59
NtRp5093
(dp5094
g62
(dp5095
g82
g83
ssg71
g5089
sg64
(lp5096
S'title'
p5097
asbag57
(g78
g59
NtRp5098
(dp5099
g62
(dp5100
g89
g90
ssg71
g5089
sg64
(lp5101
S':'
asbag57
(g78
g59
NtRp5102
(dp5103
g62
(dp5104
sg71
g5089
sg64
(lp5105
g57
(g58
g59
NtRp5106
(dp5107
g62
(dp5108
g70
I5
ssg71
g5102
sg64
(lp5109
S'Mtask'
p5110
asbasbasbag57
(g73
g59
NtRp5111
(dp5112
g62
(dp5113
sg71
g3010
sg64
(lp5114
g57
(g78
g59
NtRp5115
(dp5116
g62
(dp5117
g82
g83
ssg71
g5111
sg64
(lp5118
g2298
asbag57
(g78
g59
NtRp5119
(dp5120
g62
(dp5121
g89
g90
ssg71
g5111
sg64
(lp5122
S':'
asbag57
(g78
g59
NtRp5123
(dp5124
g62
(dp5125
sg71
g5111
sg64
(lp5126
g57
(g58
g59
NtRp5127
(dp5128
g62
(dp5129
g70
I5
ssg71
g5123
sg64
(lp5130
g2311
asbasbasbag57
(g73
g59
NtRp5131
(dp5132
g62
(dp5133
sg71
g3010
sg64
(lp5134
g57
(g78
g59
NtRp5135
(dp5136
g62
(dp5137
g82
g83
ssg71
g5131
sg64
(lp5138
S'view'
p5139
asbag57
(g78
g59
NtRp5140
(dp5141
g62
(dp5142
g89
g90
ssg71
g5131
sg64
(lp5143
S':'
asbag57
(g78
g59
NtRp5144
(dp5145
g62
(dp5146
sg71
g5131
sg64
(lp5147
g57
(g58
g59
NtRp5148
(dp5149
g62
(dp5150
g70
I5
ssg71
g5144
sg64
(lp5151
S'default/index.html'
p5152
asbasbasbasbasbsS'locals'
p5153
(dp5154
S'Service'
p5155
S"<class 'gluon.tools.Service'>"
p5156
sS'OBJECT'
p5157
S"<class 'gluon.html.OBJECT'>"
p5158
sS'SQLDB'
p5159
S"<class 'gluon.dal.DAL'>"
p5160
sg2971
S"<Storage {'_formkey[tasks/create]': '0ce5e2b7-58...login]': 'c376767e-d4e5-4aa0-a3cc-8cd9604c10b6'}>"
p5161
sS'LINK'
p5162
S"<class 'gluon.html.LINK'>"
p5163
sS'BR'
p5164
S"<class 'gluon.html.BR'>"
p5165
sS'local_import'
p5166
S'<function <lambda>>'
p5167
sS'OPTGROUP'
p5168
S"<class 'gluon.html.OPTGROUP'>"
p5169
sS'__package__'
p5170
S'None'
p5171
sS'PRE'
p5172
S"<class 'gluon.html.PRE'>"
p5173
sS'IS_INT_IN_RANGE'
p5174
S"<class 'gluon.validators.IS_INT_IN_RANGE'>"
p5175
sS'left_sidebar_enabled'
p5176
g100
sS'IS_LOWER'
p5177
S"<class 'gluon.validators.IS_LOWER'>"
p5178
sS'IS_STRONG'
p5179
S"<class 'gluon.validators.IS_STRONG'>"
p5180
sS'cache'
p5181
S'<gluon.cache.Cache object>'
p5182
sS'IS_IN_DB'
p5183
S"<class 'gluon.validators.IS_IN_DB'>"
p5184
sS'TAG'
p5185
S'<gluon.html.__TAG__ object>'
p5186
sS'SQLField'
p5187
S"<class 'gluon.dal.Field'>"
p5188
sS'mail'
p5189
S'<gluon.tools.Mail object>'
p5190
sS'BODY'
p5191
S"<class 'gluon.html.BODY'>"
p5192
sS'IS_DATE_IN_RANGE'
p5193
S"<class 'gluon.validators.IS_DATE_IN_RANGE'>"
p5194
sS'TH'
p5195
S"<class 'gluon.html.TH'>"
p5196
sS'URL'
p5197
S'<function URL>'
p5198
sS'__file__'
p5199
S"'/home/famihug/Apps/web2py/applications/mTask/views/default/index.html'"
p5200
sS'db'
p5201
S"<DAL {'auth_event': <Table {'origin': <gluon.dal...n_key': <gluon.dal.Field object at 0x979c4ec>}>}>"
p5202
sS'auth'
p5203
S'<gluon.tools.Auth object>'
p5204
sS'P'
S"<class 'gluon.html.P'>"
p5205
sS'TFOOT'
p5206
S"<class 'gluon.html.TFOOT'>"
p5207
sS'XHTML'
p5208
S"<class 'gluon.html.XHTML'>"
p5209
sS'ON'
p5210
g1634
sS'OL'
p5211
S"<class 'gluon.html.OL'>"
p5212
sS'TEXTAREA'
p5213
S"<class 'gluon.html.TEXTAREA'>"
p5214
sS'MENU'
p5215
S"<class 'gluon.html.MENU'>"
p5216
sS'LOAD'
p5217
S'<function LOAD>'
p5218
sS'CODE'
p5219
S"<class 'gluon.html.CODE'>"
p5220
sS'HTTP'
p5221
S"<class 'gluon.http.HTTP'>"
p5222
sS'HR'
p5223
S"<class 'gluon.html.HR'>"
p5224
sS'IS_DATETIME'
p5225
S"<class 'gluon.validators.IS_DATETIME'>"
p5226
sS'HEAD'
p5227
S"<class 'gluon.html.HEAD'>"
p5228
sS'LABEL'
p5229
S"<class 'gluon.html.LABEL'>"
p5230
sS'CLEANUP'
p5231
S"<class 'gluon.validators.CLEANUP'>"
p5232
sS'plugins'
p5233
S'<gluon.tools.PluginManager object>'
p5234
sS'SELECT'
p5235
S"<class 'gluon.html.SELECT'>"
p5236
sS'use_janrain'
p5237
S'<function use_janrain>'
p5238
sS'CENTER'
p5239
S"<class 'gluon.html.CENTER'>"
p5240
sS'prettydate'
p5241
S'<function prettydate>'
p5242
sS'Crud'
p5243
S"<class 'gluon.tools.Crud'>"
p5244
sS'Auth'
p5245
S"<class 'gluon.tools.Auth'>"
p5246
sS'__builtins__'
p5247
S"{'ArithmeticError': <type 'exceptions.ArithmeticError'>, 'AssertionError': <type 'exceptions.AssertionError'>, 'AttributeError': <type 'exceptions.AttributeError'>, 'BaseException': <type 'exceptions.BaseException'>, 'BufferError': <type 'exceptions.BufferError'>, 'BytesWarning': <type 'exceptions.BytesWarning'>, 'DeprecationWarning': <type 'exceptions.DeprecationWarning'>, 'EOFError': <type 'exceptions.EOFError'>, 'Ellipsis': Ellipsis, 'EnvironmentError': <type 'exceptions.EnvironmentError'>, ...}"
p5248
sS'HTML'
p5249
S"<class 'gluon.html.HTML'>"
p5250
sS'SQLFORM'
p5251
S"<class 'gluon.sqlhtml.SQLFORM'>"
p5252
sS'EM'
p5253
S"<class 'gluon.html.EM'>"
p5254
sS'redirect'
p5255
S'<function redirect>'
p5256
sS'FIELDSET'
p5257
S"<class 'gluon.html.FIELDSET'>"
p5258
sS'IS_EQUAL_TO'
p5259
S"<class 'gluon.validators.IS_EQUAL_TO'>"
p5260
sS'embed64'
p5261
S'<function embed64>'
p5262
sS'IS_LIST_OF'
p5263
S"<class 'gluon.validators.IS_LIST_OF'>"
p5264
sS'__name__'
p5265
S"'__restricted__'"
p5266
sS'EMBED'
p5267
S"<class 'gluon.html.EMBED'>"
p5268
sS'_'
S'<function _>'
p5269
sS'FORM'
p5270
S"<class 'gluon.html.FORM'>"
p5271
sS'H2'
p5272
S"<class 'gluon.html.H2'>"
p5273
sS'H3'
p5274
S"<class 'gluon.html.H3'>"
p5275
sS'BUTTON'
p5276
S"<class 'gluon.html.BUTTON'>"
p5277
sS'H1'
p5278
S"<class 'gluon.html.H1'>"
p5279
sS'H6'
p5280
S"<class 'gluon.html.H6'>"
p5281
sS'H4'
p5282
S"<class 'gluon.html.H4'>"
p5283
sS'H5'
p5284
S"<class 'gluon.html.H5'>"
p5285
sS'UL'
p5286
S"<class 'gluon.html.UL'>"
p5287
sS'IS_UPPER'
p5288
S"<class 'gluon.validators.IS_UPPER'>"
p5289
sS'xmlescape'
p5290
S'<function xmlescape>'
p5291
sS'IS_TIME'
p5292
S"<class 'gluon.validators.IS_TIME'>"
p5293
sS'tasks'
p5294
S'<gluon.dal.Rows object>'
p5295
sS'OPTION'
p5296
S"<class 'gluon.html.OPTION'>"
p5297
sS'TITLE'
p5298
S"<class 'gluon.html.TITLE'>"
p5299
sS'CRYPT'
p5300
S"<class 'gluon.validators.CRYPT'>"
p5301
sS'IS_EMPTY_OR'
p5302
S"<class 'gluon.validators.IS_EMPTY_OR'>"
p5303
sS'MARKMIN'
p5304
S"<class 'gluon.html.MARKMIN'>"
p5305
sS'INPUT'
p5306
S"<class 'gluon.html.INPUT'>"
p5307
sS'COL'
p5308
S"<class 'gluon.html.COL'>"
p5309
sS'service'
p5310
S'<gluon.tools.Service object>'
p5311
sS'SCRIPT'
p5312
S"<class 'gluon.html.SCRIPT'>"
p5313
sS'is_mobile'
p5314
g100
sS'TABLE'
p5315
S"<class 'gluon.html.TABLE'>"
p5316
sS'IS_IPV4'
p5317
S"<class 'gluon.validators.IS_IPV4'>"
p5318
sS'IS_LENGTH'
p5319
S"<class 'gluon.validators.IS_LENGTH'>"
p5320
sS'XML'
p5321
S"<class 'gluon.html.XML'>"
p5322
sS'B'
S"<class 'gluon.html.B'>"
p5323
sS'IMG'
p5324
S"<class 'gluon.html.IMG'>"
p5325
sS'SQLTABLE'
p5326
S"<class 'gluon.sqlhtml.SQLTABLE'>"
p5327
sS'IS_MATCH'
p5328
S"<class 'gluon.validators.IS_MATCH'>"
p5329
sS'IS_ALPHANUMERIC'
p5330
S"<class 'gluon.validators.IS_ALPHANUMERIC'>"
p5331
sS'SPAN'
p5332
S"<class 'gluon.html.SPAN'>"
p5333
sS'IS_SLUG'
p5334
S"<class 'gluon.validators.IS_SLUG'>"
p5335
sS'BEAUTIFY'
p5336
S"<class 'gluon.html.BEAUTIFY'>"
p5337
sS'META'
p5338
S"<class 'gluon.html.META'>"
p5339
sS'today'
p5340
S'datetime.datetime(2012, 7, 3, 13, 43, 30, 723126)'
p5341
sS'IS_DATE'
p5342
S"<class 'gluon.validators.IS_DATE'>"
p5343
sS'IS_EMAIL'
p5344
S"<class 'gluon.validators.IS_EMAIL'>"
p5345
sS'IS_NOT_EMPTY'
p5346
S"<class 'gluon.validators.IS_NOT_EMPTY'>"
p5347
sS'IS_FLOAT_IN_RANGE'
p5348
S"<class 'gluon.validators.IS_FLOAT_IN_RANGE'>"
p5349
sS'TBODY'
p5350
S"<class 'gluon.html.TBODY'>"
p5351
sS'CAT'
p5352
S"<class 'gluon.html.CAT'>"
p5353
sS'Field'
p5354
S"<class 'gluon.dal.Field'>"
p5355
sS'middle_columns'
p5356
S"'twelve'"
p5357
sS'DIV'
p5358
S"<class 'gluon.html.DIV'>"
p5359
sS'LEGEND'
p5360
S"<class 'gluon.html.LEGEND'>"
p5361
sS'COLGROUP'
p5362
S"<class 'gluon.html.COLGROUP'>"
p5363
sS'DAL'
p5364
S"<class 'gluon.dal.DAL'>"
p5365
sS'TT'
p5366
S"<class 'gluon.html.TT'>"
p5367
sS'TR'
p5368
S"<class 'gluon.html.TR'>"
p5369
sS'LI'
p5370
S"<class 'gluon.html.LI'>"
p5371
sS'right_sidebar_enabled'
p5372
g1634
sS'IFRAME'
p5373
S"<class 'gluon.html.IFRAME'>"
p5374
sS'TD'
p5375
S"<class 'gluon.html.TD'>"
p5376
sS'PluginManager'
p5377
S"<class 'gluon.tools.PluginManager'>"
p5378
sS'IS_URL'
p5379
S"<class 'gluon.validators.IS_URL'>"
p5380
sS'A'
S"<class 'gluon.html.A'>"
p5381
sS'STYLE'
p5382
S"<class 'gluon.html.STYLE'>"
p5383
sS'IS_DATETIME_IN_RANGE'
p5384
S"<class 'gluon.validators.IS_DATETIME_IN_RANGE'>"
p5385
sS'IS_IMAGE'
p5386
S"<class 'gluon.validators.IS_IMAGE'>"
p5387
sS'I'
S"<class 'gluon.html.I'>"
p5388
sS'crud'
p5389
S'<gluon.tools.Crud object>'
p5390
sS'IS_NOT_IN_DB'
p5391
S"<class 'gluon.validators.IS_NOT_IN_DB'>"
p5392
sg3005
S"<Storage {'body': <cStringIO.StringO object at 0...da> at 0x9f457d4>, 'view': 'default/index.html'}>"
p5393
sS'THEAD'
p5394
S"<class 'gluon.html.THEAD'>"
p5395
sS'IS_NULL_OR'
p5396
S"<class 'gluon.validators.IS_EMPTY_OR'>"
p5397
sS'task'
p5398
S"<Row {'startdate': datetime.datetime(2012, 7, 12...elete_record': <function <lambda> at 0x9a1c3e4>}>"
p5399
sg56
S"<Storage {'body': <cStringIO.StringO object at 0..._vars': <Storage {}>, 'post_vars': <Storage {}>}>"
p5400
sS'IS_EXPR'
p5401
S"<class 'gluon.validators.IS_EXPR'>"
p5402
sS'T'
S'<gluon.languages.translator object>'
p5403
sS'IS_IN_SET'
p5404
S"<class 'gluon.validators.IS_IN_SET'>"
p5405
sS'IS_UPLOAD_FILENAME'
p5406
S"<class 'gluon.validators.IS_UPLOAD_FILENAME'>"
p5407
sS'IS_DECIMAL_IN_RANGE'
p5408
S"<class 'gluon.validators.IS_DECIMAL_IN_RANGE'>"
p5409
sssS'traceback'
p5410
S'Traceback (most recent call last):\n  File "/home/famihug/Apps/web2py/gluon/restricted.py", line 205, in restricted\n    exec ccode in environment\n  File "/home/famihug/Apps/web2py/applications/mTask/views/default/index.html", line 101, in <module>\nNameError: name \'endif\' is not defined\n'
p5411
s.