(dp1
S'output'
p2
S"<type 'exceptions.NameError'> name 'form' is not defined"
p3
sS'layer'
p4
S'/home/famihug/Apps/web2py/applications/test/views/default/index.html'
p5
sS'code'
p6
S'left_sidebar_enabled,right_sidebar_enabled=False,True\nresponse.write(\'\\n\', escape=False)\nresponse.write(\'<!DOCTYPE html>\\n<!-- paulirish.com/2008/conditional-stylesheets-vs-css-hacks-answer-neither/ -->\\n<!--[if lt IE 7]><html class="ie ie6 ie-lte9 ie-lte8 ie-lte7 no-js" lang="\', escape=False)\nresponse.write(T.accepted_language or \'en\')\nresponse.write(\'"> <![endif]-->\\n<!--[if IE 7]><html class="ie ie7 ie-lte9 ie-lte8 ie-lte7 no-js" lang="\', escape=False)\nresponse.write(T.accepted_language or \'en\')\nresponse.write(\'"> <![endif]-->\\n<!--[if IE 8]><html class="ie ie8 ie-lte9 ie-lte8 no-js" lang="\', escape=False)\nresponse.write(T.accepted_language or \'en\')\nresponse.write(\'"> <![endif]-->\\n<!--[if IE 9]><html class="ie9 ie-lte9 no-js" lang="\', escape=False)\nresponse.write(T.accepted_language or \'en\')\nresponse.write(\'"> <![endif]-->\\n<!--[if (gt IE 9)|!(IE)]><!--> <html class="no-js" lang="\', escape=False)\nresponse.write(T.accepted_language or \'en\')\nresponse.write(\'"> <!--<![endif]-->\\n<head>\\n  <meta charset="utf-8" />\\n  <!-- www.phpied.com/conditional-comments-block-downloads/ -->\\n  <!-- Always force latest IE rendering engine\\n\\t   (even in intranet) & Chrome Frame\\n\\t   Remove this if you use the .htaccess -->\\n  <!--[if IE]>\\n    <meta http-equiv="X-UA-Compatible" content="IE=edge\', escape=False)\nresponse.write(not request.is_local and \',chrome=1\' or \'\')\nresponse.write(\'">\\n  <![endif]-->\\n  \\n  <title>\', escape=False)\nresponse.write(response.title or request.application)\nresponse.write(\'</title>\\n  \\n  <!-- http://dev.w3.org/html5/markup/meta.name.html -->\\n  <meta name="application-name" content="\', escape=False)\nresponse.write(request.application)\nresponse.write(\'" />\\n  \\n  <!-- Speaking of Google, don\\\'t forget to set your site up:\\n\\t   http://google.com/webmasters -->\\n  <meta name="google-site-verification" content="" />\\n\\n  <!--  Mobile Viewport Fix\\n\\t  j.mp/mobileviewport & davidbcalhoun.com/2010/viewport-metatag\\n\\t  device-width: Occupy full width of the screen in its current orientation\\n\\t  initial-scale = 1.0 retains dimensions instead of zooming out if page height > device height\\n\\t  user-scalable = yes allows the user to zoom in -->\\n  <meta name="viewport" content="width=device-width, initial-scale=1.0, user-scalable=yes">\\n  \\n  <!-- Place favicon.ico and apple-touch-icon.png in the root of your domain and delete these references -->\\n  <link rel="shortcut icon" href="\', escape=False)\nresponse.write(URL(\'static\',\'favicon.ico\'))\nresponse.write(\'" type="image/x-icon">\\n  <link rel="apple-touch-icon" href="\', escape=False)\nresponse.write(URL(\'static\',\'favicon.png\'))\nresponse.write(\'">\\n\\n  <!-- All JavaScript at the bottom, except for Modernizr which enables \\n\\t   HTML5 elements & feature detects -->\\n  <script src="\', escape=False)\nresponse.write(URL(\'static\',\'js/modernizr.custom.js\'))\nresponse.write(\'"></script>  \\n\\n  <!-- include stylesheets -->\\n  \', escape=False)\nresponse.files.append(URL(\'static\',\'css/skeleton.css\'))\nresponse.files.append(URL(\'static\',\'css/web2py.css\'))\nif response.menu:\n    response.files.append(URL(\'static\',\'css/superfish.css\'))\n    response.files.append(URL(\'static\',\'js/superfish.js\'))\n    pass\nresponse.write(\'\\n\\n  \', escape=False)\nresponse.write(\'<script type="text/javascript"><!--\\n    // These variables are used by the web2py_ajax_init function in web2py_ajax.js (which is loaded below).\\n    var w2p_ajax_confirm_message = "\', escape=False)\nresponse.write(T(\'Are you sure you want to delete this object?\'))\nresponse.write(\'";\\n    var w2p_ajax_date_format = "\', escape=False)\nresponse.write(T(\'%Y-%m-%d\'))\nresponse.write(\'";\\n    var w2p_ajax_datetime_format = "\', escape=False)\nresponse.write(T(\'%Y-%m-%d %H:%M:%S\'))\nresponse.write(\'";\\n    //--></script>\\n\', escape=False)\nresponse.files.insert(0,URL(\'static\',\'js/jquery.js\'))\nresponse.files.insert(1,URL(\'static\',\'css/calendar.css\'))\nresponse.files.insert(2,URL(\'static\',\'js/calendar.js\'))\nresponse.files.insert(3,URL(\'static\',\'js/web2py.js\'))\nresponse.include_meta()\nresponse.include_files()\nresponse.write(\'\\n\', escape=False)\nresponse.write(\'\\n\\n  \', escape=False)\nif response.menu:\n    response.write(\'\\n  <script type="text/javascript">\\n    jQuery(function(){ jQuery(\\\'ul.sf-menu\\\').supersubs({minWidth:12,maxWidth:30,extraWidth:3}).superfish(); });\\n  </script>\\n  \', escape=False)\n    pass\nresponse.write(\'\\n\\n  \', escape=False)\n# using sidebars need to know what sidebar you want to use\nleft_sidebar_enabled = globals().get(\'left_sidebar_enabled\',False)\nright_sidebar_enabled = globals().get(\'right_sidebar_enabled\',False)\nmiddle_columns = {0:\'sixteen\',1:\'twelve\',2:\'eight\'}[\n(left_sidebar_enabled and 1 or 0)+(right_sidebar_enabled and 1 or 0)]\nresponse.write(\'\\n\\n  <!-- uncomment here to load jquery-ui\\n  <link rel="stylesheet" href="http://ajax.googleapis.com/ajax/libs/jqueryui/1.8.16/themes/base/jquery-ui.css" type="text/css" media="all" />\\n  <script src="http://ajax.googleapis.com/ajax/libs/jqueryui/1.8.16/jquery-ui.min.js" type="text/javascript"></script>\\n  uncomment to load jquery-ui //-->\\n</head>\\n<body>\\n  <div class="wrapper"><!-- for sticky footer -->\\n  \\n    <div class="topbar">\\n      <div class="container">    \\n        <div class="sixteen columns">\\n          <div id="navbar">\', escape=False)\nresponse.write(\'auth\' in globals() and auth.navbar(separators=(\' \',\' | \',\'\')))\nresponse.write(\'</div>\\n          \', escape=False)\nis_mobile=request.user_agent().is_mobile\nresponse.write(\'\\n\\t  \', escape=False)\nif response.menu:\n    response.write(\'\\n          <div id="menu">\\n             \', escape=False)\n    response.write(MENU(response.menu, _class=\'mobile-menu\' if is_mobile else \'sf-menu\',mobile=is_mobile))\n    response.write(\'\\n          </div>\\n          \', escape=False)\n    pass\nresponse.write(\'\\n        </div>\\n      </div>\\n    </div><!-- topbar -->\\n    \\n    <div class="flash">\', escape=False)\nresponse.write(response.flash or \'\')\nresponse.write(\'</div>\\n    \\n    <div class="header">\\n      <div class="container">         \\n        <div class="sixteen columns">\\n          <h1 class="remove-bottom" style="margin-top: .5em;">\\n          \', escape=False)\nresponse.write(response.title or request.application)\nresponse.write(\'\\n          </h1>\\n          <h5>\', escape=False)\nresponse.write(response.subtitle or \'\')\nresponse.write(\'</h5>\\n        </div>\\n      </div>\\n    </div>\\n\\n    <div class="main">\\n      <div class="container">                 \\n        \', escape=False)\nif left_sidebar_enabled:\n    response.write(\'\\n        <div class="four columns left-sidebar">\\n          \', escape=False)\n    response.write(\'\\n          <h3>Left Sidebar</h3>\\n          <p></p>\\n          \', escape=False)\n    response.write(\'\\n        </div>\\n        \', escape=False)\n    pass\nresponse.write(\'\\n        \\n        <div class="\', escape=False)\nresponse.write(middle_columns)\nresponse.write(\' columns center">\\n          \', escape=False)\nresponse.write(\'\\n          \', escape=False)\nresponse.write(\'\\n\', escape=False)\nresponse.write(form)\nresponse.write(\'\\n\\t\\n\\n<h2><a href="\', escape=False)\nresponse.write(URL(r=request, f=\'create\'))\nresponse.write(\'">Create task</a></h2>\\n\\n<ul class=tasks>\\n\', escape=False)\nfor task in tasks:\n    response.write(\'\\n<li><h2>\', escape=False)\n    response.write(task.task)\n    response.write(\' \', escape=False)\n    response.write(task.priority * "*")\n    response.write(\'</h2></li>\\n<h4>End date: \', escape=False)\n    response.write(task.enddate)\n    response.write(\' </h4>\\n<h4>Days left: \', escape=False)\n    response.write(task.enddate - task.startdate)\n    response.write(\'</h4>\\n</ul>\\n\', escape=False)\n    pass\nresponse.write(\'\\n\\n\\n\', escape=False)\nresponse.write(\'\\n          \', escape=False)\nresponse.write(\'\\n        </div>\\n        \\n        \', escape=False)\nif right_sidebar_enabled:\n    response.write(\'\\n        <div class="four columns">\\n          \', escape=False)\n    response.write(\'\\n\', escape=False)\n    response.write(\'\\n        </div>    \\n        \', escape=False)\n    pass\nresponse.write(\'\\n        \\n      </div><!-- container -->\\n    </div><!-- main -->\\n    \\n    <div class="push"></div>\\n  </div><!-- wrapper -->\\n\\n  <div class="footer">\\n    <div class="container">    \\n      <div class="sixteen columns">\\n      </div>\\n    </div><!-- container -->\\n  </div><!-- footer -->\\n  \\n  <!--[if lt IE 7 ]>\\n\\t<script src="\', escape=False)\nresponse.write(URL(\'static\',\'js/dd_belatedpng.js\'))\nresponse.write(\'"></script>\\n\\t<script> DD_belatedPNG.fix(\\\'img, .png_bg\\\'); //fix any <img> or .png_bg background-images </script>\\n\\t<![endif]-->\\n  \', escape=False)\nif response.google_analytics_id:\n    response.write(\'<script type="text/javascript"> var _gaq = _gaq || []; _gaq.push([\\\'_setAccount\\\', \\\'\', escape=False)\n    response.write(response.google_analytics_id)\n    response.write("\']); _gaq.push([\'_trackPageview\']); (function() { var ga = document.createElement(\'script\'); ga.type = \'text/javascript\'; ga.async = true; ga.src = (\'https:\' == document.location.protocol ? \'https://ssl\' : \'http://www\') + \'.google-analytics.com/ga.js\'; var s = document.getElementsByTagName(\'script\')[0]; s.parentNode.insertBefore(ga, s); })(); </script> ", escape=False)\n    pass\nresponse.write(\'\\n</body>\\n</html>\\n\', escape=False)'
p7
sS'snapshot'
p8
(dp9
S'exception'
p10
(dp11
S'__hash__'
p12
S"<method-wrapper '__hash__' of exceptions.NameError object>"
p13
sS'__setattr__'
p14
S"<method-wrapper '__setattr__' of exceptions.NameError object>"
p15
sS'__reduce_ex__'
p16
S'<built-in method __reduce_ex__ of exceptions.NameError object>'
p17
sS'__getslice__'
p18
S"<method-wrapper '__getslice__' of exceptions.NameError object>"
p19
sS'__getitem__'
p20
S"<method-wrapper '__getitem__' of exceptions.NameError object>"
p21
sS'__setstate__'
p22
S'<built-in method __setstate__ of exceptions.NameError object>'
p23
sS'__reduce__'
p24
S'<built-in method __reduce__ of exceptions.NameError object>'
p25
sS'__str__'
p26
S"<method-wrapper '__str__' of exceptions.NameError object>"
p27
sS'__format__'
p28
S'<built-in method __format__ of exceptions.NameError object>'
p29
sS'__getattribute__'
p30
S"<method-wrapper '__getattribute__' of exceptions.NameError object>"
p31
sS'__class__'
p32
S"<type 'exceptions.NameError'>"
p33
sS'__unicode__'
p34
S'<built-in method __unicode__ of exceptions.NameError object>'
p35
sS'__delattr__'
p36
S"<method-wrapper '__delattr__' of exceptions.NameError object>"
p37
sS'__subclasshook__'
p38
S'<built-in method __subclasshook__ of type object>'
p39
sS'__repr__'
p40
S"<method-wrapper '__repr__' of exceptions.NameError object>"
p41
sS'args'
p42
S'("name \'form\' is not defined",)'
p43
sS'__dict__'
p44
S'{}'
p45
sS'__sizeof__'
p46
S'<built-in method __sizeof__ of exceptions.NameError object>'
p47
sS'__doc__'
p48
S"'Name not found globally.'"
p49
sS'__init__'
p50
S"<method-wrapper '__init__' of exceptions.NameError object>"
p51
sS'__new__'
p52
S'<built-in method __new__ of type object>'
p53
ssS'evalue'
p54
S"name 'form' is not defined"
p55
sS'request'
p56
ccopy_reg
_reconstructor
p57
(cgluon.html
BEAUTIFY
p58
c__builtin__
object
p59
NtRp60
(dp61
S'attributes'
p62
(dp63
sS'components'
p64
(lp65
g57
(cgluon.html
TABLE
p66
g59
NtRp67
(dp68
g62
(dp69
S'level'
p70
I5
ssS'parent'
p71
Nsg64
(lp72
g57
(cgluon.html
TR
p73
g59
NtRp74
(dp75
g62
(dp76
sg71
g67
sg64
(lp77
g57
(cgluon.html
TD
p78
g59
NtRp79
(dp80
g62
(dp81
S'_style'
p82
S'font-weight:bold;vertical-align:top'
p83
ssg71
g74
sg64
(lp84
S'ajax'
p85
asbag57
(g78
g59
NtRp86
(dp87
g62
(dp88
S'_valign'
p89
S'top'
p90
ssg71
g74
sg64
(lp91
S':'
asbag57
(g78
g59
NtRp92
(dp93
g62
(dp94
sg71
g74
sg64
(lp95
g57
(g58
g59
NtRp96
(dp97
g62
(dp98
g70
I5
ssg71
g92
sg64
(lp99
S'False'
p100
asbasbasbag57
(g73
g59
NtRp101
(dp102
g62
(dp103
sg71
g67
sg64
(lp104
g57
(g78
g59
NtRp105
(dp106
g62
(dp107
g82
g83
ssg71
g101
sg64
(lp108
S'application'
p109
asbag57
(g78
g59
NtRp110
(dp111
g62
(dp112
g89
g90
ssg71
g101
sg64
(lp113
S':'
asbag57
(g78
g59
NtRp114
(dp115
g62
(dp116
sg71
g101
sg64
(lp117
g57
(g58
g59
NtRp118
(dp119
g62
(dp120
g70
I5
ssg71
g114
sg64
(lp121
S'test'
p122
asbasbasbag57
(g73
g59
NtRp123
(dp124
g62
(dp125
sg71
g67
sg64
(lp126
g57
(g78
g59
NtRp127
(dp128
g62
(dp129
g82
g83
ssg71
g123
sg64
(lp130
g42
asbag57
(g78
g59
NtRp131
(dp132
g62
(dp133
g89
g90
ssg71
g123
sg64
(lp134
S':'
asbag57
(g78
g59
NtRp135
(dp136
g62
(dp137
sg71
g123
sg64
(lp138
g57
(g58
g59
NtRp139
(dp140
g62
(dp141
g70
I5
ssg71
g135
sg64
(lp142
g57
(g66
g59
NtRp143
(dp144
g62
(dp145
g70
I4
ssg71
Nsg64
(lp146
sbasbasbasbag57
(g73
g59
NtRp147
(dp148
g62
(dp149
sg71
g67
sg64
(lp150
g57
(g78
g59
NtRp151
(dp152
g62
(dp153
g82
g83
ssg71
g147
sg64
(lp154
S'body'
p155
asbag57
(g78
g59
NtRp156
(dp157
g62
(dp158
g89
g90
ssg71
g147
sg64
(lp159
S':'
asbag57
(g78
g59
NtRp160
(dp161
g62
(dp162
sg71
g147
sg64
(lp163
g57
(g58
g59
NtRp164
(dp165
g62
(dp166
g70
I5
ssg71
g160
sg64
(lp167
S'<cStringIO.StringO object at 0x99644c0>'
p168
asbasbasbag57
(g73
g59
NtRp169
(dp170
g62
(dp171
sg71
g67
sg64
(lp172
g57
(g78
g59
NtRp173
(dp174
g62
(dp175
g82
g83
ssg71
g169
sg64
(lp176
S'client'
p177
asbag57
(g78
g59
NtRp178
(dp179
g62
(dp180
g89
g90
ssg71
g169
sg64
(lp181
S':'
asbag57
(g78
g59
NtRp182
(dp183
g62
(dp184
sg71
g169
sg64
(lp185
g57
(g58
g59
NtRp186
(dp187
g62
(dp188
g70
I5
ssg71
g182
sg64
(lp189
S'127.0.0.1'
p190
asbasbasbag57
(g73
g59
NtRp191
(dp192
g62
(dp193
sg71
g67
sg64
(lp194
g57
(g78
g59
NtRp195
(dp196
g62
(dp197
g82
g83
ssg71
g191
sg64
(lp198
S'controller'
p199
asbag57
(g78
g59
NtRp200
(dp201
g62
(dp202
g89
g90
ssg71
g191
sg64
(lp203
S':'
asbag57
(g78
g59
NtRp204
(dp205
g62
(dp206
sg71
g191
sg64
(lp207
g57
(g58
g59
NtRp208
(dp209
g62
(dp210
g70
I5
ssg71
g204
sg64
(lp211
S'default'
p212
asbasbasbag57
(g73
g59
NtRp213
(dp214
g62
(dp215
sg71
g67
sg64
(lp216
g57
(g78
g59
NtRp217
(dp218
g62
(dp219
g82
g83
ssg71
g213
sg64
(lp220
S'cookies'
p221
asbag57
(g78
g59
NtRp222
(dp223
g62
(dp224
g89
g90
ssg71
g213
sg64
(lp225
S':'
asbag57
(g78
g59
NtRp226
(dp227
g62
(dp228
sg71
g213
sg64
(lp229
g57
(g58
g59
NtRp230
(dp231
g62
(dp232
g70
I5
ssg71
g226
sg64
(lp233
g57
(g66
g59
NtRp234
(dp235
g62
(dp236
g70
I4
ssg71
Nsg64
(lp237
g57
(g73
g59
NtRp238
(dp239
g62
(dp240
sg71
g234
sg64
(lp241
g57
(g78
g59
NtRp242
(dp243
g62
(dp244
g82
g83
ssg71
g238
sg64
(lp245
S'session_id_admin'
p246
asbag57
(g78
g59
NtRp247
(dp248
g62
(dp249
g89
g90
ssg71
g238
sg64
(lp250
S':'
asbag57
(g78
g59
NtRp251
(dp252
g62
(dp253
sg71
g238
sg64
(lp254
g57
(g58
g59
NtRp255
(dp256
g62
(dp257
g70
I4
ssg71
g251
sg64
(lp258
g57
(g66
g59
NtRp259
(dp260
g62
(dp261
g70
I3
ssg71
Nsg64
(lp262
g57
(g73
g59
NtRp263
(dp264
g62
(dp265
sg71
g259
sg64
(lp266
g57
(g78
g59
NtRp267
(dp268
g62
(dp269
g82
g83
ssg71
g263
sg64
(lp270
S'comment'
p271
asbag57
(g78
g59
NtRp272
(dp273
g62
(dp274
g89
g90
ssg71
g263
sg64
(lp275
S':'
asbag57
(g78
g59
NtRp276
(dp277
g62
(dp278
sg71
g263
sg64
(lp279
g57
(g58
g59
NtRp280
(dp281
g62
(dp282
g70
I3
ssg71
g276
sg64
(lp283
S''
asbasbasbag57
(g73
g59
NtRp284
(dp285
g62
(dp286
sg71
g259
sg64
(lp287
g57
(g78
g59
NtRp288
(dp289
g62
(dp290
g82
g83
ssg71
g284
sg64
(lp291
S'domain'
p292
asbag57
(g78
g59
NtRp293
(dp294
g62
(dp295
g89
g90
ssg71
g284
sg64
(lp296
S':'
asbag57
(g78
g59
NtRp297
(dp298
g62
(dp299
sg71
g284
sg64
(lp300
g57
(g58
g59
NtRp301
(dp302
g62
(dp303
g70
I3
ssg71
g297
sg64
(lp304
S''
asbasbasbag57
(g73
g59
NtRp305
(dp306
g62
(dp307
sg71
g259
sg64
(lp308
g57
(g78
g59
NtRp309
(dp310
g62
(dp311
g82
g83
ssg71
g305
sg64
(lp312
S'expires'
p313
asbag57
(g78
g59
NtRp314
(dp315
g62
(dp316
g89
g90
ssg71
g305
sg64
(lp317
S':'
asbag57
(g78
g59
NtRp318
(dp319
g62
(dp320
sg71
g305
sg64
(lp321
g57
(g58
g59
NtRp322
(dp323
g62
(dp324
g70
I3
ssg71
g318
sg64
(lp325
S''
asbasbasbag57
(g73
g59
NtRp326
(dp327
g62
(dp328
sg71
g259
sg64
(lp329
g57
(g78
g59
NtRp330
(dp331
g62
(dp332
g82
g83
ssg71
g326
sg64
(lp333
S'httponly'
p334
asbag57
(g78
g59
NtRp335
(dp336
g62
(dp337
g89
g90
ssg71
g326
sg64
(lp338
S':'
asbag57
(g78
g59
NtRp339
(dp340
g62
(dp341
sg71
g326
sg64
(lp342
g57
(g58
g59
NtRp343
(dp344
g62
(dp345
g70
I3
ssg71
g339
sg64
(lp346
S''
asbasbasbag57
(g73
g59
NtRp347
(dp348
g62
(dp349
sg71
g259
sg64
(lp350
g57
(g78
g59
NtRp351
(dp352
g62
(dp353
g82
g83
ssg71
g347
sg64
(lp354
S'max-age'
p355
asbag57
(g78
g59
NtRp356
(dp357
g62
(dp358
g89
g90
ssg71
g347
sg64
(lp359
S':'
asbag57
(g78
g59
NtRp360
(dp361
g62
(dp362
sg71
g347
sg64
(lp363
g57
(g58
g59
NtRp364
(dp365
g62
(dp366
g70
I3
ssg71
g360
sg64
(lp367
S''
asbasbasbag57
(g73
g59
NtRp368
(dp369
g62
(dp370
sg71
g259
sg64
(lp371
g57
(g78
g59
NtRp372
(dp373
g62
(dp374
g82
g83
ssg71
g368
sg64
(lp375
S'path'
p376
asbag57
(g78
g59
NtRp377
(dp378
g62
(dp379
g89
g90
ssg71
g368
sg64
(lp380
S':'
asbag57
(g78
g59
NtRp381
(dp382
g62
(dp383
sg71
g368
sg64
(lp384
g57
(g58
g59
NtRp385
(dp386
g62
(dp387
g70
I3
ssg71
g381
sg64
(lp388
S''
asbasbasbag57
(g73
g59
NtRp389
(dp390
g62
(dp391
sg71
g259
sg64
(lp392
g57
(g78
g59
NtRp393
(dp394
g62
(dp395
g82
g83
ssg71
g389
sg64
(lp396
S'secure'
p397
asbag57
(g78
g59
NtRp398
(dp399
g62
(dp400
g89
g90
ssg71
g389
sg64
(lp401
S':'
asbag57
(g78
g59
NtRp402
(dp403
g62
(dp404
sg71
g389
sg64
(lp405
g57
(g58
g59
NtRp406
(dp407
g62
(dp408
g70
I3
ssg71
g402
sg64
(lp409
S''
asbasbasbag57
(g73
g59
NtRp410
(dp411
g62
(dp412
sg71
g259
sg64
(lp413
g57
(g78
g59
NtRp414
(dp415
g62
(dp416
g82
g83
ssg71
g410
sg64
(lp417
S'version'
p418
asbag57
(g78
g59
NtRp419
(dp420
g62
(dp421
g89
g90
ssg71
g410
sg64
(lp422
S':'
asbag57
(g78
g59
NtRp423
(dp424
g62
(dp425
sg71
g410
sg64
(lp426
g57
(g58
g59
NtRp427
(dp428
g62
(dp429
g70
I3
ssg71
g423
sg64
(lp430
S''
asbasbasbasbasbasbasbag57
(g73
g59
NtRp431
(dp432
g62
(dp433
sg71
g234
sg64
(lp434
g57
(g78
g59
NtRp435
(dp436
g62
(dp437
g82
g83
ssg71
g431
sg64
(lp438
S'session_id_test'
p439
asbag57
(g78
g59
NtRp440
(dp441
g62
(dp442
g89
g90
ssg71
g431
sg64
(lp443
S':'
asbag57
(g78
g59
NtRp444
(dp445
g62
(dp446
sg71
g431
sg64
(lp447
g57
(g58
g59
NtRp448
(dp449
g62
(dp450
g70
I4
ssg71
g444
sg64
(lp451
g57
(g66
g59
NtRp452
(dp453
g62
(dp454
g70
I3
ssg71
Nsg64
(lp455
g57
(g73
g59
NtRp456
(dp457
g62
(dp458
sg71
g452
sg64
(lp459
g57
(g78
g59
NtRp460
(dp461
g62
(dp462
g82
g83
ssg71
g456
sg64
(lp463
g271
asbag57
(g78
g59
NtRp464
(dp465
g62
(dp466
g89
g90
ssg71
g456
sg64
(lp467
S':'
asbag57
(g78
g59
NtRp468
(dp469
g62
(dp470
sg71
g456
sg64
(lp471
g57
(g58
g59
NtRp472
(dp473
g62
(dp474
g70
I3
ssg71
g468
sg64
(lp475
S''
asbasbasbag57
(g73
g59
NtRp476
(dp477
g62
(dp478
sg71
g452
sg64
(lp479
g57
(g78
g59
NtRp480
(dp481
g62
(dp482
g82
g83
ssg71
g476
sg64
(lp483
g292
asbag57
(g78
g59
NtRp484
(dp485
g62
(dp486
g89
g90
ssg71
g476
sg64
(lp487
S':'
asbag57
(g78
g59
NtRp488
(dp489
g62
(dp490
sg71
g476
sg64
(lp491
g57
(g58
g59
NtRp492
(dp493
g62
(dp494
g70
I3
ssg71
g488
sg64
(lp495
S''
asbasbasbag57
(g73
g59
NtRp496
(dp497
g62
(dp498
sg71
g452
sg64
(lp499
g57
(g78
g59
NtRp500
(dp501
g62
(dp502
g82
g83
ssg71
g496
sg64
(lp503
g313
asbag57
(g78
g59
NtRp504
(dp505
g62
(dp506
g89
g90
ssg71
g496
sg64
(lp507
S':'
asbag57
(g78
g59
NtRp508
(dp509
g62
(dp510
sg71
g496
sg64
(lp511
g57
(g58
g59
NtRp512
(dp513
g62
(dp514
g70
I3
ssg71
g508
sg64
(lp515
S''
asbasbasbag57
(g73
g59
NtRp516
(dp517
g62
(dp518
sg71
g452
sg64
(lp519
g57
(g78
g59
NtRp520
(dp521
g62
(dp522
g82
g83
ssg71
g516
sg64
(lp523
g334
asbag57
(g78
g59
NtRp524
(dp525
g62
(dp526
g89
g90
ssg71
g516
sg64
(lp527
S':'
asbag57
(g78
g59
NtRp528
(dp529
g62
(dp530
sg71
g516
sg64
(lp531
g57
(g58
g59
NtRp532
(dp533
g62
(dp534
g70
I3
ssg71
g528
sg64
(lp535
S''
asbasbasbag57
(g73
g59
NtRp536
(dp537
g62
(dp538
sg71
g452
sg64
(lp539
g57
(g78
g59
NtRp540
(dp541
g62
(dp542
g82
g83
ssg71
g536
sg64
(lp543
g355
asbag57
(g78
g59
NtRp544
(dp545
g62
(dp546
g89
g90
ssg71
g536
sg64
(lp547
S':'
asbag57
(g78
g59
NtRp548
(dp549
g62
(dp550
sg71
g536
sg64
(lp551
g57
(g58
g59
NtRp552
(dp553
g62
(dp554
g70
I3
ssg71
g548
sg64
(lp555
S''
asbasbasbag57
(g73
g59
NtRp556
(dp557
g62
(dp558
sg71
g452
sg64
(lp559
g57
(g78
g59
NtRp560
(dp561
g62
(dp562
g82
g83
ssg71
g556
sg64
(lp563
g376
asbag57
(g78
g59
NtRp564
(dp565
g62
(dp566
g89
g90
ssg71
g556
sg64
(lp567
S':'
asbag57
(g78
g59
NtRp568
(dp569
g62
(dp570
sg71
g556
sg64
(lp571
g57
(g58
g59
NtRp572
(dp573
g62
(dp574
g70
I3
ssg71
g568
sg64
(lp575
S''
asbasbasbag57
(g73
g59
NtRp576
(dp577
g62
(dp578
sg71
g452
sg64
(lp579
g57
(g78
g59
NtRp580
(dp581
g62
(dp582
g82
g83
ssg71
g576
sg64
(lp583
g397
asbag57
(g78
g59
NtRp584
(dp585
g62
(dp586
g89
g90
ssg71
g576
sg64
(lp587
S':'
asbag57
(g78
g59
NtRp588
(dp589
g62
(dp590
sg71
g576
sg64
(lp591
g57
(g58
g59
NtRp592
(dp593
g62
(dp594
g70
I3
ssg71
g588
sg64
(lp595
S''
asbasbasbag57
(g73
g59
NtRp596
(dp597
g62
(dp598
sg71
g452
sg64
(lp599
g57
(g78
g59
NtRp600
(dp601
g62
(dp602
g82
g83
ssg71
g596
sg64
(lp603
g418
asbag57
(g78
g59
NtRp604
(dp605
g62
(dp606
g89
g90
ssg71
g596
sg64
(lp607
S':'
asbag57
(g78
g59
NtRp608
(dp609
g62
(dp610
sg71
g596
sg64
(lp611
g57
(g58
g59
NtRp612
(dp613
g62
(dp614
g70
I3
ssg71
g608
sg64
(lp615
S''
asbasbasbasbasbasbasbasbasbasbasbag57
(g73
g59
NtRp616
(dp617
g62
(dp618
sg71
g67
sg64
(lp619
g57
(g78
g59
NtRp620
(dp621
g62
(dp622
g82
g83
ssg71
g616
sg64
(lp623
S'env'
p624
asbag57
(g78
g59
NtRp625
(dp626
g62
(dp627
g89
g90
ssg71
g616
sg64
(lp628
S':'
asbag57
(g78
g59
NtRp629
(dp630
g62
(dp631
sg71
g616
sg64
(lp632
g57
(g58
g59
NtRp633
(dp634
g62
(dp635
g70
I5
ssg71
g629
sg64
(lp636
g57
(g66
g59
NtRp637
(dp638
g62
(dp639
g70
I4
ssg71
Nsg64
(lp640
g57
(g73
g59
NtRp641
(dp642
g62
(dp643
sg71
g637
sg64
(lp644
g57
(g78
g59
NtRp645
(dp646
g62
(dp647
g82
g83
ssg71
g641
sg64
(lp648
S'app_folders'
p649
asbag57
(g78
g59
NtRp650
(dp651
g62
(dp652
g89
g90
ssg71
g641
sg64
(lp653
S':'
asbag57
(g78
g59
NtRp654
(dp655
g62
(dp656
sg71
g641
sg64
(lp657
g57
(g58
g59
NtRp658
(dp659
g62
(dp660
g70
I4
ssg71
g654
sg64
(lp661
S"set(['/home/famihug/Apps/web2py/applications/welcome/', '/home/famihug/Apps/web2py/applications/test/', '/home/famihug/Apps/web2py/applications/examples/', '/home/famihug/Apps/web2py/applications/admin/'])"
p662
asbasbasbag57
(g73
g59
NtRp663
(dp664
g62
(dp665
sg71
g637
sg64
(lp666
g57
(g78
g59
NtRp667
(dp668
g62
(dp669
g82
g83
ssg71
g663
sg64
(lp670
S'applications_parent'
p671
asbag57
(g78
g59
NtRp672
(dp673
g62
(dp674
g89
g90
ssg71
g663
sg64
(lp675
S':'
asbag57
(g78
g59
NtRp676
(dp677
g62
(dp678
sg71
g663
sg64
(lp679
g57
(g58
g59
NtRp680
(dp681
g62
(dp682
g70
I4
ssg71
g676
sg64
(lp683
S'/home/famihug/Apps/web2py'
p684
asbasbasbag57
(g73
g59
NtRp685
(dp686
g62
(dp687
sg71
g637
sg64
(lp688
g57
(g78
g59
NtRp689
(dp690
g62
(dp691
g82
g83
ssg71
g685
sg64
(lp692
S'cmd_args'
p693
asbag57
(g78
g59
NtRp694
(dp695
g62
(dp696
g89
g90
ssg71
g685
sg64
(lp697
S':'
asbag57
(g78
g59
NtRp698
(dp699
g62
(dp700
sg71
g685
sg64
(lp701
g57
(g58
g59
NtRp702
(dp703
g62
(dp704
g70
I4
ssg71
g698
sg64
(lp705
g57
(g66
g59
NtRp706
(dp707
g62
(dp708
g70
I3
ssg71
Nsg64
(lp709
sbasbasbasbag57
(g73
g59
NtRp710
(dp711
g62
(dp712
sg71
g637
sg64
(lp713
g57
(g78
g59
NtRp714
(dp715
g62
(dp716
g82
g83
ssg71
g710
sg64
(lp717
S'cmd_options'
p718
asbag57
(g78
g59
NtRp719
(dp720
g62
(dp721
g89
g90
ssg71
g710
sg64
(lp722
S':'
asbag57
(g78
g59
NtRp723
(dp724
g62
(dp725
sg71
g710
sg64
(lp726
g57
(g58
g59
NtRp727
(dp728
g62
(dp729
g70
I4
ssg71
g723
sg64
(lp730
S"<Values at 0x90497ec: {'verbose': False, 'ip': '127.0.0.1', 'shutdown_timeout': 5, 'taskbar': False, 'nocron': False, 'pid_filename': 'httpserver.pid', 'maxthreads': None, 'softcron': False, 'server_name': 'hvn.vn', 'bpython': False, 'nogui': False, 'port': 8000, 'extcron': False, 'debuglevel': 30, 'test': None, 'folder': '/home/famihug/Apps/web2py', 'config': '', 'import_models': False, 'winservice': '', 'shell': None, 'run': '', 'log_filename': 'httpserver.log', 'args': [''], 'socket_timeout': 5, 'ssl_ca_certificate': None, 'scheduler': None, 'profiler_filename': None, 'ssl_private_key': '', 'password': 'hehehe', 'request_queue_size': 5, 'ssl_certificate': '', 'cronjob': False, 'numthreads': None, 'quiet': False, 'interfaces': None, 'minthreads': None, 'timeout': 10, 'plain': False, 'nobanner': False}>"
p731
asbasbasbag57
(g73
g59
NtRp732
(dp733
g62
(dp734
sg71
g637
sg64
(lp735
g57
(g78
g59
NtRp736
(dp737
g62
(dp738
g82
g83
ssg71
g732
sg64
(lp739
S'db_sessions'
p740
asbag57
(g78
g59
NtRp741
(dp742
g62
(dp743
g89
g90
ssg71
g732
sg64
(lp744
S':'
asbag57
(g78
g59
NtRp745
(dp746
g62
(dp747
sg71
g732
sg64
(lp748
g57
(g58
g59
NtRp749
(dp750
g62
(dp751
g70
I4
ssg71
g745
sg64
(lp752
S'set([])'
p753
asbasbasbag57
(g73
g59
NtRp754
(dp755
g62
(dp756
sg71
g637
sg64
(lp757
g57
(g78
g59
NtRp758
(dp759
g62
(dp760
g82
g83
ssg71
g754
sg64
(lp761
S'debugging'
p762
asbag57
(g78
g59
NtRp763
(dp764
g62
(dp765
g89
g90
ssg71
g754
sg64
(lp766
S':'
asbag57
(g78
g59
NtRp767
(dp768
g62
(dp769
sg71
g754
sg64
(lp770
g57
(g58
g59
NtRp771
(dp772
g62
(dp773
g70
I4
ssg71
g767
sg64
(lp774
g100
asbasbasbag57
(g73
g59
NtRp775
(dp776
g62
(dp777
sg71
g637
sg64
(lp778
g57
(g78
g59
NtRp779
(dp780
g62
(dp781
g82
g83
ssg71
g775
sg64
(lp782
S'gluon_parent'
p783
asbag57
(g78
g59
NtRp784
(dp785
g62
(dp786
g89
g90
ssg71
g775
sg64
(lp787
S':'
asbag57
(g78
g59
NtRp788
(dp789
g62
(dp790
sg71
g775
sg64
(lp791
g57
(g58
g59
NtRp792
(dp793
g62
(dp794
g70
I4
ssg71
g788
sg64
(lp795
S'/home/famihug/Apps/web2py'
p796
asbasbasbag57
(g73
g59
NtRp797
(dp798
g62
(dp799
sg71
g637
sg64
(lp800
g57
(g78
g59
NtRp801
(dp802
g62
(dp803
g82
g83
ssg71
g797
sg64
(lp804
S'http_accept'
p805
asbag57
(g78
g59
NtRp806
(dp807
g62
(dp808
g89
g90
ssg71
g797
sg64
(lp809
S':'
asbag57
(g78
g59
NtRp810
(dp811
g62
(dp812
sg71
g797
sg64
(lp813
g57
(g58
g59
NtRp814
(dp815
g62
(dp816
g70
I4
ssg71
g810
sg64
(lp817
S'text/html,application/xhtml+xml,application/xml;q=0.9,*/*;q=0.8'
p818
asbasbasbag57
(g73
g59
NtRp819
(dp820
g62
(dp821
sg71
g637
sg64
(lp822
g57
(g78
g59
NtRp823
(dp824
g62
(dp825
g82
g83
ssg71
g819
sg64
(lp826
S'http_accept_encoding'
p827
asbag57
(g78
g59
NtRp828
(dp829
g62
(dp830
g89
g90
ssg71
g819
sg64
(lp831
S':'
asbag57
(g78
g59
NtRp832
(dp833
g62
(dp834
sg71
g819
sg64
(lp835
g57
(g58
g59
NtRp836
(dp837
g62
(dp838
g70
I4
ssg71
g832
sg64
(lp839
S'gzip, deflate'
p840
asbasbasbag57
(g73
g59
NtRp841
(dp842
g62
(dp843
sg71
g637
sg64
(lp844
g57
(g78
g59
NtRp845
(dp846
g62
(dp847
g82
g83
ssg71
g841
sg64
(lp848
S'http_accept_language'
p849
asbag57
(g78
g59
NtRp850
(dp851
g62
(dp852
g89
g90
ssg71
g841
sg64
(lp853
S':'
asbag57
(g78
g59
NtRp854
(dp855
g62
(dp856
sg71
g841
sg64
(lp857
g57
(g58
g59
NtRp858
(dp859
g62
(dp860
g70
I4
ssg71
g854
sg64
(lp861
S'en-us,en;q=0.5'
p862
asbasbasbag57
(g73
g59
NtRp863
(dp864
g62
(dp865
sg71
g637
sg64
(lp866
g57
(g78
g59
NtRp867
(dp868
g62
(dp869
g82
g83
ssg71
g863
sg64
(lp870
S'http_connection'
p871
asbag57
(g78
g59
NtRp872
(dp873
g62
(dp874
g89
g90
ssg71
g863
sg64
(lp875
S':'
asbag57
(g78
g59
NtRp876
(dp877
g62
(dp878
sg71
g863
sg64
(lp879
g57
(g58
g59
NtRp880
(dp881
g62
(dp882
g70
I4
ssg71
g876
sg64
(lp883
S'keep-alive'
p884
asbasbasbag57
(g73
g59
NtRp885
(dp886
g62
(dp887
sg71
g637
sg64
(lp888
g57
(g78
g59
NtRp889
(dp890
g62
(dp891
g82
g83
ssg71
g885
sg64
(lp892
S'http_cookie'
p893
asbag57
(g78
g59
NtRp894
(dp895
g62
(dp896
g89
g90
ssg71
g885
sg64
(lp897
S':'
asbag57
(g78
g59
NtRp898
(dp899
g62
(dp900
sg71
g885
sg64
(lp901
g57
(g58
g59
NtRp902
(dp903
g62
(dp904
g70
I4
ssg71
g898
sg64
(lp905
S'session_id_test=127.0.0.1-e5cc216d-0463-4fe8-aefc-620a5f131d3a; session_id_admin=127.0.0.1-485fa5d0-fa0f-484e-a905-2950f61e1854'
p906
asbasbasbag57
(g73
g59
NtRp907
(dp908
g62
(dp909
sg71
g637
sg64
(lp910
g57
(g78
g59
NtRp911
(dp912
g62
(dp913
g82
g83
ssg71
g907
sg64
(lp914
S'http_host'
p915
asbag57
(g78
g59
NtRp916
(dp917
g62
(dp918
g89
g90
ssg71
g907
sg64
(lp919
S':'
asbag57
(g78
g59
NtRp920
(dp921
g62
(dp922
sg71
g907
sg64
(lp923
g57
(g58
g59
NtRp924
(dp925
g62
(dp926
g70
I4
ssg71
g920
sg64
(lp927
S'127.0.0.1:8000'
p928
asbasbasbag57
(g73
g59
NtRp929
(dp930
g62
(dp931
sg71
g637
sg64
(lp932
g57
(g78
g59
NtRp933
(dp934
g62
(dp935
g82
g83
ssg71
g929
sg64
(lp936
S'http_user_agent'
p937
asbag57
(g78
g59
NtRp938
(dp939
g62
(dp940
g89
g90
ssg71
g929
sg64
(lp941
S':'
asbag57
(g78
g59
NtRp942
(dp943
g62
(dp944
sg71
g929
sg64
(lp945
g57
(g58
g59
NtRp946
(dp947
g62
(dp948
g70
I4
ssg71
g942
sg64
(lp949
S'Mozilla/5.0 (X11; Linux i686; rv:13.0) Gecko/20100101 Firefox/13.0.1'
p950
asbasbasbag57
(g73
g59
NtRp951
(dp952
g62
(dp953
sg71
g637
sg64
(lp954
g57
(g78
g59
NtRp955
(dp956
g62
(dp957
g82
g83
ssg71
g951
sg64
(lp958
S'is_jython'
p959
asbag57
(g78
g59
NtRp960
(dp961
g62
(dp962
g89
g90
ssg71
g951
sg64
(lp963
S':'
asbag57
(g78
g59
NtRp964
(dp965
g62
(dp966
sg71
g951
sg64
(lp967
g57
(g58
g59
NtRp968
(dp969
g62
(dp970
g70
I4
ssg71
g964
sg64
(lp971
g100
asbasbasbag57
(g73
g59
NtRp972
(dp973
g62
(dp974
sg71
g637
sg64
(lp975
g57
(g78
g59
NtRp976
(dp977
g62
(dp978
g82
g83
ssg71
g972
sg64
(lp979
S'is_pypy'
p980
asbag57
(g78
g59
NtRp981
(dp982
g62
(dp983
g89
g90
ssg71
g972
sg64
(lp984
S':'
asbag57
(g78
g59
NtRp985
(dp986
g62
(dp987
sg71
g972
sg64
(lp988
g57
(g58
g59
NtRp989
(dp990
g62
(dp991
g70
I4
ssg71
g985
sg64
(lp992
g100
asbasbasbag57
(g73
g59
NtRp993
(dp994
g62
(dp995
sg71
g637
sg64
(lp996
g57
(g78
g59
NtRp997
(dp998
g62
(dp999
g82
g83
ssg71
g993
sg64
(lp1000
S'path_info'
p1001
asbag57
(g78
g59
NtRp1002
(dp1003
g62
(dp1004
g89
g90
ssg71
g993
sg64
(lp1005
S':'
asbag57
(g78
g59
NtRp1006
(dp1007
g62
(dp1008
sg71
g993
sg64
(lp1009
g57
(g58
g59
NtRp1010
(dp1011
g62
(dp1012
g70
I4
ssg71
g1006
sg64
(lp1013
S'/test/default/index'
p1014
asbasbasbag57
(g73
g59
NtRp1015
(dp1016
g62
(dp1017
sg71
g637
sg64
(lp1018
g57
(g78
g59
NtRp1019
(dp1020
g62
(dp1021
g82
g83
ssg71
g1015
sg64
(lp1022
S'query_string'
p1023
asbag57
(g78
g59
NtRp1024
(dp1025
g62
(dp1026
g89
g90
ssg71
g1015
sg64
(lp1027
S':'
asbag57
(g78
g59
NtRp1028
(dp1029
g62
(dp1030
sg71
g1015
sg64
(lp1031
g57
(g58
g59
NtRp1032
(dp1033
g62
(dp1034
g70
I4
ssg71
g1028
sg64
(lp1035
S''
asbasbasbag57
(g73
g59
NtRp1036
(dp1037
g62
(dp1038
sg71
g637
sg64
(lp1039
g57
(g78
g59
NtRp1040
(dp1041
g62
(dp1042
g82
g83
ssg71
g1036
sg64
(lp1043
S'remote_addr'
p1044
asbag57
(g78
g59
NtRp1045
(dp1046
g62
(dp1047
g89
g90
ssg71
g1036
sg64
(lp1048
S':'
asbag57
(g78
g59
NtRp1049
(dp1050
g62
(dp1051
sg71
g1036
sg64
(lp1052
g57
(g58
g59
NtRp1053
(dp1054
g62
(dp1055
g70
I4
ssg71
g1049
sg64
(lp1056
g190
asbasbasbag57
(g73
g59
NtRp1057
(dp1058
g62
(dp1059
sg71
g637
sg64
(lp1060
g57
(g78
g59
NtRp1061
(dp1062
g62
(dp1063
g82
g83
ssg71
g1057
sg64
(lp1064
S'remote_port'
p1065
asbag57
(g78
g59
NtRp1066
(dp1067
g62
(dp1068
g89
g90
ssg71
g1057
sg64
(lp1069
S':'
asbag57
(g78
g59
NtRp1070
(dp1071
g62
(dp1072
sg71
g1057
sg64
(lp1073
g57
(g58
g59
NtRp1074
(dp1075
g62
(dp1076
g70
I4
ssg71
g1070
sg64
(lp1077
S'56458'
p1078
asbasbasbag57
(g73
g59
NtRp1079
(dp1080
g62
(dp1081
sg71
g637
sg64
(lp1082
g57
(g78
g59
NtRp1083
(dp1084
g62
(dp1085
g82
g83
ssg71
g1079
sg64
(lp1086
S'request_method'
p1087
asbag57
(g78
g59
NtRp1088
(dp1089
g62
(dp1090
g89
g90
ssg71
g1079
sg64
(lp1091
S':'
asbag57
(g78
g59
NtRp1092
(dp1093
g62
(dp1094
sg71
g1079
sg64
(lp1095
g57
(g58
g59
NtRp1096
(dp1097
g62
(dp1098
g70
I4
ssg71
g1092
sg64
(lp1099
S'GET'
p1100
asbasbasbag57
(g73
g59
NtRp1101
(dp1102
g62
(dp1103
sg71
g637
sg64
(lp1104
g57
(g78
g59
NtRp1105
(dp1106
g62
(dp1107
g82
g83
ssg71
g1101
sg64
(lp1108
S'script_name'
p1109
asbag57
(g78
g59
NtRp1110
(dp1111
g62
(dp1112
g89
g90
ssg71
g1101
sg64
(lp1113
S':'
asbag57
(g78
g59
NtRp1114
(dp1115
g62
(dp1116
sg71
g1101
sg64
(lp1117
g57
(g58
g59
NtRp1118
(dp1119
g62
(dp1120
g70
I4
ssg71
g1114
sg64
(lp1121
S''
asbasbasbag57
(g73
g59
NtRp1122
(dp1123
g62
(dp1124
sg71
g637
sg64
(lp1125
g57
(g78
g59
NtRp1126
(dp1127
g62
(dp1128
g82
g83
ssg71
g1122
sg64
(lp1129
S'server_name'
p1130
asbag57
(g78
g59
NtRp1131
(dp1132
g62
(dp1133
g89
g90
ssg71
g1122
sg64
(lp1134
S':'
asbag57
(g78
g59
NtRp1135
(dp1136
g62
(dp1137
sg71
g1122
sg64
(lp1138
g57
(g58
g59
NtRp1139
(dp1140
g62
(dp1141
g70
I4
ssg71
g1135
sg64
(lp1142
S'hvn.vn'
p1143
asbasbasbag57
(g73
g59
NtRp1144
(dp1145
g62
(dp1146
sg71
g637
sg64
(lp1147
g57
(g78
g59
NtRp1148
(dp1149
g62
(dp1150
g82
g83
ssg71
g1144
sg64
(lp1151
S'server_port'
p1152
asbag57
(g78
g59
NtRp1153
(dp1154
g62
(dp1155
g89
g90
ssg71
g1144
sg64
(lp1156
S':'
asbag57
(g78
g59
NtRp1157
(dp1158
g62
(dp1159
sg71
g1144
sg64
(lp1160
g57
(g58
g59
NtRp1161
(dp1162
g62
(dp1163
g70
I4
ssg71
g1157
sg64
(lp1164
S'8000'
p1165
asbasbasbag57
(g73
g59
NtRp1166
(dp1167
g62
(dp1168
sg71
g637
sg64
(lp1169
g57
(g78
g59
NtRp1170
(dp1171
g62
(dp1172
g82
g83
ssg71
g1166
sg64
(lp1173
S'server_protocol'
p1174
asbag57
(g78
g59
NtRp1175
(dp1176
g62
(dp1177
g89
g90
ssg71
g1166
sg64
(lp1178
S':'
asbag57
(g78
g59
NtRp1179
(dp1180
g62
(dp1181
sg71
g1166
sg64
(lp1182
g57
(g58
g59
NtRp1183
(dp1184
g62
(dp1185
g70
I4
ssg71
g1179
sg64
(lp1186
S'HTTP/1.1'
p1187
asbasbasbag57
(g73
g59
NtRp1188
(dp1189
g62
(dp1190
sg71
g637
sg64
(lp1191
g57
(g78
g59
NtRp1192
(dp1193
g62
(dp1194
g82
g83
ssg71
g1188
sg64
(lp1195
S'server_software'
p1196
asbag57
(g78
g59
NtRp1197
(dp1198
g62
(dp1199
g89
g90
ssg71
g1188
sg64
(lp1200
S':'
asbag57
(g78
g59
NtRp1201
(dp1202
g62
(dp1203
sg71
g1188
sg64
(lp1204
g57
(g58
g59
NtRp1205
(dp1206
g62
(dp1207
g70
I4
ssg71
g1201
sg64
(lp1208
S'Rocket 1.2.4'
p1209
asbasbasbag57
(g73
g59
NtRp1210
(dp1211
g62
(dp1212
sg71
g637
sg64
(lp1213
g57
(g78
g59
NtRp1214
(dp1215
g62
(dp1216
g82
g83
ssg71
g1210
sg64
(lp1217
S'web2py_crontype'
p1218
asbag57
(g78
g59
NtRp1219
(dp1220
g62
(dp1221
g89
g90
ssg71
g1210
sg64
(lp1222
S':'
asbag57
(g78
g59
NtRp1223
(dp1224
g62
(dp1225
sg71
g1210
sg64
(lp1226
g57
(g58
g59
NtRp1227
(dp1228
g62
(dp1229
g70
I4
ssg71
g1223
sg64
(lp1230
S'hard'
p1231
asbasbasbag57
(g73
g59
NtRp1232
(dp1233
g62
(dp1234
sg71
g637
sg64
(lp1235
g57
(g78
g59
NtRp1236
(dp1237
g62
(dp1238
g82
g83
ssg71
g1232
sg64
(lp1239
S'web2py_path'
p1240
asbag57
(g78
g59
NtRp1241
(dp1242
g62
(dp1243
g89
g90
ssg71
g1232
sg64
(lp1244
S':'
asbag57
(g78
g59
NtRp1245
(dp1246
g62
(dp1247
sg71
g1232
sg64
(lp1248
g57
(g58
g59
NtRp1249
(dp1250
g62
(dp1251
g70
I4
ssg71
g1245
sg64
(lp1252
g684
asbasbasbag57
(g73
g59
NtRp1253
(dp1254
g62
(dp1255
sg71
g637
sg64
(lp1256
g57
(g78
g59
NtRp1257
(dp1258
g62
(dp1259
g82
g83
ssg71
g1253
sg64
(lp1260
S'web2py_version'
p1261
asbag57
(g78
g59
NtRp1262
(dp1263
g62
(dp1264
g89
g90
ssg71
g1253
sg64
(lp1265
S':'
asbag57
(g78
g59
NtRp1266
(dp1267
g62
(dp1268
sg71
g1253
sg64
(lp1269
g57
(g58
g59
NtRp1270
(dp1271
g62
(dp1272
g70
I4
ssg71
g1266
sg64
(lp1273
g57
(g66
g59
NtRp1274
(dp1275
g62
(dp1276
g70
I3
ssg71
Nsg64
(lp1277
g57
(g73
g59
NtRp1278
(dp1279
g62
(dp1280
sg71
g1274
sg64
(lp1281
g57
(g78
g59
NtRp1282
(dp1283
g62
(dp1284
sg71
g1278
sg64
(lp1285
g57
(g58
g59
NtRp1286
(dp1287
g62
(dp1288
g70
I3
ssg71
g1282
sg64
(lp1289
S'1'
asbasbasbag57
(g73
g59
NtRp1290
(dp1291
g62
(dp1292
sg71
g1274
sg64
(lp1293
g57
(g78
g59
NtRp1294
(dp1295
g62
(dp1296
sg71
g1290
sg64
(lp1297
g57
(g58
g59
NtRp1298
(dp1299
g62
(dp1300
g70
I3
ssg71
g1294
sg64
(lp1301
S'99'
p1302
asbasbasbag57
(g73
g59
NtRp1303
(dp1304
g62
(dp1305
sg71
g1274
sg64
(lp1306
g57
(g78
g59
NtRp1307
(dp1308
g62
(dp1309
sg71
g1303
sg64
(lp1310
g57
(g58
g59
NtRp1311
(dp1312
g62
(dp1313
g70
I3
ssg71
g1307
sg64
(lp1314
S'7'
asbasbasbag57
(g73
g59
NtRp1315
(dp1316
g62
(dp1317
sg71
g1274
sg64
(lp1318
g57
(g78
g59
NtRp1319
(dp1320
g62
(dp1321
sg71
g1315
sg64
(lp1322
g57
(g58
g59
NtRp1323
(dp1324
g62
(dp1325
g70
I3
ssg71
g1319
sg64
(lp1326
S'datetime.datetime(2012, 3, 4, 22, 12, 8)'
p1327
asbasbasbag57
(g73
g59
NtRp1328
(dp1329
g62
(dp1330
sg71
g1274
sg64
(lp1331
g57
(g78
g59
NtRp1332
(dp1333
g62
(dp1334
sg71
g1328
sg64
(lp1335
g57
(g58
g59
NtRp1336
(dp1337
g62
(dp1338
g70
I3
ssg71
g1332
sg64
(lp1339
S'stable'
p1340
asbasbasbasbasbasbasbag57
(g73
g59
NtRp1341
(dp1342
g62
(dp1343
sg71
g637
sg64
(lp1344
g57
(g78
g59
NtRp1345
(dp1346
g62
(dp1347
g82
g83
ssg71
g1341
sg64
(lp1348
S'wsgi_errors'
p1349
asbag57
(g78
g59
NtRp1350
(dp1351
g62
(dp1352
g89
g90
ssg71
g1341
sg64
(lp1353
S':'
asbag57
(g78
g59
NtRp1354
(dp1355
g62
(dp1356
sg71
g1341
sg64
(lp1357
g57
(g58
g59
NtRp1358
(dp1359
g62
(dp1360
g70
I4
ssg71
g1354
sg64
(lp1361
S"<open file '<stderr>', mode 'w' at 0xb76ea0d0>"
p1362
asbasbasbag57
(g73
g59
NtRp1363
(dp1364
g62
(dp1365
sg71
g637
sg64
(lp1366
g57
(g78
g59
NtRp1367
(dp1368
g62
(dp1369
g82
g83
ssg71
g1363
sg64
(lp1370
S'wsgi_file_wrapper'
p1371
asbag57
(g78
g59
NtRp1372
(dp1373
g62
(dp1374
g89
g90
ssg71
g1363
sg64
(lp1375
S':'
asbag57
(g78
g59
NtRp1376
(dp1377
g62
(dp1378
sg71
g1363
sg64
(lp1379
g57
(g58
g59
NtRp1380
(dp1381
g62
(dp1382
g70
I4
ssg71
g1376
sg64
(lp1383
S'<class wsgiref.util.FileWrapper at 0x8ff09ec>'
p1384
asbasbasbag57
(g73
g59
NtRp1385
(dp1386
g62
(dp1387
sg71
g637
sg64
(lp1388
g57
(g78
g59
NtRp1389
(dp1390
g62
(dp1391
g82
g83
ssg71
g1385
sg64
(lp1392
S'wsgi_input'
p1393
asbag57
(g78
g59
NtRp1394
(dp1395
g62
(dp1396
g89
g90
ssg71
g1385
sg64
(lp1397
S':'
asbag57
(g78
g59
NtRp1398
(dp1399
g62
(dp1400
sg71
g1385
sg64
(lp1401
g57
(g58
g59
NtRp1402
(dp1403
g62
(dp1404
g70
I4
ssg71
g1398
sg64
(lp1405
S'<socket._fileobject object at 0x9aad1ec>'
p1406
asbasbasbag57
(g73
g59
NtRp1407
(dp1408
g62
(dp1409
sg71
g637
sg64
(lp1410
g57
(g78
g59
NtRp1411
(dp1412
g62
(dp1413
g82
g83
ssg71
g1407
sg64
(lp1414
S'wsgi_multiprocess'
p1415
asbag57
(g78
g59
NtRp1416
(dp1417
g62
(dp1418
g89
g90
ssg71
g1407
sg64
(lp1419
S':'
asbag57
(g78
g59
NtRp1420
(dp1421
g62
(dp1422
sg71
g1407
sg64
(lp1423
g57
(g58
g59
NtRp1424
(dp1425
g62
(dp1426
g70
I4
ssg71
g1420
sg64
(lp1427
g100
asbasbasbag57
(g73
g59
NtRp1428
(dp1429
g62
(dp1430
sg71
g637
sg64
(lp1431
g57
(g78
g59
NtRp1432
(dp1433
g62
(dp1434
g82
g83
ssg71
g1428
sg64
(lp1435
S'wsgi_multithread'
p1436
asbag57
(g78
g59
NtRp1437
(dp1438
g62
(dp1439
g89
g90
ssg71
g1428
sg64
(lp1440
S':'
asbag57
(g78
g59
NtRp1441
(dp1442
g62
(dp1443
sg71
g1428
sg64
(lp1444
g57
(g58
g59
NtRp1445
(dp1446
g62
(dp1447
g70
I4
ssg71
g1441
sg64
(lp1448
S'True'
p1449
asbasbasbag57
(g73
g59
NtRp1450
(dp1451
g62
(dp1452
sg71
g637
sg64
(lp1453
g57
(g78
g59
NtRp1454
(dp1455
g62
(dp1456
g82
g83
ssg71
g1450
sg64
(lp1457
S'wsgi_run_once'
p1458
asbag57
(g78
g59
NtRp1459
(dp1460
g62
(dp1461
g89
g90
ssg71
g1450
sg64
(lp1462
S':'
asbag57
(g78
g59
NtRp1463
(dp1464
g62
(dp1465
sg71
g1450
sg64
(lp1466
g57
(g58
g59
NtRp1467
(dp1468
g62
(dp1469
g70
I4
ssg71
g1463
sg64
(lp1470
g100
asbasbasbag57
(g73
g59
NtRp1471
(dp1472
g62
(dp1473
sg71
g637
sg64
(lp1474
g57
(g78
g59
NtRp1475
(dp1476
g62
(dp1477
g82
g83
ssg71
g1471
sg64
(lp1478
S'wsgi_url_scheme'
p1479
asbag57
(g78
g59
NtRp1480
(dp1481
g62
(dp1482
g89
g90
ssg71
g1471
sg64
(lp1483
S':'
asbag57
(g78
g59
NtRp1484
(dp1485
g62
(dp1486
sg71
g1471
sg64
(lp1487
g57
(g58
g59
NtRp1488
(dp1489
g62
(dp1490
g70
I4
ssg71
g1484
sg64
(lp1491
S'http'
p1492
asbasbasbag57
(g73
g59
NtRp1493
(dp1494
g62
(dp1495
sg71
g637
sg64
(lp1496
g57
(g78
g59
NtRp1497
(dp1498
g62
(dp1499
g82
g83
ssg71
g1493
sg64
(lp1500
S'wsgi_version'
p1501
asbag57
(g78
g59
NtRp1502
(dp1503
g62
(dp1504
g89
g90
ssg71
g1493
sg64
(lp1505
S':'
asbag57
(g78
g59
NtRp1506
(dp1507
g62
(dp1508
sg71
g1493
sg64
(lp1509
g57
(g58
g59
NtRp1510
(dp1511
g62
(dp1512
g70
I4
ssg71
g1506
sg64
(lp1513
g57
(g66
g59
NtRp1514
(dp1515
g62
(dp1516
g70
I3
ssg71
Nsg64
(lp1517
g57
(g73
g59
NtRp1518
(dp1519
g62
(dp1520
sg71
g1514
sg64
(lp1521
g57
(g78
g59
NtRp1522
(dp1523
g62
(dp1524
sg71
g1518
sg64
(lp1525
g57
(g58
g59
NtRp1526
(dp1527
g62
(dp1528
g70
I3
ssg71
g1522
sg64
(lp1529
S'1'
asbasbasbag57
(g73
g59
NtRp1530
(dp1531
g62
(dp1532
sg71
g1514
sg64
(lp1533
g57
(g78
g59
NtRp1534
(dp1535
g62
(dp1536
sg71
g1530
sg64
(lp1537
g57
(g58
g59
NtRp1538
(dp1539
g62
(dp1540
g70
I3
ssg71
g1534
sg64
(lp1541
S'0'
asbasbasbasbasbasbasbasbasbasbasbag57
(g73
g59
NtRp1542
(dp1543
g62
(dp1544
sg71
g67
sg64
(lp1545
g57
(g78
g59
NtRp1546
(dp1547
g62
(dp1548
g82
g83
ssg71
g1542
sg64
(lp1549
S'extension'
p1550
asbag57
(g78
g59
NtRp1551
(dp1552
g62
(dp1553
g89
g90
ssg71
g1542
sg64
(lp1554
S':'
asbag57
(g78
g59
NtRp1555
(dp1556
g62
(dp1557
sg71
g1542
sg64
(lp1558
g57
(g58
g59
NtRp1559
(dp1560
g62
(dp1561
g70
I5
ssg71
g1555
sg64
(lp1562
S'html'
p1563
asbasbasbag57
(g73
g59
NtRp1564
(dp1565
g62
(dp1566
sg71
g67
sg64
(lp1567
g57
(g78
g59
NtRp1568
(dp1569
g62
(dp1570
g82
g83
ssg71
g1564
sg64
(lp1571
S'folder'
p1572
asbag57
(g78
g59
NtRp1573
(dp1574
g62
(dp1575
g89
g90
ssg71
g1564
sg64
(lp1576
S':'
asbag57
(g78
g59
NtRp1577
(dp1578
g62
(dp1579
sg71
g1564
sg64
(lp1580
g57
(g58
g59
NtRp1581
(dp1582
g62
(dp1583
g70
I5
ssg71
g1577
sg64
(lp1584
S'/home/famihug/Apps/web2py/applications/test/'
p1585
asbasbasbag57
(g73
g59
NtRp1586
(dp1587
g62
(dp1588
sg71
g67
sg64
(lp1589
g57
(g78
g59
NtRp1590
(dp1591
g62
(dp1592
g82
g83
ssg71
g1586
sg64
(lp1593
S'function'
p1594
asbag57
(g78
g59
NtRp1595
(dp1596
g62
(dp1597
g89
g90
ssg71
g1586
sg64
(lp1598
S':'
asbag57
(g78
g59
NtRp1599
(dp1600
g62
(dp1601
sg71
g1586
sg64
(lp1602
g57
(g58
g59
NtRp1603
(dp1604
g62
(dp1605
g70
I5
ssg71
g1599
sg64
(lp1606
S'index'
p1607
asbasbasbag57
(g73
g59
NtRp1608
(dp1609
g62
(dp1610
sg71
g67
sg64
(lp1611
g57
(g78
g59
NtRp1612
(dp1613
g62
(dp1614
g82
g83
ssg71
g1608
sg64
(lp1615
S'get_vars'
p1616
asbag57
(g78
g59
NtRp1617
(dp1618
g62
(dp1619
g89
g90
ssg71
g1608
sg64
(lp1620
S':'
asbag57
(g78
g59
NtRp1621
(dp1622
g62
(dp1623
sg71
g1608
sg64
(lp1624
g57
(g58
g59
NtRp1625
(dp1626
g62
(dp1627
g70
I5
ssg71
g1621
sg64
(lp1628
g57
(g66
g59
NtRp1629
(dp1630
g62
(dp1631
g70
I4
ssg71
Nsg64
(lp1632
sbasbasbasbag57
(g73
g59
NtRp1633
(dp1634
g62
(dp1635
sg71
g67
sg64
(lp1636
g57
(g78
g59
NtRp1637
(dp1638
g62
(dp1639
g82
g83
ssg71
g1633
sg64
(lp1640
S'global_settings'
p1641
asbag57
(g78
g59
NtRp1642
(dp1643
g62
(dp1644
g89
g90
ssg71
g1633
sg64
(lp1645
S':'
asbag57
(g78
g59
NtRp1646
(dp1647
g62
(dp1648
sg71
g1633
sg64
(lp1649
g57
(g58
g59
NtRp1650
(dp1651
g62
(dp1652
g70
I5
ssg71
g1646
sg64
(lp1653
g57
(g66
g59
NtRp1654
(dp1655
g62
(dp1656
g70
I4
ssg71
Nsg64
(lp1657
g57
(g73
g59
NtRp1658
(dp1659
g62
(dp1660
sg71
g1654
sg64
(lp1661
g57
(g78
g59
NtRp1662
(dp1663
g62
(dp1664
g82
g83
ssg71
g1658
sg64
(lp1665
g649
asbag57
(g78
g59
NtRp1666
(dp1667
g62
(dp1668
g89
g90
ssg71
g1658
sg64
(lp1669
S':'
asbag57
(g78
g59
NtRp1670
(dp1671
g62
(dp1672
sg71
g1658
sg64
(lp1673
g57
(g58
g59
NtRp1674
(dp1675
g62
(dp1676
g70
I4
ssg71
g1670
sg64
(lp1677
S"set(['/home/famihug/Apps/web2py/applications/welcome/', '/home/famihug/Apps/web2py/applications/test/', '/home/famihug/Apps/web2py/applications/examples/', '/home/famihug/Apps/web2py/applications/admin/'])"
p1678
asbasbasbag57
(g73
g59
NtRp1679
(dp1680
g62
(dp1681
sg71
g1654
sg64
(lp1682
g57
(g78
g59
NtRp1683
(dp1684
g62
(dp1685
g82
g83
ssg71
g1679
sg64
(lp1686
g671
asbag57
(g78
g59
NtRp1687
(dp1688
g62
(dp1689
g89
g90
ssg71
g1679
sg64
(lp1690
S':'
asbag57
(g78
g59
NtRp1691
(dp1692
g62
(dp1693
sg71
g1679
sg64
(lp1694
g57
(g58
g59
NtRp1695
(dp1696
g62
(dp1697
g70
I4
ssg71
g1691
sg64
(lp1698
g684
asbasbasbag57
(g73
g59
NtRp1699
(dp1700
g62
(dp1701
sg71
g1654
sg64
(lp1702
g57
(g78
g59
NtRp1703
(dp1704
g62
(dp1705
g82
g83
ssg71
g1699
sg64
(lp1706
g693
asbag57
(g78
g59
NtRp1707
(dp1708
g62
(dp1709
g89
g90
ssg71
g1699
sg64
(lp1710
S':'
asbag57
(g78
g59
NtRp1711
(dp1712
g62
(dp1713
sg71
g1699
sg64
(lp1714
g57
(g58
g59
NtRp1715
(dp1716
g62
(dp1717
g70
I4
ssg71
g1711
sg64
(lp1718
g57
(g66
g59
NtRp1719
(dp1720
g62
(dp1721
g70
I3
ssg71
Nsg64
(lp1722
sbasbasbasbag57
(g73
g59
NtRp1723
(dp1724
g62
(dp1725
sg71
g1654
sg64
(lp1726
g57
(g78
g59
NtRp1727
(dp1728
g62
(dp1729
g82
g83
ssg71
g1723
sg64
(lp1730
g718
asbag57
(g78
g59
NtRp1731
(dp1732
g62
(dp1733
g89
g90
ssg71
g1723
sg64
(lp1734
S':'
asbag57
(g78
g59
NtRp1735
(dp1736
g62
(dp1737
sg71
g1723
sg64
(lp1738
g57
(g58
g59
NtRp1739
(dp1740
g62
(dp1741
g70
I4
ssg71
g1735
sg64
(lp1742
S"<Values at 0x90497ec: {'verbose': False, 'ip': '127.0.0.1', 'shutdown_timeout': 5, 'taskbar': False, 'nocron': False, 'pid_filename': 'httpserver.pid', 'maxthreads': None, 'softcron': False, 'server_name': 'hvn.vn', 'bpython': False, 'nogui': False, 'port': 8000, 'extcron': False, 'debuglevel': 30, 'test': None, 'folder': '/home/famihug/Apps/web2py', 'config': '', 'import_models': False, 'winservice': '', 'shell': None, 'run': '', 'log_filename': 'httpserver.log', 'args': [''], 'socket_timeout': 5, 'ssl_ca_certificate': None, 'scheduler': None, 'profiler_filename': None, 'ssl_private_key': '', 'password': 'hehehe', 'request_queue_size': 5, 'ssl_certificate': '', 'cronjob': False, 'numthreads': None, 'quiet': False, 'interfaces': None, 'minthreads': None, 'timeout': 10, 'plain': False, 'nobanner': False}>"
p1743
asbasbasbag57
(g73
g59
NtRp1744
(dp1745
g62
(dp1746
sg71
g1654
sg64
(lp1747
g57
(g78
g59
NtRp1748
(dp1749
g62
(dp1750
g82
g83
ssg71
g1744
sg64
(lp1751
g740
asbag57
(g78
g59
NtRp1752
(dp1753
g62
(dp1754
g89
g90
ssg71
g1744
sg64
(lp1755
S':'
asbag57
(g78
g59
NtRp1756
(dp1757
g62
(dp1758
sg71
g1744
sg64
(lp1759
g57
(g58
g59
NtRp1760
(dp1761
g62
(dp1762
g70
I4
ssg71
g1756
sg64
(lp1763
S'set([])'
p1764
asbasbasbag57
(g73
g59
NtRp1765
(dp1766
g62
(dp1767
sg71
g1654
sg64
(lp1768
g57
(g78
g59
NtRp1769
(dp1770
g62
(dp1771
g82
g83
ssg71
g1765
sg64
(lp1772
g762
asbag57
(g78
g59
NtRp1773
(dp1774
g62
(dp1775
g89
g90
ssg71
g1765
sg64
(lp1776
S':'
asbag57
(g78
g59
NtRp1777
(dp1778
g62
(dp1779
sg71
g1765
sg64
(lp1780
g57
(g58
g59
NtRp1781
(dp1782
g62
(dp1783
g70
I4
ssg71
g1777
sg64
(lp1784
g100
asbasbasbag57
(g73
g59
NtRp1785
(dp1786
g62
(dp1787
sg71
g1654
sg64
(lp1788
g57
(g78
g59
NtRp1789
(dp1790
g62
(dp1791
g82
g83
ssg71
g1785
sg64
(lp1792
g783
asbag57
(g78
g59
NtRp1793
(dp1794
g62
(dp1795
g89
g90
ssg71
g1785
sg64
(lp1796
S':'
asbag57
(g78
g59
NtRp1797
(dp1798
g62
(dp1799
sg71
g1785
sg64
(lp1800
g57
(g58
g59
NtRp1801
(dp1802
g62
(dp1803
g70
I4
ssg71
g1797
sg64
(lp1804
g796
asbasbasbag57
(g73
g59
NtRp1805
(dp1806
g62
(dp1807
sg71
g1654
sg64
(lp1808
g57
(g78
g59
NtRp1809
(dp1810
g62
(dp1811
g82
g83
ssg71
g1805
sg64
(lp1812
g959
asbag57
(g78
g59
NtRp1813
(dp1814
g62
(dp1815
g89
g90
ssg71
g1805
sg64
(lp1816
S':'
asbag57
(g78
g59
NtRp1817
(dp1818
g62
(dp1819
sg71
g1805
sg64
(lp1820
g57
(g58
g59
NtRp1821
(dp1822
g62
(dp1823
g70
I4
ssg71
g1817
sg64
(lp1824
g100
asbasbasbag57
(g73
g59
NtRp1825
(dp1826
g62
(dp1827
sg71
g1654
sg64
(lp1828
g57
(g78
g59
NtRp1829
(dp1830
g62
(dp1831
g82
g83
ssg71
g1825
sg64
(lp1832
g980
asbag57
(g78
g59
NtRp1833
(dp1834
g62
(dp1835
g89
g90
ssg71
g1825
sg64
(lp1836
S':'
asbag57
(g78
g59
NtRp1837
(dp1838
g62
(dp1839
sg71
g1825
sg64
(lp1840
g57
(g58
g59
NtRp1841
(dp1842
g62
(dp1843
g70
I4
ssg71
g1837
sg64
(lp1844
g100
asbasbasbag57
(g73
g59
NtRp1845
(dp1846
g62
(dp1847
sg71
g1654
sg64
(lp1848
g57
(g78
g59
NtRp1849
(dp1850
g62
(dp1851
g82
g83
ssg71
g1845
sg64
(lp1852
g1218
asbag57
(g78
g59
NtRp1853
(dp1854
g62
(dp1855
g89
g90
ssg71
g1845
sg64
(lp1856
S':'
asbag57
(g78
g59
NtRp1857
(dp1858
g62
(dp1859
sg71
g1845
sg64
(lp1860
g57
(g58
g59
NtRp1861
(dp1862
g62
(dp1863
g70
I4
ssg71
g1857
sg64
(lp1864
g1231
asbasbasbag57
(g73
g59
NtRp1865
(dp1866
g62
(dp1867
sg71
g1654
sg64
(lp1868
g57
(g78
g59
NtRp1869
(dp1870
g62
(dp1871
g82
g83
ssg71
g1865
sg64
(lp1872
g1261
asbag57
(g78
g59
NtRp1873
(dp1874
g62
(dp1875
g89
g90
ssg71
g1865
sg64
(lp1876
S':'
asbag57
(g78
g59
NtRp1877
(dp1878
g62
(dp1879
sg71
g1865
sg64
(lp1880
g57
(g58
g59
NtRp1881
(dp1882
g62
(dp1883
g70
I4
ssg71
g1877
sg64
(lp1884
g57
(g66
g59
NtRp1885
(dp1886
g62
(dp1887
g70
I3
ssg71
Nsg64
(lp1888
g57
(g73
g59
NtRp1889
(dp1890
g62
(dp1891
sg71
g1885
sg64
(lp1892
g57
(g78
g59
NtRp1893
(dp1894
g62
(dp1895
sg71
g1889
sg64
(lp1896
g57
(g58
g59
NtRp1897
(dp1898
g62
(dp1899
g70
I3
ssg71
g1893
sg64
(lp1900
S'1'
asbasbasbag57
(g73
g59
NtRp1901
(dp1902
g62
(dp1903
sg71
g1885
sg64
(lp1904
g57
(g78
g59
NtRp1905
(dp1906
g62
(dp1907
sg71
g1901
sg64
(lp1908
g57
(g58
g59
NtRp1909
(dp1910
g62
(dp1911
g70
I3
ssg71
g1905
sg64
(lp1912
S'99'
p1913
asbasbasbag57
(g73
g59
NtRp1914
(dp1915
g62
(dp1916
sg71
g1885
sg64
(lp1917
g57
(g78
g59
NtRp1918
(dp1919
g62
(dp1920
sg71
g1914
sg64
(lp1921
g57
(g58
g59
NtRp1922
(dp1923
g62
(dp1924
g70
I3
ssg71
g1918
sg64
(lp1925
S'7'
asbasbasbag57
(g73
g59
NtRp1926
(dp1927
g62
(dp1928
sg71
g1885
sg64
(lp1929
g57
(g78
g59
NtRp1930
(dp1931
g62
(dp1932
sg71
g1926
sg64
(lp1933
g57
(g58
g59
NtRp1934
(dp1935
g62
(dp1936
g70
I3
ssg71
g1930
sg64
(lp1937
S'datetime.datetime(2012, 3, 4, 22, 12, 8)'
p1938
asbasbasbag57
(g73
g59
NtRp1939
(dp1940
g62
(dp1941
sg71
g1885
sg64
(lp1942
g57
(g78
g59
NtRp1943
(dp1944
g62
(dp1945
sg71
g1939
sg64
(lp1946
g57
(g58
g59
NtRp1947
(dp1948
g62
(dp1949
g70
I3
ssg71
g1943
sg64
(lp1950
g1340
asbasbasbasbasbasbasbasbasbasbasbag57
(g73
g59
NtRp1951
(dp1952
g62
(dp1953
sg71
g67
sg64
(lp1954
g57
(g78
g59
NtRp1955
(dp1956
g62
(dp1957
g82
g83
ssg71
g1951
sg64
(lp1958
S'is_https'
p1959
asbag57
(g78
g59
NtRp1960
(dp1961
g62
(dp1962
g89
g90
ssg71
g1951
sg64
(lp1963
S':'
asbag57
(g78
g59
NtRp1964
(dp1965
g62
(dp1966
sg71
g1951
sg64
(lp1967
g57
(g58
g59
NtRp1968
(dp1969
g62
(dp1970
g70
I5
ssg71
g1964
sg64
(lp1971
g100
asbasbasbag57
(g73
g59
NtRp1972
(dp1973
g62
(dp1974
sg71
g67
sg64
(lp1975
g57
(g78
g59
NtRp1976
(dp1977
g62
(dp1978
g82
g83
ssg71
g1972
sg64
(lp1979
S'is_local'
p1980
asbag57
(g78
g59
NtRp1981
(dp1982
g62
(dp1983
g89
g90
ssg71
g1972
sg64
(lp1984
S':'
asbag57
(g78
g59
NtRp1985
(dp1986
g62
(dp1987
sg71
g1972
sg64
(lp1988
g57
(g58
g59
NtRp1989
(dp1990
g62
(dp1991
g70
I5
ssg71
g1985
sg64
(lp1992
g1449
asbasbasbag57
(g73
g59
NtRp1993
(dp1994
g62
(dp1995
sg71
g67
sg64
(lp1996
g57
(g78
g59
NtRp1997
(dp1998
g62
(dp1999
g82
g83
ssg71
g1993
sg64
(lp2000
S'is_restful'
p2001
asbag57
(g78
g59
NtRp2002
(dp2003
g62
(dp2004
g89
g90
ssg71
g1993
sg64
(lp2005
S':'
asbag57
(g78
g59
NtRp2006
(dp2007
g62
(dp2008
sg71
g1993
sg64
(lp2009
g57
(g58
g59
NtRp2010
(dp2011
g62
(dp2012
g70
I5
ssg71
g2006
sg64
(lp2013
g100
asbasbasbag57
(g73
g59
NtRp2014
(dp2015
g62
(dp2016
sg71
g67
sg64
(lp2017
g57
(g78
g59
NtRp2018
(dp2019
g62
(dp2020
g82
g83
ssg71
g2014
sg64
(lp2021
S'now'
p2022
asbag57
(g78
g59
NtRp2023
(dp2024
g62
(dp2025
g89
g90
ssg71
g2014
sg64
(lp2026
S':'
asbag57
(g78
g59
NtRp2027
(dp2028
g62
(dp2029
sg71
g2014
sg64
(lp2030
g57
(g58
g59
NtRp2031
(dp2032
g62
(dp2033
g70
I5
ssg71
g2027
sg64
(lp2034
S'datetime.datetime(2012, 7, 3, 11, 47, 58, 607345)'
p2035
asbasbasbag57
(g73
g59
NtRp2036
(dp2037
g62
(dp2038
sg71
g67
sg64
(lp2039
g57
(g78
g59
NtRp2040
(dp2041
g62
(dp2042
g82
g83
ssg71
g2036
sg64
(lp2043
S'post_vars'
p2044
asbag57
(g78
g59
NtRp2045
(dp2046
g62
(dp2047
g89
g90
ssg71
g2036
sg64
(lp2048
S':'
asbag57
(g78
g59
NtRp2049
(dp2050
g62
(dp2051
sg71
g2036
sg64
(lp2052
g57
(g58
g59
NtRp2053
(dp2054
g62
(dp2055
g70
I5
ssg71
g2049
sg64
(lp2056
g57
(g66
g59
NtRp2057
(dp2058
g62
(dp2059
g70
I4
ssg71
Nsg64
(lp2060
sbasbasbasbag57
(g73
g59
NtRp2061
(dp2062
g62
(dp2063
sg71
g67
sg64
(lp2064
g57
(g78
g59
NtRp2065
(dp2066
g62
(dp2067
g82
g83
ssg71
g2061
sg64
(lp2068
S'url'
p2069
asbag57
(g78
g59
NtRp2070
(dp2071
g62
(dp2072
g89
g90
ssg71
g2061
sg64
(lp2073
S':'
asbag57
(g78
g59
NtRp2074
(dp2075
g62
(dp2076
sg71
g2061
sg64
(lp2077
g57
(g58
g59
NtRp2078
(dp2079
g62
(dp2080
g70
I5
ssg71
g2074
sg64
(lp2081
S'/test/default/index'
p2082
asbasbasbag57
(g73
g59
NtRp2083
(dp2084
g62
(dp2085
sg71
g67
sg64
(lp2086
g57
(g78
g59
NtRp2087
(dp2088
g62
(dp2089
g82
g83
ssg71
g2083
sg64
(lp2090
S'utcnow'
p2091
asbag57
(g78
g59
NtRp2092
(dp2093
g62
(dp2094
g89
g90
ssg71
g2083
sg64
(lp2095
S':'
asbag57
(g78
g59
NtRp2096
(dp2097
g62
(dp2098
sg71
g2083
sg64
(lp2099
g57
(g58
g59
NtRp2100
(dp2101
g62
(dp2102
g70
I5
ssg71
g2096
sg64
(lp2103
S'datetime.datetime(2012, 7, 3, 4, 47, 58, 607379)'
p2104
asbasbasbag57
(g73
g59
NtRp2105
(dp2106
g62
(dp2107
sg71
g67
sg64
(lp2108
g57
(g78
g59
NtRp2109
(dp2110
g62
(dp2111
g82
g83
ssg71
g2105
sg64
(lp2112
S'uuid'
p2113
asbag57
(g78
g59
NtRp2114
(dp2115
g62
(dp2116
g89
g90
ssg71
g2105
sg64
(lp2117
S':'
asbag57
(g78
g59
NtRp2118
(dp2119
g62
(dp2120
sg71
g2105
sg64
(lp2121
g57
(g58
g59
NtRp2122
(dp2123
g62
(dp2124
g70
I5
ssg71
g2118
sg64
(lp2125
S'test/127.0.0.1.2012-07-03.11-47-58.926b5e24-3edc-4521-ab50-f3c9a123524c'
p2126
asbasbasbag57
(g73
g59
NtRp2127
(dp2128
g62
(dp2129
sg71
g67
sg64
(lp2130
g57
(g78
g59
NtRp2131
(dp2132
g62
(dp2133
g82
g83
ssg71
g2127
sg64
(lp2134
S'vars'
p2135
asbag57
(g78
g59
NtRp2136
(dp2137
g62
(dp2138
g89
g90
ssg71
g2127
sg64
(lp2139
S':'
asbag57
(g78
g59
NtRp2140
(dp2141
g62
(dp2142
sg71
g2127
sg64
(lp2143
g57
(g58
g59
NtRp2144
(dp2145
g62
(dp2146
g70
I5
ssg71
g2140
sg64
(lp2147
g57
(g66
g59
NtRp2148
(dp2149
g62
(dp2150
g70
I4
ssg71
Nsg64
(lp2151
sbasbasbasbag57
(g73
g59
NtRp2152
(dp2153
g62
(dp2154
sg71
g67
sg64
(lp2155
g57
(g78
g59
NtRp2156
(dp2157
g62
(dp2158
g82
g83
ssg71
g2152
sg64
(lp2159
S'wsgi'
p2160
asbag57
(g78
g59
NtRp2161
(dp2162
g62
(dp2163
g89
g90
ssg71
g2152
sg64
(lp2164
S':'
asbag57
(g78
g59
NtRp2165
(dp2166
g62
(dp2167
sg71
g2152
sg64
(lp2168
g57
(g58
g59
NtRp2169
(dp2170
g62
(dp2171
g70
I5
ssg71
g2165
sg64
(lp2172
g57
(g66
g59
NtRp2173
(dp2174
g62
(dp2175
g70
I4
ssg71
Nsg64
(lp2176
g57
(g73
g59
NtRp2177
(dp2178
g62
(dp2179
sg71
g2173
sg64
(lp2180
g57
(g78
g59
NtRp2181
(dp2182
g62
(dp2183
g82
g83
ssg71
g2177
sg64
(lp2184
S'environ'
p2185
asbag57
(g78
g59
NtRp2186
(dp2187
g62
(dp2188
g89
g90
ssg71
g2177
sg64
(lp2189
S':'
asbag57
(g78
g59
NtRp2190
(dp2191
g62
(dp2192
sg71
g2177
sg64
(lp2193
g57
(g58
g59
NtRp2194
(dp2195
g62
(dp2196
g70
I4
ssg71
g2190
sg64
(lp2197
g57
(g66
g59
NtRp2198
(dp2199
g62
(dp2200
g70
I3
ssg71
Nsg64
(lp2201
g57
(g73
g59
NtRp2202
(dp2203
g62
(dp2204
sg71
g2198
sg64
(lp2205
g57
(g78
g59
NtRp2206
(dp2207
g62
(dp2208
g82
g83
ssg71
g2202
sg64
(lp2209
S'HTTP_ACCEPT'
p2210
asbag57
(g78
g59
NtRp2211
(dp2212
g62
(dp2213
g89
g90
ssg71
g2202
sg64
(lp2214
S':'
asbag57
(g78
g59
NtRp2215
(dp2216
g62
(dp2217
sg71
g2202
sg64
(lp2218
g57
(g58
g59
NtRp2219
(dp2220
g62
(dp2221
g70
I3
ssg71
g2215
sg64
(lp2222
g818
asbasbasbag57
(g73
g59
NtRp2223
(dp2224
g62
(dp2225
sg71
g2198
sg64
(lp2226
g57
(g78
g59
NtRp2227
(dp2228
g62
(dp2229
g82
g83
ssg71
g2223
sg64
(lp2230
S'HTTP_ACCEPT_ENCODING'
p2231
asbag57
(g78
g59
NtRp2232
(dp2233
g62
(dp2234
g89
g90
ssg71
g2223
sg64
(lp2235
S':'
asbag57
(g78
g59
NtRp2236
(dp2237
g62
(dp2238
sg71
g2223
sg64
(lp2239
g57
(g58
g59
NtRp2240
(dp2241
g62
(dp2242
g70
I3
ssg71
g2236
sg64
(lp2243
g840
asbasbasbag57
(g73
g59
NtRp2244
(dp2245
g62
(dp2246
sg71
g2198
sg64
(lp2247
g57
(g78
g59
NtRp2248
(dp2249
g62
(dp2250
g82
g83
ssg71
g2244
sg64
(lp2251
S'HTTP_ACCEPT_LANGUAGE'
p2252
asbag57
(g78
g59
NtRp2253
(dp2254
g62
(dp2255
g89
g90
ssg71
g2244
sg64
(lp2256
S':'
asbag57
(g78
g59
NtRp2257
(dp2258
g62
(dp2259
sg71
g2244
sg64
(lp2260
g57
(g58
g59
NtRp2261
(dp2262
g62
(dp2263
g70
I3
ssg71
g2257
sg64
(lp2264
g862
asbasbasbag57
(g73
g59
NtRp2265
(dp2266
g62
(dp2267
sg71
g2198
sg64
(lp2268
g57
(g78
g59
NtRp2269
(dp2270
g62
(dp2271
g82
g83
ssg71
g2265
sg64
(lp2272
S'HTTP_CONNECTION'
p2273
asbag57
(g78
g59
NtRp2274
(dp2275
g62
(dp2276
g89
g90
ssg71
g2265
sg64
(lp2277
S':'
asbag57
(g78
g59
NtRp2278
(dp2279
g62
(dp2280
sg71
g2265
sg64
(lp2281
g57
(g58
g59
NtRp2282
(dp2283
g62
(dp2284
g70
I3
ssg71
g2278
sg64
(lp2285
g884
asbasbasbag57
(g73
g59
NtRp2286
(dp2287
g62
(dp2288
sg71
g2198
sg64
(lp2289
g57
(g78
g59
NtRp2290
(dp2291
g62
(dp2292
g82
g83
ssg71
g2286
sg64
(lp2293
S'HTTP_COOKIE'
p2294
asbag57
(g78
g59
NtRp2295
(dp2296
g62
(dp2297
g89
g90
ssg71
g2286
sg64
(lp2298
S':'
asbag57
(g78
g59
NtRp2299
(dp2300
g62
(dp2301
sg71
g2286
sg64
(lp2302
g57
(g58
g59
NtRp2303
(dp2304
g62
(dp2305
g70
I3
ssg71
g2299
sg64
(lp2306
g906
asbasbasbag57
(g73
g59
NtRp2307
(dp2308
g62
(dp2309
sg71
g2198
sg64
(lp2310
g57
(g78
g59
NtRp2311
(dp2312
g62
(dp2313
g82
g83
ssg71
g2307
sg64
(lp2314
S'HTTP_HOST'
p2315
asbag57
(g78
g59
NtRp2316
(dp2317
g62
(dp2318
g89
g90
ssg71
g2307
sg64
(lp2319
S':'
asbag57
(g78
g59
NtRp2320
(dp2321
g62
(dp2322
sg71
g2307
sg64
(lp2323
g57
(g58
g59
NtRp2324
(dp2325
g62
(dp2326
g70
I3
ssg71
g2320
sg64
(lp2327
g928
asbasbasbag57
(g73
g59
NtRp2328
(dp2329
g62
(dp2330
sg71
g2198
sg64
(lp2331
g57
(g78
g59
NtRp2332
(dp2333
g62
(dp2334
g82
g83
ssg71
g2328
sg64
(lp2335
S'HTTP_USER_AGENT'
p2336
asbag57
(g78
g59
NtRp2337
(dp2338
g62
(dp2339
g89
g90
ssg71
g2328
sg64
(lp2340
S':'
asbag57
(g78
g59
NtRp2341
(dp2342
g62
(dp2343
sg71
g2328
sg64
(lp2344
g57
(g58
g59
NtRp2345
(dp2346
g62
(dp2347
g70
I3
ssg71
g2341
sg64
(lp2348
g950
asbasbasbag57
(g73
g59
NtRp2349
(dp2350
g62
(dp2351
sg71
g2198
sg64
(lp2352
g57
(g78
g59
NtRp2353
(dp2354
g62
(dp2355
g82
g83
ssg71
g2349
sg64
(lp2356
S'PATH_INFO'
p2357
asbag57
(g78
g59
NtRp2358
(dp2359
g62
(dp2360
g89
g90
ssg71
g2349
sg64
(lp2361
S':'
asbag57
(g78
g59
NtRp2362
(dp2363
g62
(dp2364
sg71
g2349
sg64
(lp2365
g57
(g58
g59
NtRp2366
(dp2367
g62
(dp2368
g70
I3
ssg71
g2362
sg64
(lp2369
g1014
asbasbasbag57
(g73
g59
NtRp2370
(dp2371
g62
(dp2372
sg71
g2198
sg64
(lp2373
g57
(g78
g59
NtRp2374
(dp2375
g62
(dp2376
g82
g83
ssg71
g2370
sg64
(lp2377
S'QUERY_STRING'
p2378
asbag57
(g78
g59
NtRp2379
(dp2380
g62
(dp2381
g89
g90
ssg71
g2370
sg64
(lp2382
S':'
asbag57
(g78
g59
NtRp2383
(dp2384
g62
(dp2385
sg71
g2370
sg64
(lp2386
g57
(g58
g59
NtRp2387
(dp2388
g62
(dp2389
g70
I3
ssg71
g2383
sg64
(lp2390
S''
asbasbasbag57
(g73
g59
NtRp2391
(dp2392
g62
(dp2393
sg71
g2198
sg64
(lp2394
g57
(g78
g59
NtRp2395
(dp2396
g62
(dp2397
g82
g83
ssg71
g2391
sg64
(lp2398
S'REMOTE_ADDR'
p2399
asbag57
(g78
g59
NtRp2400
(dp2401
g62
(dp2402
g89
g90
ssg71
g2391
sg64
(lp2403
S':'
asbag57
(g78
g59
NtRp2404
(dp2405
g62
(dp2406
sg71
g2391
sg64
(lp2407
g57
(g58
g59
NtRp2408
(dp2409
g62
(dp2410
g70
I3
ssg71
g2404
sg64
(lp2411
g190
asbasbasbag57
(g73
g59
NtRp2412
(dp2413
g62
(dp2414
sg71
g2198
sg64
(lp2415
g57
(g78
g59
NtRp2416
(dp2417
g62
(dp2418
g82
g83
ssg71
g2412
sg64
(lp2419
S'REMOTE_PORT'
p2420
asbag57
(g78
g59
NtRp2421
(dp2422
g62
(dp2423
g89
g90
ssg71
g2412
sg64
(lp2424
S':'
asbag57
(g78
g59
NtRp2425
(dp2426
g62
(dp2427
sg71
g2412
sg64
(lp2428
g57
(g58
g59
NtRp2429
(dp2430
g62
(dp2431
g70
I3
ssg71
g2425
sg64
(lp2432
g1078
asbasbasbag57
(g73
g59
NtRp2433
(dp2434
g62
(dp2435
sg71
g2198
sg64
(lp2436
g57
(g78
g59
NtRp2437
(dp2438
g62
(dp2439
g82
g83
ssg71
g2433
sg64
(lp2440
S'REQUEST_METHOD'
p2441
asbag57
(g78
g59
NtRp2442
(dp2443
g62
(dp2444
g89
g90
ssg71
g2433
sg64
(lp2445
S':'
asbag57
(g78
g59
NtRp2446
(dp2447
g62
(dp2448
sg71
g2433
sg64
(lp2449
g57
(g58
g59
NtRp2450
(dp2451
g62
(dp2452
g70
I3
ssg71
g2446
sg64
(lp2453
g1100
asbasbasbag57
(g73
g59
NtRp2454
(dp2455
g62
(dp2456
sg71
g2198
sg64
(lp2457
g57
(g78
g59
NtRp2458
(dp2459
g62
(dp2460
g82
g83
ssg71
g2454
sg64
(lp2461
S'SCRIPT_NAME'
p2462
asbag57
(g78
g59
NtRp2463
(dp2464
g62
(dp2465
g89
g90
ssg71
g2454
sg64
(lp2466
S':'
asbag57
(g78
g59
NtRp2467
(dp2468
g62
(dp2469
sg71
g2454
sg64
(lp2470
g57
(g58
g59
NtRp2471
(dp2472
g62
(dp2473
g70
I3
ssg71
g2467
sg64
(lp2474
S''
asbasbasbag57
(g73
g59
NtRp2475
(dp2476
g62
(dp2477
sg71
g2198
sg64
(lp2478
g57
(g78
g59
NtRp2479
(dp2480
g62
(dp2481
g82
g83
ssg71
g2475
sg64
(lp2482
S'SERVER_NAME'
p2483
asbag57
(g78
g59
NtRp2484
(dp2485
g62
(dp2486
g89
g90
ssg71
g2475
sg64
(lp2487
S':'
asbag57
(g78
g59
NtRp2488
(dp2489
g62
(dp2490
sg71
g2475
sg64
(lp2491
g57
(g58
g59
NtRp2492
(dp2493
g62
(dp2494
g70
I3
ssg71
g2488
sg64
(lp2495
g1143
asbasbasbag57
(g73
g59
NtRp2496
(dp2497
g62
(dp2498
sg71
g2198
sg64
(lp2499
g57
(g78
g59
NtRp2500
(dp2501
g62
(dp2502
g82
g83
ssg71
g2496
sg64
(lp2503
S'SERVER_PORT'
p2504
asbag57
(g78
g59
NtRp2505
(dp2506
g62
(dp2507
g89
g90
ssg71
g2496
sg64
(lp2508
S':'
asbag57
(g78
g59
NtRp2509
(dp2510
g62
(dp2511
sg71
g2496
sg64
(lp2512
g57
(g58
g59
NtRp2513
(dp2514
g62
(dp2515
g70
I3
ssg71
g2509
sg64
(lp2516
g1165
asbasbasbag57
(g73
g59
NtRp2517
(dp2518
g62
(dp2519
sg71
g2198
sg64
(lp2520
g57
(g78
g59
NtRp2521
(dp2522
g62
(dp2523
g82
g83
ssg71
g2517
sg64
(lp2524
S'SERVER_PROTOCOL'
p2525
asbag57
(g78
g59
NtRp2526
(dp2527
g62
(dp2528
g89
g90
ssg71
g2517
sg64
(lp2529
S':'
asbag57
(g78
g59
NtRp2530
(dp2531
g62
(dp2532
sg71
g2517
sg64
(lp2533
g57
(g58
g59
NtRp2534
(dp2535
g62
(dp2536
g70
I3
ssg71
g2530
sg64
(lp2537
g1187
asbasbasbag57
(g73
g59
NtRp2538
(dp2539
g62
(dp2540
sg71
g2198
sg64
(lp2541
g57
(g78
g59
NtRp2542
(dp2543
g62
(dp2544
g82
g83
ssg71
g2538
sg64
(lp2545
S'SERVER_SOFTWARE'
p2546
asbag57
(g78
g59
NtRp2547
(dp2548
g62
(dp2549
g89
g90
ssg71
g2538
sg64
(lp2550
S':'
asbag57
(g78
g59
NtRp2551
(dp2552
g62
(dp2553
sg71
g2538
sg64
(lp2554
g57
(g58
g59
NtRp2555
(dp2556
g62
(dp2557
g70
I3
ssg71
g2551
sg64
(lp2558
g1209
asbasbasbag57
(g73
g59
NtRp2559
(dp2560
g62
(dp2561
sg71
g2198
sg64
(lp2562
g57
(g78
g59
NtRp2563
(dp2564
g62
(dp2565
g82
g83
ssg71
g2559
sg64
(lp2566
S'wsgi.errors'
p2567
asbag57
(g78
g59
NtRp2568
(dp2569
g62
(dp2570
g89
g90
ssg71
g2559
sg64
(lp2571
S':'
asbag57
(g78
g59
NtRp2572
(dp2573
g62
(dp2574
sg71
g2559
sg64
(lp2575
g57
(g58
g59
NtRp2576
(dp2577
g62
(dp2578
g70
I3
ssg71
g2572
sg64
(lp2579
S"<open file '<stderr>', mode 'w' at 0xb76ea0d0>"
p2580
asbasbasbag57
(g73
g59
NtRp2581
(dp2582
g62
(dp2583
sg71
g2198
sg64
(lp2584
g57
(g78
g59
NtRp2585
(dp2586
g62
(dp2587
g82
g83
ssg71
g2581
sg64
(lp2588
S'wsgi.file_wrapper'
p2589
asbag57
(g78
g59
NtRp2590
(dp2591
g62
(dp2592
g89
g90
ssg71
g2581
sg64
(lp2593
S':'
asbag57
(g78
g59
NtRp2594
(dp2595
g62
(dp2596
sg71
g2581
sg64
(lp2597
g57
(g58
g59
NtRp2598
(dp2599
g62
(dp2600
g70
I3
ssg71
g2594
sg64
(lp2601
S'<class wsgiref.util.FileWrapper at 0x8ff09ec>'
p2602
asbasbasbag57
(g73
g59
NtRp2603
(dp2604
g62
(dp2605
sg71
g2198
sg64
(lp2606
g57
(g78
g59
NtRp2607
(dp2608
g62
(dp2609
g82
g83
ssg71
g2603
sg64
(lp2610
S'wsgi.input'
p2611
asbag57
(g78
g59
NtRp2612
(dp2613
g62
(dp2614
g89
g90
ssg71
g2603
sg64
(lp2615
S':'
asbag57
(g78
g59
NtRp2616
(dp2617
g62
(dp2618
sg71
g2603
sg64
(lp2619
g57
(g58
g59
NtRp2620
(dp2621
g62
(dp2622
g70
I3
ssg71
g2616
sg64
(lp2623
S'<cStringIO.StringO object at 0x99644c0>'
p2624
asbasbasbag57
(g73
g59
NtRp2625
(dp2626
g62
(dp2627
sg71
g2198
sg64
(lp2628
g57
(g78
g59
NtRp2629
(dp2630
g62
(dp2631
g82
g83
ssg71
g2625
sg64
(lp2632
S'wsgi.multiprocess'
p2633
asbag57
(g78
g59
NtRp2634
(dp2635
g62
(dp2636
g89
g90
ssg71
g2625
sg64
(lp2637
S':'
asbag57
(g78
g59
NtRp2638
(dp2639
g62
(dp2640
sg71
g2625
sg64
(lp2641
g57
(g58
g59
NtRp2642
(dp2643
g62
(dp2644
g70
I3
ssg71
g2638
sg64
(lp2645
g100
asbasbasbag57
(g73
g59
NtRp2646
(dp2647
g62
(dp2648
sg71
g2198
sg64
(lp2649
g57
(g78
g59
NtRp2650
(dp2651
g62
(dp2652
g82
g83
ssg71
g2646
sg64
(lp2653
S'wsgi.multithread'
p2654
asbag57
(g78
g59
NtRp2655
(dp2656
g62
(dp2657
g89
g90
ssg71
g2646
sg64
(lp2658
S':'
asbag57
(g78
g59
NtRp2659
(dp2660
g62
(dp2661
sg71
g2646
sg64
(lp2662
g57
(g58
g59
NtRp2663
(dp2664
g62
(dp2665
g70
I3
ssg71
g2659
sg64
(lp2666
g1449
asbasbasbag57
(g73
g59
NtRp2667
(dp2668
g62
(dp2669
sg71
g2198
sg64
(lp2670
g57
(g78
g59
NtRp2671
(dp2672
g62
(dp2673
g82
g83
ssg71
g2667
sg64
(lp2674
S'wsgi.run_once'
p2675
asbag57
(g78
g59
NtRp2676
(dp2677
g62
(dp2678
g89
g90
ssg71
g2667
sg64
(lp2679
S':'
asbag57
(g78
g59
NtRp2680
(dp2681
g62
(dp2682
sg71
g2667
sg64
(lp2683
g57
(g58
g59
NtRp2684
(dp2685
g62
(dp2686
g70
I3
ssg71
g2680
sg64
(lp2687
g100
asbasbasbag57
(g73
g59
NtRp2688
(dp2689
g62
(dp2690
sg71
g2198
sg64
(lp2691
g57
(g78
g59
NtRp2692
(dp2693
g62
(dp2694
g82
g83
ssg71
g2688
sg64
(lp2695
S'wsgi.url_scheme'
p2696
asbag57
(g78
g59
NtRp2697
(dp2698
g62
(dp2699
g89
g90
ssg71
g2688
sg64
(lp2700
S':'
asbag57
(g78
g59
NtRp2701
(dp2702
g62
(dp2703
sg71
g2688
sg64
(lp2704
g57
(g58
g59
NtRp2705
(dp2706
g62
(dp2707
g70
I3
ssg71
g2701
sg64
(lp2708
g1492
asbasbasbag57
(g73
g59
NtRp2709
(dp2710
g62
(dp2711
sg71
g2198
sg64
(lp2712
g57
(g78
g59
NtRp2713
(dp2714
g62
(dp2715
g82
g83
ssg71
g2709
sg64
(lp2716
S'wsgi.version'
p2717
asbag57
(g78
g59
NtRp2718
(dp2719
g62
(dp2720
g89
g90
ssg71
g2709
sg64
(lp2721
S':'
asbag57
(g78
g59
NtRp2722
(dp2723
g62
(dp2724
sg71
g2709
sg64
(lp2725
g57
(g58
g59
NtRp2726
(dp2727
g62
(dp2728
g70
I3
ssg71
g2722
sg64
(lp2729
S'1'
asbasbasbasbasbasbasbasbasbasbasbasbasbsS'frames'
p2730
(lp2731
(dp2732
S'file'
p2733
S'/home/famihug/Apps/web2py/gluon/restricted.py'
p2734
sS'dump'
p2735
(dp2736
S'environment'
p2737
S"{'A': <class 'gluon.html.A'>, 'Auth': <class 'gluon.tools.Auth'>, 'B': <class 'gluon.html.B'>, 'BEAUTIFY': <class 'gluon.html.BEAUTIFY'>, 'BODY': <class 'gluon.html.BODY'>, 'BR': <class 'gluon.html.BR'>, 'BUTTON': <class 'gluon.html.BUTTON'>, 'CAT': <class 'gluon.html.CAT'>, 'CENTER': <class 'gluon.html.CENTER'>, 'CLEANUP': <class 'gluon.validators.CLEANUP'>, ...}"
p2738
sS'ccode'
p2739
S'<code object <module> at 0x90ccd10, file "/home/...lications/test/views/default/index.html", line 1>'
p2740
ssS'lnum'
p2741
I205
sS'lines'
p2742
(dp2743
I200
S'    try:'
p2744
sI201
S'        if type(code) == types.CodeType:'
p2745
sI202
S'            ccode = code'
p2746
sI203
S'        else:'
p2747
sI204
S'            ccode = compile2(code,layer)'
p2748
sI205
S'        exec ccode in environment'
p2749
sI206
S'    except HTTP:'
p2750
sI207
S'        raise'
p2751
sI208
S'    except RestrictedError:'
p2752
sI209
S'        # do not encapsulate (obfuscate) the original RestrictedError'
p2753
ssS'call'
p2754
S'(code=r"left_sidebar_enabled,right_sidebar_enabled=False...ponse.write(\'\\n</body>\\n</html>\\n\', escape=False)", environment={\'A\': <class \'gluon.html.A\'>, \'Auth\': <class \'gluon.tools.Auth\'>, \'B\': <class \'gluon.html.B\'>, \'BEAUTIFY\': <class \'gluon.html.BEAUTIFY\'>, \'BODY\': <class \'gluon.html.BODY\'>, \'BR\': <class \'gluon.html.BR\'>, \'BUTTON\': <class \'gluon.html.BUTTON\'>, \'CAT\': <class \'gluon.html.CAT\'>, \'CENTER\': <class \'gluon.html.CENTER\'>, \'CLEANUP\': <class \'gluon.validators.CLEANUP\'>, ...}, layer=\'/home/famihug/Apps/web2py/applications/test/views/default/index.html\')'
p2755
sS'func'
p2756
S'restricted'
p2757
sa(dp2758
g2733
S'/home/famihug/Apps/web2py/applications/test/views/default/index.html'
p2759
sg2735
(dp2760
sg2741
I84
sg2742
(dp2761
I75
S'    response.write(\'\\n        <div class="four columns left-sidebar">\\n          \', escape=False)'
p2762
sI76
S"    response.write('\\n          <h3>Left Sidebar</h3>\\n          <p></p>\\n          ', escape=False)"
p2763
sI77
S"    response.write('\\n        </div>\\n        ', escape=False)"
p2764
sI78
S'    pass'
p2765
sI79
S'response.write(\'\\n        \\n        <div class="\', escape=False)'
p2766
sI80
S'response.write(middle_columns)'
p2767
sI81
S'response.write(\' columns center">\\n          \', escape=False)'
p2768
sI82
S"response.write('\\n          ', escape=False)"
p2769
sI83
S"response.write('\\n', escape=False)"
p2770
sI84
S'response.write(form)'
p2771
sI85
S'response.write(\'\\n\\t\\n\\n<h2><a href="\', escape=False)'
p2772
sI86
S"response.write(URL(r=request, f='create'))"
p2773
sI87
S'response.write(\'">Create task</a></h2>\\n\\n<ul class=tasks>\\n\', escape=False)'
p2774
sI88
S'for task in tasks:'
p2775
sI89
S"    response.write('\\n<li><h2>', escape=False)"
p2776
sI90
S'    response.write(task.task)'
p2777
sI91
S"    response.write(' ', escape=False)"
p2778
sI92
S'    response.write(task.priority * "*")'
p2779
sI93
S"    response.write('</h2></li>\\n<h4>End date: ', escape=False)"
p2780
sI94
S'    response.write(task.enddate)'
p2781
ssg2754
S'()'
p2782
sg2756
S'<module>'
p2783
sasS'pyver'
p2784
S'Python 2.6.6: /usr/bin/python'
p2785
sS'session'
p2786
g57
(g58
g59
NtRp2787
(dp2788
g62
(dp2789
sg64
(lp2790
g57
(g66
g59
NtRp2791
(dp2792
g62
(dp2793
g70
I5
ssg71
Nsg64
(lp2794
g57
(g73
g59
NtRp2795
(dp2796
g62
(dp2797
sg71
g2791
sg64
(lp2798
g57
(g78
g59
NtRp2799
(dp2800
g62
(dp2801
g82
g83
ssg71
g2795
sg64
(lp2802
S'auth'
p2803
asbag57
(g78
g59
NtRp2804
(dp2805
g62
(dp2806
g89
g90
ssg71
g2795
sg64
(lp2807
S':'
asbag57
(g78
g59
NtRp2808
(dp2809
g62
(dp2810
sg71
g2795
sg64
(lp2811
g57
(g58
g59
NtRp2812
(dp2813
g62
(dp2814
g70
I5
ssg71
g2808
sg64
(lp2815
g57
(g66
g59
NtRp2816
(dp2817
g62
(dp2818
g70
I4
ssg71
Nsg64
(lp2819
g57
(g73
g59
NtRp2820
(dp2821
g62
(dp2822
sg71
g2816
sg64
(lp2823
g57
(g78
g59
NtRp2824
(dp2825
g62
(dp2826
g82
g83
ssg71
g2820
sg64
(lp2827
S'expiration'
p2828
asbag57
(g78
g59
NtRp2829
(dp2830
g62
(dp2831
g89
g90
ssg71
g2820
sg64
(lp2832
S':'
asbag57
(g78
g59
NtRp2833
(dp2834
g62
(dp2835
sg71
g2820
sg64
(lp2836
g57
(g58
g59
NtRp2837
(dp2838
g62
(dp2839
g70
I4
ssg71
g2833
sg64
(lp2840
S'3600'
p2841
asbasbasbag57
(g73
g59
NtRp2842
(dp2843
g62
(dp2844
sg71
g2816
sg64
(lp2845
g57
(g78
g59
NtRp2846
(dp2847
g62
(dp2848
g82
g83
ssg71
g2842
sg64
(lp2849
S'hmac_key'
p2850
asbag57
(g78
g59
NtRp2851
(dp2852
g62
(dp2853
g89
g90
ssg71
g2842
sg64
(lp2854
S':'
asbag57
(g78
g59
NtRp2855
(dp2856
g62
(dp2857
sg71
g2842
sg64
(lp2858
g57
(g58
g59
NtRp2859
(dp2860
g62
(dp2861
g70
I4
ssg71
g2855
sg64
(lp2862
S'88072444-98cf-4540-a290-d99a6a8d2715'
p2863
asbasbasbag57
(g73
g59
NtRp2864
(dp2865
g62
(dp2866
sg71
g2816
sg64
(lp2867
g57
(g78
g59
NtRp2868
(dp2869
g62
(dp2870
g82
g83
ssg71
g2864
sg64
(lp2871
S'last_visit'
p2872
asbag57
(g78
g59
NtRp2873
(dp2874
g62
(dp2875
g89
g90
ssg71
g2864
sg64
(lp2876
S':'
asbag57
(g78
g59
NtRp2877
(dp2878
g62
(dp2879
sg71
g2864
sg64
(lp2880
g57
(g58
g59
NtRp2881
(dp2882
g62
(dp2883
g70
I4
ssg71
g2877
sg64
(lp2884
S'datetime.datetime(2012, 7, 3, 11, 43, 2, 890677)'
p2885
asbasbasbag57
(g73
g59
NtRp2886
(dp2887
g62
(dp2888
sg71
g2816
sg64
(lp2889
g57
(g78
g59
NtRp2890
(dp2891
g62
(dp2892
g82
g83
ssg71
g2886
sg64
(lp2893
S'remember'
p2894
asbag57
(g78
g59
NtRp2895
(dp2896
g62
(dp2897
g89
g90
ssg71
g2886
sg64
(lp2898
S':'
asbag57
(g78
g59
NtRp2899
(dp2900
g62
(dp2901
sg71
g2886
sg64
(lp2902
g57
(g58
g59
NtRp2903
(dp2904
g62
(dp2905
g70
I4
ssg71
g2899
sg64
(lp2906
g100
asbasbasbag57
(g73
g59
NtRp2907
(dp2908
g62
(dp2909
sg71
g2816
sg64
(lp2910
g57
(g78
g59
NtRp2911
(dp2912
g62
(dp2913
g82
g83
ssg71
g2907
sg64
(lp2914
S'user'
p2915
asbag57
(g78
g59
NtRp2916
(dp2917
g62
(dp2918
g89
g90
ssg71
g2907
sg64
(lp2919
S':'
asbag57
(g78
g59
NtRp2920
(dp2921
g62
(dp2922
sg71
g2907
sg64
(lp2923
g57
(g58
g59
NtRp2924
(dp2925
g62
(dp2926
g70
I4
ssg71
g2920
sg64
(lp2927
g57
(g66
g59
NtRp2928
(dp2929
g62
(dp2930
g70
I3
ssg71
Nsg64
(lp2931
g57
(g73
g59
NtRp2932
(dp2933
g62
(dp2934
sg71
g2928
sg64
(lp2935
g57
(g78
g59
NtRp2936
(dp2937
g62
(dp2938
g82
g83
ssg71
g2932
sg64
(lp2939
S'email'
p2940
asbag57
(g78
g59
NtRp2941
(dp2942
g62
(dp2943
g89
g90
ssg71
g2932
sg64
(lp2944
S':'
asbag57
(g78
g59
NtRp2945
(dp2946
g62
(dp2947
sg71
g2932
sg64
(lp2948
g57
(g58
g59
NtRp2949
(dp2950
g62
(dp2951
g70
I3
ssg71
g2945
sg64
(lp2952
S'root@familug.org'
p2953
asbasbasbag57
(g73
g59
NtRp2954
(dp2955
g62
(dp2956
sg71
g2928
sg64
(lp2957
g57
(g78
g59
NtRp2958
(dp2959
g62
(dp2960
g82
g83
ssg71
g2954
sg64
(lp2961
S'first_name'
p2962
asbag57
(g78
g59
NtRp2963
(dp2964
g62
(dp2965
g89
g90
ssg71
g2954
sg64
(lp2966
S':'
asbag57
(g78
g59
NtRp2967
(dp2968
g62
(dp2969
sg71
g2954
sg64
(lp2970
g57
(g58
g59
NtRp2971
(dp2972
g62
(dp2973
g70
I3
ssg71
g2967
sg64
(lp2974
S'hvn'
p2975
asbasbasbag57
(g73
g59
NtRp2976
(dp2977
g62
(dp2978
sg71
g2928
sg64
(lp2979
g57
(g78
g59
NtRp2980
(dp2981
g62
(dp2982
g82
g83
ssg71
g2976
sg64
(lp2983
S'id'
p2984
asbag57
(g78
g59
NtRp2985
(dp2986
g62
(dp2987
g89
g90
ssg71
g2976
sg64
(lp2988
S':'
asbag57
(g78
g59
NtRp2989
(dp2990
g62
(dp2991
sg71
g2976
sg64
(lp2992
g57
(g58
g59
NtRp2993
(dp2994
g62
(dp2995
g70
I3
ssg71
g2989
sg64
(lp2996
S'1'
asbasbasbag57
(g73
g59
NtRp2997
(dp2998
g62
(dp2999
sg71
g2928
sg64
(lp3000
g57
(g78
g59
NtRp3001
(dp3002
g62
(dp3003
g82
g83
ssg71
g2997
sg64
(lp3004
S'last_name'
p3005
asbag57
(g78
g59
NtRp3006
(dp3007
g62
(dp3008
g89
g90
ssg71
g2997
sg64
(lp3009
S':'
asbag57
(g78
g59
NtRp3010
(dp3011
g62
(dp3012
sg71
g2997
sg64
(lp3013
g57
(g58
g59
NtRp3014
(dp3015
g62
(dp3016
g70
I3
ssg71
g3010
sg64
(lp3017
S'hvn'
p3018
asbasbasbag57
(g73
g59
NtRp3019
(dp3020
g62
(dp3021
sg71
g2928
sg64
(lp3022
g57
(g78
g59
NtRp3023
(dp3024
g62
(dp3025
g82
g83
ssg71
g3019
sg64
(lp3026
S'password'
p3027
asbag57
(g78
g59
NtRp3028
(dp3029
g62
(dp3030
g89
g90
ssg71
g3019
sg64
(lp3031
S':'
asbag57
(g78
g59
NtRp3032
(dp3033
g62
(dp3034
sg71
g3019
sg64
(lp3035
g57
(g58
g59
NtRp3036
(dp3037
g62
(dp3038
g70
I3
ssg71
g3032
sg64
(lp3039
S'8011e23b3c19b803721a534da64a96af'
p3040
asbasbasbag57
(g73
g59
NtRp3041
(dp3042
g62
(dp3043
sg71
g2928
sg64
(lp3044
g57
(g78
g59
NtRp3045
(dp3046
g62
(dp3047
g82
g83
ssg71
g3041
sg64
(lp3048
S'registration_id'
p3049
asbag57
(g78
g59
NtRp3050
(dp3051
g62
(dp3052
g89
g90
ssg71
g3041
sg64
(lp3053
S':'
asbag57
(g78
g59
NtRp3054
(dp3055
g62
(dp3056
sg71
g3041
sg64
(lp3057
g57
(g58
g59
NtRp3058
(dp3059
g62
(dp3060
g70
I3
ssg71
g3054
sg64
(lp3061
S''
asbasbasbag57
(g73
g59
NtRp3062
(dp3063
g62
(dp3064
sg71
g2928
sg64
(lp3065
g57
(g78
g59
NtRp3066
(dp3067
g62
(dp3068
g82
g83
ssg71
g3062
sg64
(lp3069
S'registration_key'
p3070
asbag57
(g78
g59
NtRp3071
(dp3072
g62
(dp3073
g89
g90
ssg71
g3062
sg64
(lp3074
S':'
asbag57
(g78
g59
NtRp3075
(dp3076
g62
(dp3077
sg71
g3062
sg64
(lp3078
g57
(g58
g59
NtRp3079
(dp3080
g62
(dp3081
g70
I3
ssg71
g3075
sg64
(lp3082
S''
asbasbasbag57
(g73
g59
NtRp3083
(dp3084
g62
(dp3085
sg71
g2928
sg64
(lp3086
g57
(g78
g59
NtRp3087
(dp3088
g62
(dp3089
g82
g83
ssg71
g3083
sg64
(lp3090
S'reset_password_key'
p3091
asbag57
(g78
g59
NtRp3092
(dp3093
g62
(dp3094
g89
g90
ssg71
g3083
sg64
(lp3095
S':'
asbag57
(g78
g59
NtRp3096
(dp3097
g62
(dp3098
sg71
g3083
sg64
(lp3099
g57
(g58
g59
NtRp3100
(dp3101
g62
(dp3102
g70
I3
ssg71
g3096
sg64
(lp3103
S''
asbasbasbasbasbasbasbag57
(g73
g59
NtRp3104
(dp3105
g62
(dp3106
sg71
g2816
sg64
(lp3107
g57
(g78
g59
NtRp3108
(dp3109
g62
(dp3110
g82
g83
ssg71
g3104
sg64
(lp3111
S'user_groups'
p3112
asbag57
(g78
g59
NtRp3113
(dp3114
g62
(dp3115
g89
g90
ssg71
g3104
sg64
(lp3116
S':'
asbag57
(g78
g59
NtRp3117
(dp3118
g62
(dp3119
sg71
g3104
sg64
(lp3120
g57
(g58
g59
NtRp3121
(dp3122
g62
(dp3123
g70
I4
ssg71
g3117
sg64
(lp3124
g57
(g66
g59
NtRp3125
(dp3126
g62
(dp3127
g70
I3
ssg71
Nsg64
(lp3128
g57
(g73
g59
NtRp3129
(dp3130
g62
(dp3131
sg71
g3125
sg64
(lp3132
g57
(g78
g59
NtRp3133
(dp3134
g62
(dp3135
g82
g83
ssg71
g3129
sg64
(lp3136
S'1'
asbag57
(g78
g59
NtRp3137
(dp3138
g62
(dp3139
g89
g90
ssg71
g3129
sg64
(lp3140
S':'
asbag57
(g78
g59
NtRp3141
(dp3142
g62
(dp3143
sg71
g3129
sg64
(lp3144
g57
(g58
g59
NtRp3145
(dp3146
g62
(dp3147
g70
I3
ssg71
g3141
sg64
(lp3148
S'user_1'
p3149
asbasbasbasbasbasbasbasbasbasbasbasbasbsS'etype'
p3150
S"<type 'exceptions.NameError'>"
p3151
sS'date'
p3152
S'Tue Jul  3 11:47:58 2012'
p3153
sS'response'
p3154
g57
(g58
g59
NtRp3155
(dp3156
g62
(dp3157
sg64
(lp3158
g57
(g66
g59
NtRp3159
(dp3160
g62
(dp3161
g70
I5
ssg71
Nsg64
(lp3162
g57
(g73
g59
NtRp3163
(dp3164
g62
(dp3165
sg71
g3159
sg64
(lp3166
g57
(g78
g59
NtRp3167
(dp3168
g62
(dp3169
g82
g83
ssg71
g3163
sg64
(lp3170
g155
asbag57
(g78
g59
NtRp3171
(dp3172
g62
(dp3173
g89
g90
ssg71
g3163
sg64
(lp3174
S':'
asbag57
(g78
g59
NtRp3175
(dp3176
g62
(dp3177
sg71
g3163
sg64
(lp3178
g57
(g58
g59
NtRp3179
(dp3180
g62
(dp3181
g70
I5
ssg71
g3175
sg64
(lp3182
S'<cStringIO.StringO object at 0x9f39aa0>'
p3183
asbasbasbag57
(g73
g59
NtRp3184
(dp3185
g62
(dp3186
sg71
g3159
sg64
(lp3187
g57
(g78
g59
NtRp3188
(dp3189
g62
(dp3190
g82
g83
ssg71
g3184
sg64
(lp3191
g221
asbag57
(g78
g59
NtRp3192
(dp3193
g62
(dp3194
g89
g90
ssg71
g3184
sg64
(lp3195
S':'
asbag57
(g78
g59
NtRp3196
(dp3197
g62
(dp3198
sg71
g3184
sg64
(lp3199
g57
(g58
g59
NtRp3200
(dp3201
g62
(dp3202
g70
I5
ssg71
g3196
sg64
(lp3203
g57
(g66
g59
NtRp3204
(dp3205
g62
(dp3206
g70
I4
ssg71
Nsg64
(lp3207
g57
(g73
g59
NtRp3208
(dp3209
g62
(dp3210
sg71
g3204
sg64
(lp3211
g57
(g78
g59
NtRp3212
(dp3213
g62
(dp3214
g82
g83
ssg71
g3208
sg64
(lp3215
S'session_id_test'
p3216
asbag57
(g78
g59
NtRp3217
(dp3218
g62
(dp3219
g89
g90
ssg71
g3208
sg64
(lp3220
S':'
asbag57
(g78
g59
NtRp3221
(dp3222
g62
(dp3223
sg71
g3208
sg64
(lp3224
g57
(g58
g59
NtRp3225
(dp3226
g62
(dp3227
g70
I4
ssg71
g3221
sg64
(lp3228
g57
(g66
g59
NtRp3229
(dp3230
g62
(dp3231
g70
I3
ssg71
Nsg64
(lp3232
g57
(g73
g59
NtRp3233
(dp3234
g62
(dp3235
sg71
g3229
sg64
(lp3236
g57
(g78
g59
NtRp3237
(dp3238
g62
(dp3239
g82
g83
ssg71
g3233
sg64
(lp3240
g271
asbag57
(g78
g59
NtRp3241
(dp3242
g62
(dp3243
g89
g90
ssg71
g3233
sg64
(lp3244
S':'
asbag57
(g78
g59
NtRp3245
(dp3246
g62
(dp3247
sg71
g3233
sg64
(lp3248
g57
(g58
g59
NtRp3249
(dp3250
g62
(dp3251
g70
I3
ssg71
g3245
sg64
(lp3252
S''
asbasbasbag57
(g73
g59
NtRp3253
(dp3254
g62
(dp3255
sg71
g3229
sg64
(lp3256
g57
(g78
g59
NtRp3257
(dp3258
g62
(dp3259
g82
g83
ssg71
g3253
sg64
(lp3260
g292
asbag57
(g78
g59
NtRp3261
(dp3262
g62
(dp3263
g89
g90
ssg71
g3253
sg64
(lp3264
S':'
asbag57
(g78
g59
NtRp3265
(dp3266
g62
(dp3267
sg71
g3253
sg64
(lp3268
g57
(g58
g59
NtRp3269
(dp3270
g62
(dp3271
g70
I3
ssg71
g3265
sg64
(lp3272
S''
asbasbasbag57
(g73
g59
NtRp3273
(dp3274
g62
(dp3275
sg71
g3229
sg64
(lp3276
g57
(g78
g59
NtRp3277
(dp3278
g62
(dp3279
g82
g83
ssg71
g3273
sg64
(lp3280
g313
asbag57
(g78
g59
NtRp3281
(dp3282
g62
(dp3283
g89
g90
ssg71
g3273
sg64
(lp3284
S':'
asbag57
(g78
g59
NtRp3285
(dp3286
g62
(dp3287
sg71
g3273
sg64
(lp3288
g57
(g58
g59
NtRp3289
(dp3290
g62
(dp3291
g70
I3
ssg71
g3285
sg64
(lp3292
S''
asbasbasbag57
(g73
g59
NtRp3293
(dp3294
g62
(dp3295
sg71
g3229
sg64
(lp3296
g57
(g78
g59
NtRp3297
(dp3298
g62
(dp3299
g82
g83
ssg71
g3293
sg64
(lp3300
g334
asbag57
(g78
g59
NtRp3301
(dp3302
g62
(dp3303
g89
g90
ssg71
g3293
sg64
(lp3304
S':'
asbag57
(g78
g59
NtRp3305
(dp3306
g62
(dp3307
sg71
g3293
sg64
(lp3308
g57
(g58
g59
NtRp3309
(dp3310
g62
(dp3311
g70
I3
ssg71
g3305
sg64
(lp3312
S''
asbasbasbag57
(g73
g59
NtRp3313
(dp3314
g62
(dp3315
sg71
g3229
sg64
(lp3316
g57
(g78
g59
NtRp3317
(dp3318
g62
(dp3319
g82
g83
ssg71
g3313
sg64
(lp3320
g355
asbag57
(g78
g59
NtRp3321
(dp3322
g62
(dp3323
g89
g90
ssg71
g3313
sg64
(lp3324
S':'
asbag57
(g78
g59
NtRp3325
(dp3326
g62
(dp3327
sg71
g3313
sg64
(lp3328
g57
(g58
g59
NtRp3329
(dp3330
g62
(dp3331
g70
I3
ssg71
g3325
sg64
(lp3332
S''
asbasbasbag57
(g73
g59
NtRp3333
(dp3334
g62
(dp3335
sg71
g3229
sg64
(lp3336
g57
(g78
g59
NtRp3337
(dp3338
g62
(dp3339
g82
g83
ssg71
g3333
sg64
(lp3340
g376
asbag57
(g78
g59
NtRp3341
(dp3342
g62
(dp3343
g89
g90
ssg71
g3333
sg64
(lp3344
S':'
asbag57
(g78
g59
NtRp3345
(dp3346
g62
(dp3347
sg71
g3333
sg64
(lp3348
g57
(g58
g59
NtRp3349
(dp3350
g62
(dp3351
g70
I3
ssg71
g3345
sg64
(lp3352
S'/'
asbasbasbag57
(g73
g59
NtRp3353
(dp3354
g62
(dp3355
sg71
g3229
sg64
(lp3356
g57
(g78
g59
NtRp3357
(dp3358
g62
(dp3359
g82
g83
ssg71
g3353
sg64
(lp3360
g397
asbag57
(g78
g59
NtRp3361
(dp3362
g62
(dp3363
g89
g90
ssg71
g3353
sg64
(lp3364
S':'
asbag57
(g78
g59
NtRp3365
(dp3366
g62
(dp3367
sg71
g3353
sg64
(lp3368
g57
(g58
g59
NtRp3369
(dp3370
g62
(dp3371
g70
I3
ssg71
g3365
sg64
(lp3372
S''
asbasbasbag57
(g73
g59
NtRp3373
(dp3374
g62
(dp3375
sg71
g3229
sg64
(lp3376
g57
(g78
g59
NtRp3377
(dp3378
g62
(dp3379
g82
g83
ssg71
g3373
sg64
(lp3380
g418
asbag57
(g78
g59
NtRp3381
(dp3382
g62
(dp3383
g89
g90
ssg71
g3373
sg64
(lp3384
S':'
asbag57
(g78
g59
NtRp3385
(dp3386
g62
(dp3387
sg71
g3373
sg64
(lp3388
g57
(g58
g59
NtRp3389
(dp3390
g62
(dp3391
g70
I3
ssg71
g3385
sg64
(lp3392
S''
asbasbasbasbasbasbasbasbasbasbasbag57
(g73
g59
NtRp3393
(dp3394
g62
(dp3395
sg71
g3159
sg64
(lp3396
g57
(g78
g59
NtRp3397
(dp3398
g62
(dp3399
g82
g83
ssg71
g3393
sg64
(lp3400
S'delimiters'
p3401
asbag57
(g78
g59
NtRp3402
(dp3403
g62
(dp3404
g89
g90
ssg71
g3393
sg64
(lp3405
S':'
asbag57
(g78
g59
NtRp3406
(dp3407
g62
(dp3408
sg71
g3393
sg64
(lp3409
g57
(g58
g59
NtRp3410
(dp3411
g62
(dp3412
g70
I5
ssg71
g3406
sg64
(lp3413
g57
(g66
g59
NtRp3414
(dp3415
g62
(dp3416
g70
I4
ssg71
Nsg64
(lp3417
g57
(g73
g59
NtRp3418
(dp3419
g62
(dp3420
sg71
g3414
sg64
(lp3421
g57
(g78
g59
NtRp3422
(dp3423
g62
(dp3424
sg71
g3418
sg64
(lp3425
g57
(g58
g59
NtRp3426
(dp3427
g62
(dp3428
g70
I4
ssg71
g3422
sg64
(lp3429
S'{{'
p3430
asbasbasbag57
(g73
g59
NtRp3431
(dp3432
g62
(dp3433
sg71
g3414
sg64
(lp3434
g57
(g78
g59
NtRp3435
(dp3436
g62
(dp3437
sg71
g3431
sg64
(lp3438
g57
(g58
g59
NtRp3439
(dp3440
g62
(dp3441
g70
I4
ssg71
g3435
sg64
(lp3442
S'}}'
p3443
asbasbasbasbasbasbasbag57
(g73
g59
NtRp3444
(dp3445
g62
(dp3446
sg71
g3159
sg64
(lp3447
g57
(g78
g59
NtRp3448
(dp3449
g62
(dp3450
g82
g83
ssg71
g3444
sg64
(lp3451
S'files'
p3452
asbag57
(g78
g59
NtRp3453
(dp3454
g62
(dp3455
g89
g90
ssg71
g3444
sg64
(lp3456
S':'
asbag57
(g78
g59
NtRp3457
(dp3458
g62
(dp3459
sg71
g3444
sg64
(lp3460
g57
(g58
g59
NtRp3461
(dp3462
g62
(dp3463
g70
I5
ssg71
g3457
sg64
(lp3464
g57
(g66
g59
NtRp3465
(dp3466
g62
(dp3467
g70
I4
ssg71
Nsg64
(lp3468
g57
(g73
g59
NtRp3469
(dp3470
g62
(dp3471
sg71
g3465
sg64
(lp3472
g57
(g78
g59
NtRp3473
(dp3474
g62
(dp3475
sg71
g3469
sg64
(lp3476
g57
(g58
g59
NtRp3477
(dp3478
g62
(dp3479
g70
I4
ssg71
g3473
sg64
(lp3480
S'/test/static/js/jquery.js'
p3481
asbasbasbag57
(g73
g59
NtRp3482
(dp3483
g62
(dp3484
sg71
g3465
sg64
(lp3485
g57
(g78
g59
NtRp3486
(dp3487
g62
(dp3488
sg71
g3482
sg64
(lp3489
g57
(g58
g59
NtRp3490
(dp3491
g62
(dp3492
g70
I4
ssg71
g3486
sg64
(lp3493
S'/test/static/css/calendar.css'
p3494
asbasbasbag57
(g73
g59
NtRp3495
(dp3496
g62
(dp3497
sg71
g3465
sg64
(lp3498
g57
(g78
g59
NtRp3499
(dp3500
g62
(dp3501
sg71
g3495
sg64
(lp3502
g57
(g58
g59
NtRp3503
(dp3504
g62
(dp3505
g70
I4
ssg71
g3499
sg64
(lp3506
S'/test/static/js/calendar.js'
p3507
asbasbasbag57
(g73
g59
NtRp3508
(dp3509
g62
(dp3510
sg71
g3465
sg64
(lp3511
g57
(g78
g59
NtRp3512
(dp3513
g62
(dp3514
sg71
g3508
sg64
(lp3515
g57
(g58
g59
NtRp3516
(dp3517
g62
(dp3518
g70
I4
ssg71
g3512
sg64
(lp3519
S'/test/static/js/web2py.js'
p3520
asbasbasbag57
(g73
g59
NtRp3521
(dp3522
g62
(dp3523
sg71
g3465
sg64
(lp3524
g57
(g78
g59
NtRp3525
(dp3526
g62
(dp3527
sg71
g3521
sg64
(lp3528
g57
(g58
g59
NtRp3529
(dp3530
g62
(dp3531
g70
I4
ssg71
g3525
sg64
(lp3532
S'/test/static/css/skeleton.css'
p3533
asbasbasbag57
(g73
g59
NtRp3534
(dp3535
g62
(dp3536
sg71
g3465
sg64
(lp3537
g57
(g78
g59
NtRp3538
(dp3539
g62
(dp3540
sg71
g3534
sg64
(lp3541
g57
(g58
g59
NtRp3542
(dp3543
g62
(dp3544
g70
I4
ssg71
g3538
sg64
(lp3545
S'/test/static/css/web2py.css'
p3546
asbasbasbag57
(g73
g59
NtRp3547
(dp3548
g62
(dp3549
sg71
g3465
sg64
(lp3550
g57
(g78
g59
NtRp3551
(dp3552
g62
(dp3553
sg71
g3547
sg64
(lp3554
g57
(g58
g59
NtRp3555
(dp3556
g62
(dp3557
g70
I4
ssg71
g3551
sg64
(lp3558
S'/test/static/css/superfish.css'
p3559
asbasbasbag57
(g73
g59
NtRp3560
(dp3561
g62
(dp3562
sg71
g3465
sg64
(lp3563
g57
(g78
g59
NtRp3564
(dp3565
g62
(dp3566
sg71
g3560
sg64
(lp3567
g57
(g58
g59
NtRp3568
(dp3569
g62
(dp3570
g70
I4
ssg71
g3564
sg64
(lp3571
S'/test/static/js/superfish.js'
p3572
asbasbasbasbasbasbasbag57
(g73
g59
NtRp3573
(dp3574
g62
(dp3575
sg71
g3159
sg64
(lp3576
g57
(g78
g59
NtRp3577
(dp3578
g62
(dp3579
g82
g83
ssg71
g3573
sg64
(lp3580
S'flash'
p3581
asbag57
(g78
g59
NtRp3582
(dp3583
g62
(dp3584
g89
g90
ssg71
g3573
sg64
(lp3585
S':'
asbag57
(g78
g59
NtRp3586
(dp3587
g62
(dp3588
sg71
g3573
sg64
(lp3589
g57
(g58
g59
NtRp3590
(dp3591
g62
(dp3592
g70
I5
ssg71
g3586
sg64
(lp3593
S'Welcome to web2py!'
p3594
asbasbasbag57
(g73
g59
NtRp3595
(dp3596
g62
(dp3597
sg71
g3159
sg64
(lp3598
g57
(g78
g59
NtRp3599
(dp3600
g62
(dp3601
g82
g83
ssg71
g3595
sg64
(lp3602
S'generic_patterns'
p3603
asbag57
(g78
g59
NtRp3604
(dp3605
g62
(dp3606
g89
g90
ssg71
g3595
sg64
(lp3607
S':'
asbag57
(g78
g59
NtRp3608
(dp3609
g62
(dp3610
sg71
g3595
sg64
(lp3611
g57
(g58
g59
NtRp3612
(dp3613
g62
(dp3614
g70
I5
ssg71
g3608
sg64
(lp3615
g57
(g66
g59
NtRp3616
(dp3617
g62
(dp3618
g70
I4
ssg71
Nsg64
(lp3619
g57
(g73
g59
NtRp3620
(dp3621
g62
(dp3622
sg71
g3616
sg64
(lp3623
g57
(g78
g59
NtRp3624
(dp3625
g62
(dp3626
sg71
g3620
sg64
(lp3627
g57
(g58
g59
NtRp3628
(dp3629
g62
(dp3630
g70
I4
ssg71
g3624
sg64
(lp3631
S'*'
asbasbasbasbasbasbasbag57
(g73
g59
NtRp3632
(dp3633
g62
(dp3634
sg71
g3159
sg64
(lp3635
g57
(g78
g59
NtRp3636
(dp3637
g62
(dp3638
g82
g83
ssg71
g3632
sg64
(lp3639
S'headers'
p3640
asbag57
(g78
g59
NtRp3641
(dp3642
g62
(dp3643
g89
g90
ssg71
g3632
sg64
(lp3644
S':'
asbag57
(g78
g59
NtRp3645
(dp3646
g62
(dp3647
sg71
g3632
sg64
(lp3648
g57
(g58
g59
NtRp3649
(dp3650
g62
(dp3651
g70
I5
ssg71
g3645
sg64
(lp3652
g57
(g66
g59
NtRp3653
(dp3654
g62
(dp3655
g70
I4
ssg71
Nsg64
(lp3656
g57
(g73
g59
NtRp3657
(dp3658
g62
(dp3659
sg71
g3653
sg64
(lp3660
g57
(g78
g59
NtRp3661
(dp3662
g62
(dp3663
g82
g83
ssg71
g3657
sg64
(lp3664
S'Cache-Control'
p3665
asbag57
(g78
g59
NtRp3666
(dp3667
g62
(dp3668
g89
g90
ssg71
g3657
sg64
(lp3669
S':'
asbag57
(g78
g59
NtRp3670
(dp3671
g62
(dp3672
sg71
g3657
sg64
(lp3673
g57
(g58
g59
NtRp3674
(dp3675
g62
(dp3676
g70
I4
ssg71
g3670
sg64
(lp3677
S'no-store, no-cache, must-revalidate, post-check=0, pre-check=0'
p3678
asbasbasbag57
(g73
g59
NtRp3679
(dp3680
g62
(dp3681
sg71
g3653
sg64
(lp3682
g57
(g78
g59
NtRp3683
(dp3684
g62
(dp3685
g82
g83
ssg71
g3679
sg64
(lp3686
S'Content-Type'
p3687
asbag57
(g78
g59
NtRp3688
(dp3689
g62
(dp3690
g89
g90
ssg71
g3679
sg64
(lp3691
S':'
asbag57
(g78
g59
NtRp3692
(dp3693
g62
(dp3694
sg71
g3679
sg64
(lp3695
g57
(g58
g59
NtRp3696
(dp3697
g62
(dp3698
g70
I4
ssg71
g3692
sg64
(lp3699
S'text/html; charset=utf-8'
p3700
asbasbasbag57
(g73
g59
NtRp3701
(dp3702
g62
(dp3703
sg71
g3653
sg64
(lp3704
g57
(g78
g59
NtRp3705
(dp3706
g62
(dp3707
g82
g83
ssg71
g3701
sg64
(lp3708
S'Expires'
p3709
asbag57
(g78
g59
NtRp3710
(dp3711
g62
(dp3712
g89
g90
ssg71
g3701
sg64
(lp3713
S':'
asbag57
(g78
g59
NtRp3714
(dp3715
g62
(dp3716
sg71
g3701
sg64
(lp3717
g57
(g58
g59
NtRp3718
(dp3719
g62
(dp3720
g70
I4
ssg71
g3714
sg64
(lp3721
S'Tue, 03 Jul 2012 04:47:58 GMT'
p3722
asbasbasbag57
(g73
g59
NtRp3723
(dp3724
g62
(dp3725
sg71
g3653
sg64
(lp3726
g57
(g78
g59
NtRp3727
(dp3728
g62
(dp3729
g82
g83
ssg71
g3723
sg64
(lp3730
S'Pragma'
p3731
asbag57
(g78
g59
NtRp3732
(dp3733
g62
(dp3734
g89
g90
ssg71
g3723
sg64
(lp3735
S':'
asbag57
(g78
g59
NtRp3736
(dp3737
g62
(dp3738
sg71
g3723
sg64
(lp3739
g57
(g58
g59
NtRp3740
(dp3741
g62
(dp3742
g70
I4
ssg71
g3736
sg64
(lp3743
S'no-cache'
p3744
asbasbasbag57
(g73
g59
NtRp3745
(dp3746
g62
(dp3747
sg71
g3653
sg64
(lp3748
g57
(g78
g59
NtRp3749
(dp3750
g62
(dp3751
g82
g83
ssg71
g3745
sg64
(lp3752
S'X-Powered-By'
p3753
asbag57
(g78
g59
NtRp3754
(dp3755
g62
(dp3756
g89
g90
ssg71
g3745
sg64
(lp3757
S':'
asbag57
(g78
g59
NtRp3758
(dp3759
g62
(dp3760
sg71
g3745
sg64
(lp3761
g57
(g58
g59
NtRp3762
(dp3763
g62
(dp3764
g70
I4
ssg71
g3758
sg64
(lp3765
S'web2py'
p3766
asbasbasbasbasbasbasbag57
(g73
g59
NtRp3767
(dp3768
g62
(dp3769
sg71
g3159
sg64
(lp3770
g57
(g78
g59
NtRp3771
(dp3772
g62
(dp3773
g82
g83
ssg71
g3767
sg64
(lp3774
S'menu'
p3775
asbag57
(g78
g59
NtRp3776
(dp3777
g62
(dp3778
g89
g90
ssg71
g3767
sg64
(lp3779
S':'
asbag57
(g78
g59
NtRp3780
(dp3781
g62
(dp3782
sg71
g3767
sg64
(lp3783
g57
(g58
g59
NtRp3784
(dp3785
g62
(dp3786
g70
I5
ssg71
g3780
sg64
(lp3787
g57
(g66
g59
NtRp3788
(dp3789
g62
(dp3790
g70
I4
ssg71
Nsg64
(lp3791
g57
(g73
g59
NtRp3792
(dp3793
g62
(dp3794
sg71
g3788
sg64
(lp3795
g57
(g78
g59
NtRp3796
(dp3797
g62
(dp3798
sg71
g3792
sg64
(lp3799
g57
(g58
g59
NtRp3800
(dp3801
g62
(dp3802
g70
I4
ssg71
g3796
sg64
(lp3803
g57
(g66
g59
NtRp3804
(dp3805
g62
(dp3806
g70
I3
ssg71
Nsg64
(lp3807
g57
(g73
g59
NtRp3808
(dp3809
g62
(dp3810
sg71
g3804
sg64
(lp3811
g57
(g78
g59
NtRp3812
(dp3813
g62
(dp3814
sg71
g3808
sg64
(lp3815
g57
(g58
g59
NtRp3816
(dp3817
g62
(dp3818
g70
I3
ssg71
g3812
sg64
(lp3819
cgluon.languages
lazyT_unpickle
p3820
(S's\x04\x00\x00\x00Home'
tRp3821
asbasbasbag57
(g73
g59
NtRp3822
(dp3823
g62
(dp3824
sg71
g3804
sg64
(lp3825
g57
(g78
g59
NtRp3826
(dp3827
g62
(dp3828
sg71
g3822
sg64
(lp3829
g57
(g58
g59
NtRp3830
(dp3831
g62
(dp3832
g70
I3
ssg71
g3826
sg64
(lp3833
g100
asbasbasbag57
(g73
g59
NtRp3834
(dp3835
g62
(dp3836
sg71
g3804
sg64
(lp3837
g57
(g78
g59
NtRp3838
(dp3839
g62
(dp3840
sg71
g3834
sg64
(lp3841
g57
(g58
g59
NtRp3842
(dp3843
g62
(dp3844
g70
I3
ssg71
g3838
sg64
(lp3845
S'/test/default/index'
p3846
asbasbasbag57
(g73
g59
NtRp3847
(dp3848
g62
(dp3849
sg71
g3804
sg64
(lp3850
g57
(g78
g59
NtRp3851
(dp3852
g62
(dp3853
sg71
g3847
sg64
(lp3854
g57
(g58
g59
NtRp3855
(dp3856
g62
(dp3857
g70
I3
ssg71
g3851
sg64
(lp3858
g57
(g66
g59
NtRp3859
(dp3860
g62
(dp3861
g70
I2
ssg71
Nsg64
(lp3862
sbasbasbasbasbasbasbasbag57
(g73
g59
NtRp3863
(dp3864
g62
(dp3865
sg71
g3788
sg64
(lp3866
g57
(g78
g59
NtRp3867
(dp3868
g62
(dp3869
sg71
g3863
sg64
(lp3870
g57
(g58
g59
NtRp3871
(dp3872
g62
(dp3873
g70
I4
ssg71
g3867
sg64
(lp3874
g57
(g66
g59
NtRp3875
(dp3876
g62
(dp3877
g70
I3
ssg71
Nsg64
(lp3878
g57
(g73
g59
NtRp3879
(dp3880
g62
(dp3881
sg71
g3875
sg64
(lp3882
g57
(g78
g59
NtRp3883
(dp3884
g62
(dp3885
sg71
g3879
sg64
(lp3886
g57
(g58
g59
NtRp3887
(dp3888
g62
(dp3889
g70
I3
ssg71
g3883
sg64
(lp3890
g57
(cgluon.html
SPAN
p3891
g59
NtRp3892
(dp3893
g62
(dp3894
g82
S'color:yellow'
p3895
ssg71
g57
(cgluon.html
A
p3896
g59
NtRp3897
(dp3898
g62
(dp3899
S'_onclick'
p3900
S'javascript:void(0);return false;'
p3901
sS'_href'
p3902
S'#'
ssg71
g57
(cgluon.html
LI
p3903
g59
NtRp3904
(dp3905
g62
(dp3906
S'_class'
p3907
S'web2py-menu-expand'
p3908
ssg71
g57
(cgluon.html
UL
p3909
g59
NtRp3910
(dp3911
g62
(dp3912
S'mobile'
p3913
I00
sS'li_class'
p3914
g3908
sg3907
S'sf-menu'
p3915
sS'ul_class'
p3916
S'web2py-menu-vertical'
p3917
sS'li_active'
p3918
S'web2py-menu-active'
p3919
ssg71
Nsg64
(lp3920
g57
(g3903
g59
NtRp3921
(dp3922
g62
(dp3923
sg71
g3910
sg64
(lp3924
g57
(g3896
g59
NtRp3925
(dp3926
g62
(dp3927
g3902
g3846
ssg71
g3921
sg64
(lp3928
g3821
asbasbag3904
asbsg64
(lp3929
g3897
ag57
(g3909
g59
NtRp3930
(dp3931
g62
(dp3932
g3907
g3917
ssg71
g3904
sg64
(lp3933
g57
(g3903
g59
NtRp3934
(dp3935
g62
(dp3936
sg71
g3930
sg64
(lp3937
g57
(g3896
g59
NtRp3938
(dp3939
g62
(dp3940
g3902
S'/admin/default/site'
p3941
ssg71
g3934
sg64
(lp3942
g3820
(S's\x08\x00\x00\x00My Sites'
tRp3943
asbasbag57
(g3903
g59
NtRp3944
(dp3945
g62
(dp3946
g3907
g3908
ssg71
g3930
sg64
(lp3947
g57
(g3896
g59
NtRp3948
(dp3949
g62
(dp3950
g3902
S'/admin/default/design/test'
p3951
ssg71
g3944
sg64
(lp3952
g3820
(S's\x08\x00\x00\x00This App'
tRp3953
asbag57
(g3909
g59
NtRp3954
(dp3955
g62
(dp3956
g3907
g3917
ssg71
g3944
sg64
(lp3957
g57
(g3903
g59
NtRp3958
(dp3959
g62
(dp3960
sg71
g3954
sg64
(lp3961
g57
(g3896
g59
NtRp3962
(dp3963
g62
(dp3964
g3902
S'/admin/default/edit/test/controllers/default.py'
p3965
ssg71
g3958
sg64
(lp3966
g3820
(S's\n\x00\x00\x00Controller'
tRp3967
asbasbag57
(g3903
g59
NtRp3968
(dp3969
g62
(dp3970
sg71
g3954
sg64
(lp3971
g57
(g3896
g59
NtRp3972
(dp3973
g62
(dp3974
g3902
S'/admin/default/edit/test/views/default/index.html'
p3975
ssg71
g3968
sg64
(lp3976
g3820
(S's\x04\x00\x00\x00View'
tRp3977
asbasbag57
(g3903
g59
NtRp3978
(dp3979
g62
(dp3980
sg71
g3954
sg64
(lp3981
g57
(g3896
g59
NtRp3982
(dp3983
g62
(dp3984
g3902
S'/admin/default/edit/test/views/layout.html'
p3985
ssg71
g3978
sg64
(lp3986
g3820
(S's\x06\x00\x00\x00Layout'
tRp3987
asbasbag57
(g3903
g59
NtRp3988
(dp3989
g62
(dp3990
sg71
g3954
sg64
(lp3991
g57
(g3896
g59
NtRp3992
(dp3993
g62
(dp3994
g3902
S'/admin/default/edit/test/static/css/web2py.css'
p3995
ssg71
g3988
sg64
(lp3996
g3820
(S's\n\x00\x00\x00Stylesheet'
tRp3997
asbasbag57
(g3903
g59
NtRp3998
(dp3999
g62
(dp4000
sg71
g3954
sg64
(lp4001
g57
(g3896
g59
NtRp4002
(dp4003
g62
(dp4004
g3902
S'/admin/default/edit/test/models/db.py'
p4005
ssg71
g3998
sg64
(lp4006
g3820
(S's\x08\x00\x00\x00DB Model'
tRp4007
asbasbag57
(g3903
g59
NtRp4008
(dp4009
g62
(dp4010
sg71
g3954
sg64
(lp4011
g57
(g3896
g59
NtRp4012
(dp4013
g62
(dp4014
g3902
S'/admin/default/edit/test/models/menu.py'
p4015
ssg71
g4008
sg64
(lp4016
g3820
(S's\n\x00\x00\x00Menu Model'
tRp4017
asbasbag57
(g3903
g59
NtRp4018
(dp4019
g62
(dp4020
sg71
g3954
sg64
(lp4021
g57
(g3896
g59
NtRp4022
(dp4023
g62
(dp4024
g3902
S'/test/appadmin/index'
p4025
ssg71
g4018
sg64
(lp4026
g3820
(S's\x08\x00\x00\x00Database'
tRp4027
asbasbag57
(g3903
g59
NtRp4028
(dp4029
g62
(dp4030
sg71
g3954
sg64
(lp4031
g57
(g3896
g59
NtRp4032
(dp4033
g62
(dp4034
g3902
S'/admin/default/errors/test'
p4035
ssg71
g4028
sg64
(lp4036
g3820
(S's\x06\x00\x00\x00Errors'
tRp4037
asbasbag57
(g3903
g59
NtRp4038
(dp4039
g62
(dp4040
sg71
g3954
sg64
(lp4041
g57
(g3896
g59
NtRp4042
(dp4043
g62
(dp4044
g3902
S'/admin/default/about/test'
p4045
ssg71
g4038
sg64
(lp4046
g3820
(S's\x05\x00\x00\x00About'
tRp4047
asbasbasbasbag57
(g3903
g59
NtRp4048
(dp4049
g62
(dp4050
g3907
g3908
ssg71
g3930
sg64
(lp4051
g57
(g3896
g59
NtRp4052
(dp4053
g62
(dp4054
g3902
S'http://www.web2py.com'
p4055
ssg71
g4048
sg64
(lp4056
S'web2py.com'
p4057
asbag57
(g3909
g59
NtRp4058
(dp4059
g62
(dp4060
g3907
g3917
ssg71
g4048
sg64
(lp4061
g57
(g3903
g59
NtRp4062
(dp4063
g62
(dp4064
sg71
g4058
sg64
(lp4065
g57
(g3896
g59
NtRp4066
(dp4067
g62
(dp4068
g3902
S'http://www.web2py.com/examples/default/download'
p4069
ssg71
g4062
sg64
(lp4070
g3820
(S's\x08\x00\x00\x00Download'
tRp4071
asbasbag57
(g3903
g59
NtRp4072
(dp4073
g62
(dp4074
sg71
g4058
sg64
(lp4075
g57
(g3896
g59
NtRp4076
(dp4077
g62
(dp4078
g3902
S'http://www.web2py.com/examples/default/support'
p4079
ssg71
g4072
sg64
(lp4080
g3820
(S's\x07\x00\x00\x00Support'
tRp4081
asbasbag57
(g3903
g59
NtRp4082
(dp4083
g62
(dp4084
sg71
g4058
sg64
(lp4085
g57
(g3896
g59
NtRp4086
(dp4087
g62
(dp4088
g3902
S'http://web2py.com/demo_admin'
p4089
ssg71
g4082
sg64
(lp4090
g3820
(S's\x04\x00\x00\x00Demo'
tRp4091
asbasbag57
(g3903
g59
NtRp4092
(dp4093
g62
(dp4094
sg71
g4058
sg64
(lp4095
g57
(g3896
g59
NtRp4096
(dp4097
g62
(dp4098
g3902
S'http://web2py.com/examples/default/examples'
p4099
ssg71
g4092
sg64
(lp4100
g3820
(S's\x0e\x00\x00\x00Quick Examples'
tRp4101
asbasbag57
(g3903
g59
NtRp4102
(dp4103
g62
(dp4104
sg71
g4058
sg64
(lp4105
g57
(g3896
g59
NtRp4106
(dp4107
g62
(dp4108
g3902
S'http://web2py.com/AlterEgo'
p4109
ssg71
g4102
sg64
(lp4110
g3820
(S's\x03\x00\x00\x00FAQ'
tRp4111
asbasbag57
(g3903
g59
NtRp4112
(dp4113
g62
(dp4114
sg71
g4058
sg64
(lp4115
g57
(g3896
g59
NtRp4116
(dp4117
g62
(dp4118
g3902
S'http://www.web2py.com/examples/default/videos/'
p4119
ssg71
g4112
sg64
(lp4120
g3820
(S's\x06\x00\x00\x00Videos'
tRp4121
asbasbag57
(g3903
g59
NtRp4122
(dp4123
g62
(dp4124
sg71
g4058
sg64
(lp4125
g57
(g3896
g59
NtRp4126
(dp4127
g62
(dp4128
g3902
S'http://web2py.com/appliances'
p4129
ssg71
g4122
sg64
(lp4130
g3820
(S's\x11\x00\x00\x00Free Applications'
tRp4131
asbasbag57
(g3903
g59
NtRp4132
(dp4133
g62
(dp4134
sg71
g4058
sg64
(lp4135
g57
(g3896
g59
NtRp4136
(dp4137
g62
(dp4138
g3902
S'http://web2py.com/plugins'
p4139
ssg71
g4132
sg64
(lp4140
g3820
(S's\x07\x00\x00\x00Plugins'
tRp4141
asbasbag57
(g3903
g59
NtRp4142
(dp4143
g62
(dp4144
sg71
g4058
sg64
(lp4145
g57
(g3896
g59
NtRp4146
(dp4147
g62
(dp4148
g3902
S'http://web2py.com/layouts'
p4149
ssg71
g4142
sg64
(lp4150
g3820
(S's\x07\x00\x00\x00Layouts'
tRp4151
asbasbag57
(g3903
g59
NtRp4152
(dp4153
g62
(dp4154
sg71
g4058
sg64
(lp4155
g57
(g3896
g59
NtRp4156
(dp4157
g62
(dp4158
g3902
S'http://web2pyslices.com/'
p4159
ssg71
g4152
sg64
(lp4160
g3820
(S's\x07\x00\x00\x00Recipes'
tRp4161
asbasbag57
(g3903
g59
NtRp4162
(dp4163
g62
(dp4164
sg71
g4058
sg64
(lp4165
g57
(g3896
g59
NtRp4166
(dp4167
g62
(dp4168
g3902
S'http://web2py.com/semantic'
p4169
ssg71
g4162
sg64
(lp4170
g3820
(S's\x08\x00\x00\x00Semantic'
tRp4171
asbasbasbasbag57
(g3903
g59
NtRp4172
(dp4173
g62
(dp4174
g3907
g3908
ssg71
g3930
sg64
(lp4175
g57
(g3896
g59
NtRp4176
(dp4177
g62
(dp4178
g3902
S'http://www.web2py.com/book'
p4179
ssg71
g4172
sg64
(lp4180
g3820
(S's\r\x00\x00\x00Documentation'
tRp4181
asbag57
(g3909
g59
NtRp4182
(dp4183
g62
(dp4184
g3907
g3917
ssg71
g4172
sg64
(lp4185
g57
(g3903
g59
NtRp4186
(dp4187
g62
(dp4188
sg71
g4182
sg64
(lp4189
g57
(g3896
g59
NtRp4190
(dp4191
g62
(dp4192
g3902
S'http://www.web2py.com/book/default/chapter/00'
p4193
ssg71
g4186
sg64
(lp4194
g3820
(S's\x07\x00\x00\x00Preface'
tRp4195
asbasbag57
(g3903
g59
NtRp4196
(dp4197
g62
(dp4198
sg71
g4182
sg64
(lp4199
g57
(g3896
g59
NtRp4200
(dp4201
g62
(dp4202
g3902
S'http://www.web2py.com/book/default/chapter/01'
p4203
ssg71
g4196
sg64
(lp4204
g3820
(S's\x0c\x00\x00\x00Introduction'
tRp4205
asbasbag57
(g3903
g59
NtRp4206
(dp4207
g62
(dp4208
sg71
g4182
sg64
(lp4209
g57
(g3896
g59
NtRp4210
(dp4211
g62
(dp4212
g3902
S'http://www.web2py.com/book/default/chapter/02'
p4213
ssg71
g4206
sg64
(lp4214
g3820
(S's\x06\x00\x00\x00Python'
tRp4215
asbasbag57
(g3903
g59
NtRp4216
(dp4217
g62
(dp4218
sg71
g4182
sg64
(lp4219
g57
(g3896
g59
NtRp4220
(dp4221
g62
(dp4222
g3902
S'http://www.web2py.com/book/default/chapter/03'
p4223
ssg71
g4216
sg64
(lp4224
g3820
(S's\x08\x00\x00\x00Overview'
tRp4225
asbasbag57
(g3903
g59
NtRp4226
(dp4227
g62
(dp4228
sg71
g4182
sg64
(lp4229
g57
(g3896
g59
NtRp4230
(dp4231
g62
(dp4232
g3902
S'http://www.web2py.com/book/default/chapter/04'
p4233
ssg71
g4226
sg64
(lp4234
g3820
(S's\x08\x00\x00\x00The Core'
tRp4235
asbasbag57
(g3903
g59
NtRp4236
(dp4237
g62
(dp4238
sg71
g4182
sg64
(lp4239
g57
(g3896
g59
NtRp4240
(dp4241
g62
(dp4242
g3902
S'http://www.web2py.com/book/default/chapter/05'
p4243
ssg71
g4236
sg64
(lp4244
g3820
(S's\t\x00\x00\x00The Views'
tRp4245
asbasbag57
(g3903
g59
NtRp4246
(dp4247
g62
(dp4248
sg71
g4182
sg64
(lp4249
g57
(g3896
g59
NtRp4250
(dp4251
g62
(dp4252
g3902
S'http://www.web2py.com/book/default/chapter/06'
p4253
ssg71
g4246
sg64
(lp4254
g3820
(S's\x08\x00\x00\x00Database'
tRp4255
asbasbag57
(g3903
g59
NtRp4256
(dp4257
g62
(dp4258
sg71
g4182
sg64
(lp4259
g57
(g3896
g59
NtRp4260
(dp4261
g62
(dp4262
g3902
S'http://www.web2py.com/book/default/chapter/07'
p4263
ssg71
g4256
sg64
(lp4264
g3820
(S's\x14\x00\x00\x00Forms and Validators'
tRp4265
asbasbag57
(g3903
g59
NtRp4266
(dp4267
g62
(dp4268
sg71
g4182
sg64
(lp4269
g57
(g3896
g59
NtRp4270
(dp4271
g62
(dp4272
g3902
S'http://www.web2py.com/book/default/chapter/08'
p4273
ssg71
g4266
sg64
(lp4274
g3820
(S's\r\x00\x00\x00Email and SMS'
tRp4275
asbasbag57
(g3903
g59
NtRp4276
(dp4277
g62
(dp4278
sg71
g4182
sg64
(lp4279
g57
(g3896
g59
NtRp4280
(dp4281
g62
(dp4282
g3902
S'http://www.web2py.com/book/default/chapter/09'
p4283
ssg71
g4276
sg64
(lp4284
g3820
(S's\x0e\x00\x00\x00Access Control'
tRp4285
asbasbag57
(g3903
g59
NtRp4286
(dp4287
g62
(dp4288
sg71
g4182
sg64
(lp4289
g57
(g3896
g59
NtRp4290
(dp4291
g62
(dp4292
g3902
S'http://www.web2py.com/book/default/chapter/10'
p4293
ssg71
g4286
sg64
(lp4294
g3820
(S's\x08\x00\x00\x00Services'
tRp4295
asbasbag57
(g3903
g59
NtRp4296
(dp4297
g62
(dp4298
sg71
g4182
sg64
(lp4299
g57
(g3896
g59
NtRp4300
(dp4301
g62
(dp4302
g3902
S'http://www.web2py.com/book/default/chapter/11'
p4303
ssg71
g4296
sg64
(lp4304
g3820
(S's\x0c\x00\x00\x00Ajax Recipes'
tRp4305
asbasbag57
(g3903
g59
NtRp4306
(dp4307
g62
(dp4308
sg71
g4182
sg64
(lp4309
g57
(g3896
g59
NtRp4310
(dp4311
g62
(dp4312
g3902
S'http://www.web2py.com/book/default/chapter/12'
p4313
ssg71
g4306
sg64
(lp4314
g3820
(S's\x16\x00\x00\x00Components and Plugins'
tRp4315
asbasbag57
(g3903
g59
NtRp4316
(dp4317
g62
(dp4318
sg71
g4182
sg64
(lp4319
g57
(g3896
g59
NtRp4320
(dp4321
g62
(dp4322
g3902
S'http://www.web2py.com/book/default/chapter/13'
p4323
ssg71
g4316
sg64
(lp4324
g3820
(S's\x12\x00\x00\x00Deployment Recipes'
tRp4325
asbasbag57
(g3903
g59
NtRp4326
(dp4327
g62
(dp4328
sg71
g4182
sg64
(lp4329
g57
(g3896
g59
NtRp4330
(dp4331
g62
(dp4332
g3902
S'http://www.web2py.com/book/default/chapter/14'
p4333
ssg71
g4326
sg64
(lp4334
g3820
(S's\r\x00\x00\x00Other Recipes'
tRp4335
asbasbag57
(g3903
g59
NtRp4336
(dp4337
g62
(dp4338
sg71
g4182
sg64
(lp4339
g57
(g3896
g59
NtRp4340
(dp4341
g62
(dp4342
g3902
S'http://stores.lulu.com/web2py'
p4343
ssg71
g4336
sg64
(lp4344
g3820
(S's\r\x00\x00\x00Buy this book'
tRp4345
asbasbasbasbag57
(g3903
g59
NtRp4346
(dp4347
g62
(dp4348
g3907
g3908
ssg71
g3930
sg64
(lp4349
g57
(g3896
g59
NtRp4350
(dp4351
g62
(dp4352
g3900
g3901
sg3902
S'#'
ssg71
g4346
sg64
(lp4353
g3820
(S's\t\x00\x00\x00Community'
tRp4354
asbag57
(g3909
g59
NtRp4355
(dp4356
g62
(dp4357
g3907
g3917
ssg71
g4346
sg64
(lp4358
g57
(g3903
g59
NtRp4359
(dp4360
g62
(dp4361
sg71
g4355
sg64
(lp4362
g57
(g3896
g59
NtRp4363
(dp4364
g62
(dp4365
g3902
S'http://www.web2py.com/examples/default/usergroups'
p4366
ssg71
g4359
sg64
(lp4367
g3820
(S's\x06\x00\x00\x00Groups'
tRp4368
asbasbag57
(g3903
g59
NtRp4369
(dp4370
g62
(dp4371
sg71
g4355
sg64
(lp4372
g57
(g3896
g59
NtRp4373
(dp4374
g62
(dp4375
g3902
S'http://twitter.com/web2py'
p4376
ssg71
g4369
sg64
(lp4377
g3820
(S's\x07\x00\x00\x00Twitter'
tRp4378
asbasbag57
(g3903
g59
NtRp4379
(dp4380
g62
(dp4381
sg71
g4355
sg64
(lp4382
g57
(g3896
g59
NtRp4383
(dp4384
g62
(dp4385
g3902
S'http://webchat.freenode.net/?channels=web2py'
p4386
ssg71
g4379
sg64
(lp4387
g3820
(S's\t\x00\x00\x00Live Chat'
tRp4388
asbasbasbasbag57
(g3903
g59
NtRp4389
(dp4390
g62
(dp4391
g3907
g3908
ssg71
g3930
sg64
(lp4392
g57
(g3896
g59
NtRp4393
(dp4394
g62
(dp4395
g3900
g3901
sg3902
S'#'
ssg71
g4389
sg64
(lp4396
g3820
(S's\x07\x00\x00\x00Plugins'
tRp4397
asbag57
(g3909
g59
NtRp4398
(dp4399
g62
(dp4400
g3907
g3917
ssg71
g4389
sg64
(lp4401
g57
(g3903
g59
NtRp4402
(dp4403
g62
(dp4404
sg71
g4398
sg64
(lp4405
g57
(g3896
g59
NtRp4406
(dp4407
g62
(dp4408
g3902
S'http://web2py.com/examples/default/download'
p4409
ssg71
g4402
sg64
(lp4410
S'plugin_wiki'
p4411
asbasbag57
(g3903
g59
NtRp4412
(dp4413
g62
(dp4414
sg71
g4398
sg64
(lp4415
g57
(g3896
g59
NtRp4416
(dp4417
g62
(dp4418
g3902
g4139
ssg71
g4412
sg64
(lp4419
g3820
(S's\r\x00\x00\x00Other Plugins'
tRp4420
asbasbag57
(g3903
g59
NtRp4421
(dp4422
g62
(dp4423
sg71
g4398
sg64
(lp4424
g57
(g3896
g59
NtRp4425
(dp4426
g62
(dp4427
g3902
g4149
ssg71
g4421
sg64
(lp4428
g3820
(S's\x0e\x00\x00\x00Layout Plugins'
tRp4429
asbasbasbasbasbasbsg64
(lp4430
g3892
asbsg64
(lp4431
g3766
asbasbasbasbag57
(g73
g59
NtRp4432
(dp4433
g62
(dp4434
sg71
g3875
sg64
(lp4435
g57
(g78
g59
NtRp4436
(dp4437
g62
(dp4438
sg71
g4432
sg64
(lp4439
g57
(g58
g59
NtRp4440
(dp4441
g62
(dp4442
g70
I3
ssg71
g4436
sg64
(lp4443
g100
asbasbasbag57
(g73
g59
NtRp4444
(dp4445
g62
(dp4446
sg71
g3875
sg64
(lp4447
g57
(g78
g59
NtRp4448
(dp4449
g62
(dp4450
sg71
g4444
sg64
(lp4451
g57
(g58
g59
NtRp4452
(dp4453
g62
(dp4454
g70
I3
ssg71
g4448
sg64
(lp4455
S'None'
p4456
asbasbasbag57
(g73
g59
NtRp4457
(dp4458
g62
(dp4459
sg71
g3875
sg64
(lp4460
g57
(g78
g59
NtRp4461
(dp4462
g62
(dp4463
sg71
g4457
sg64
(lp4464
g57
(g58
g59
NtRp4465
(dp4466
g62
(dp4467
g70
I3
ssg71
g4461
sg64
(lp4468
g57
(g66
g59
NtRp4469
(dp4470
g62
(dp4471
g70
I2
ssg71
Nsg64
(lp4472
g57
(g73
g59
NtRp4473
(dp4474
g62
(dp4475
sg71
g4469
sg64
(lp4476
g57
(g78
g59
NtRp4477
(dp4478
g62
(dp4479
sg71
g4473
sg64
(lp4480
g57
(g58
g59
NtRp4481
(dp4482
g62
(dp4483
g70
I2
ssg71
g4477
sg64
(lp4484
g57
(g66
g59
NtRp4485
(dp4486
g62
(dp4487
g70
I1
ssg71
Nsg64
(lp4488
g57
(g73
g59
NtRp4489
(dp4490
g62
(dp4491
sg71
g4485
sg64
(lp4492
g57
(g78
g59
NtRp4493
(dp4494
g62
(dp4495
sg71
g4489
sg64
(lp4496
g57
(g58
g59
NtRp4497
(dp4498
g62
(dp4499
g70
I1
ssg71
g4493
sg64
(lp4500
g3943
asbasbasbag57
(g73
g59
NtRp4501
(dp4502
g62
(dp4503
sg71
g4485
sg64
(lp4504
g57
(g78
g59
NtRp4505
(dp4506
g62
(dp4507
sg71
g4501
sg64
(lp4508
g57
(g58
g59
NtRp4509
(dp4510
g62
(dp4511
g70
I1
ssg71
g4505
sg64
(lp4512
I00
asbasbasbag57
(g73
g59
NtRp4513
(dp4514
g62
(dp4515
sg71
g4485
sg64
(lp4516
g57
(g78
g59
NtRp4517
(dp4518
g62
(dp4519
sg71
g4513
sg64
(lp4520
g57
(g58
g59
NtRp4521
(dp4522
g62
(dp4523
g70
I1
ssg71
g4517
sg64
(lp4524
g3941
asbasbasbasbasbasbasbag57
(g73
g59
NtRp4525
(dp4526
g62
(dp4527
sg71
g4469
sg64
(lp4528
g57
(g78
g59
NtRp4529
(dp4530
g62
(dp4531
sg71
g4525
sg64
(lp4532
g57
(g58
g59
NtRp4533
(dp4534
g62
(dp4535
g70
I2
ssg71
g4529
sg64
(lp4536
g57
(g66
g59
NtRp4537
(dp4538
g62
(dp4539
g70
I1
ssg71
Nsg64
(lp4540
g57
(g73
g59
NtRp4541
(dp4542
g62
(dp4543
sg71
g4537
sg64
(lp4544
g57
(g78
g59
NtRp4545
(dp4546
g62
(dp4547
sg71
g4541
sg64
(lp4548
g57
(g58
g59
NtRp4549
(dp4550
g62
(dp4551
g70
I1
ssg71
g4545
sg64
(lp4552
g3953
asbasbasbag57
(g73
g59
NtRp4553
(dp4554
g62
(dp4555
sg71
g4537
sg64
(lp4556
g57
(g78
g59
NtRp4557
(dp4558
g62
(dp4559
sg71
g4553
sg64
(lp4560
g57
(g58
g59
NtRp4561
(dp4562
g62
(dp4563
g70
I1
ssg71
g4557
sg64
(lp4564
I00
asbasbasbag57
(g73
g59
NtRp4565
(dp4566
g62
(dp4567
sg71
g4537
sg64
(lp4568
g57
(g78
g59
NtRp4569
(dp4570
g62
(dp4571
sg71
g4565
sg64
(lp4572
g57
(g58
g59
NtRp4573
(dp4574
g62
(dp4575
g70
I1
ssg71
g4569
sg64
(lp4576
g3951
asbasbasbag57
(g73
g59
NtRp4577
(dp4578
g62
(dp4579
sg71
g4537
sg64
(lp4580
g57
(g78
g59
NtRp4581
(dp4582
g62
(dp4583
sg71
g4577
sg64
(lp4584
g57
(g58
g59
NtRp4585
(dp4586
g62
(dp4587
g70
I1
ssg71
g4581
sg64
(lp4588
(lp4589
(g3967
I00
g3965
tp4590
a(g3977
I00
g3975
tp4591
a(g3987
I00
g3985
tp4592
a(g3997
I00
g3995
tp4593
a(g4007
I00
g4005
tp4594
a(g4017
I00
g4015
tp4595
a(g4027
I00
g4025
tp4596
a(g4037
I00
g4035
tp4597
a(g4047
I00
g4045
tp4598
aasbasbasbasbasbasbasbag57
(g73
g59
NtRp4599
(dp4600
g62
(dp4601
sg71
g4469
sg64
(lp4602
g57
(g78
g59
NtRp4603
(dp4604
g62
(dp4605
sg71
g4599
sg64
(lp4606
g57
(g58
g59
NtRp4607
(dp4608
g62
(dp4609
g70
I2
ssg71
g4603
sg64
(lp4610
g57
(g66
g59
NtRp4611
(dp4612
g62
(dp4613
g70
I1
ssg71
Nsg64
(lp4614
g57
(g73
g59
NtRp4615
(dp4616
g62
(dp4617
sg71
g4611
sg64
(lp4618
g57
(g78
g59
NtRp4619
(dp4620
g62
(dp4621
sg71
g4615
sg64
(lp4622
g57
(g58
g59
NtRp4623
(dp4624
g62
(dp4625
g70
I1
ssg71
g4619
sg64
(lp4626
g4057
asbasbasbag57
(g73
g59
NtRp4627
(dp4628
g62
(dp4629
sg71
g4611
sg64
(lp4630
g57
(g78
g59
NtRp4631
(dp4632
g62
(dp4633
sg71
g4627
sg64
(lp4634
g57
(g58
g59
NtRp4635
(dp4636
g62
(dp4637
g70
I1
ssg71
g4631
sg64
(lp4638
I00
asbasbasbag57
(g73
g59
NtRp4639
(dp4640
g62
(dp4641
sg71
g4611
sg64
(lp4642
g57
(g78
g59
NtRp4643
(dp4644
g62
(dp4645
sg71
g4639
sg64
(lp4646
g57
(g58
g59
NtRp4647
(dp4648
g62
(dp4649
g70
I1
ssg71
g4643
sg64
(lp4650
g4055
asbasbasbag57
(g73
g59
NtRp4651
(dp4652
g62
(dp4653
sg71
g4611
sg64
(lp4654
g57
(g78
g59
NtRp4655
(dp4656
g62
(dp4657
sg71
g4651
sg64
(lp4658
g57
(g58
g59
NtRp4659
(dp4660
g62
(dp4661
g70
I1
ssg71
g4655
sg64
(lp4662
(lp4663
(g4071
I00
g4069
tp4664
a(g4081
I00
g4079
tp4665
a(g4091
I00
g4089
tp4666
a(g4101
I00
g4099
tp4667
a(g4111
I00
g4109
tp4668
a(g4121
I00
g4119
tp4669
a(g4131
I00
g4129
tp4670
a(g4141
I00
g4139
tp4671
a(g4151
I00
g4149
tp4672
a(g4161
I00
g4159
tp4673
a(g4171
I00
g4169
tp4674
aasbasbasbasbasbasbasbag57
(g73
g59
NtRp4675
(dp4676
g62
(dp4677
sg71
g4469
sg64
(lp4678
g57
(g78
g59
NtRp4679
(dp4680
g62
(dp4681
sg71
g4675
sg64
(lp4682
g57
(g58
g59
NtRp4683
(dp4684
g62
(dp4685
g70
I2
ssg71
g4679
sg64
(lp4686
g57
(g66
g59
NtRp4687
(dp4688
g62
(dp4689
g70
I1
ssg71
Nsg64
(lp4690
g57
(g73
g59
NtRp4691
(dp4692
g62
(dp4693
sg71
g4687
sg64
(lp4694
g57
(g78
g59
NtRp4695
(dp4696
g62
(dp4697
sg71
g4691
sg64
(lp4698
g57
(g58
g59
NtRp4699
(dp4700
g62
(dp4701
g70
I1
ssg71
g4695
sg64
(lp4702
g4181
asbasbasbag57
(g73
g59
NtRp4703
(dp4704
g62
(dp4705
sg71
g4687
sg64
(lp4706
g57
(g78
g59
NtRp4707
(dp4708
g62
(dp4709
sg71
g4703
sg64
(lp4710
g57
(g58
g59
NtRp4711
(dp4712
g62
(dp4713
g70
I1
ssg71
g4707
sg64
(lp4714
I00
asbasbasbag57
(g73
g59
NtRp4715
(dp4716
g62
(dp4717
sg71
g4687
sg64
(lp4718
g57
(g78
g59
NtRp4719
(dp4720
g62
(dp4721
sg71
g4715
sg64
(lp4722
g57
(g58
g59
NtRp4723
(dp4724
g62
(dp4725
g70
I1
ssg71
g4719
sg64
(lp4726
g4179
asbasbasbag57
(g73
g59
NtRp4727
(dp4728
g62
(dp4729
sg71
g4687
sg64
(lp4730
g57
(g78
g59
NtRp4731
(dp4732
g62
(dp4733
sg71
g4727
sg64
(lp4734
g57
(g58
g59
NtRp4735
(dp4736
g62
(dp4737
g70
I1
ssg71
g4731
sg64
(lp4738
(lp4739
(g4195
I00
g4193
tp4740
a(g4205
I00
g4203
tp4741
a(g4215
I00
g4213
tp4742
a(g4225
I00
g4223
tp4743
a(g4235
I00
g4233
tp4744
a(g4245
I00
g4243
tp4745
a(g4255
I00
g4253
tp4746
a(g4265
I00
g4263
tp4747
a(g4275
I00
g4273
tp4748
a(g4285
I00
g4283
tp4749
a(g4295
I00
g4293
tp4750
a(g4305
I00
g4303
tp4751
a(g4315
I00
g4313
tp4752
a(g4325
I00
g4323
tp4753
a(g4335
I00
g4333
tp4754
a(g4345
I00
g4343
tp4755
aasbasbasbasbasbasbasbag57
(g73
g59
NtRp4756
(dp4757
g62
(dp4758
sg71
g4469
sg64
(lp4759
g57
(g78
g59
NtRp4760
(dp4761
g62
(dp4762
sg71
g4756
sg64
(lp4763
g57
(g58
g59
NtRp4764
(dp4765
g62
(dp4766
g70
I2
ssg71
g4760
sg64
(lp4767
g57
(g66
g59
NtRp4768
(dp4769
g62
(dp4770
g70
I1
ssg71
Nsg64
(lp4771
g57
(g73
g59
NtRp4772
(dp4773
g62
(dp4774
sg71
g4768
sg64
(lp4775
g57
(g78
g59
NtRp4776
(dp4777
g62
(dp4778
sg71
g4772
sg64
(lp4779
g57
(g58
g59
NtRp4780
(dp4781
g62
(dp4782
g70
I1
ssg71
g4776
sg64
(lp4783
g4354
asbasbasbag57
(g73
g59
NtRp4784
(dp4785
g62
(dp4786
sg71
g4768
sg64
(lp4787
g57
(g78
g59
NtRp4788
(dp4789
g62
(dp4790
sg71
g4784
sg64
(lp4791
g57
(g58
g59
NtRp4792
(dp4793
g62
(dp4794
g70
I1
ssg71
g4788
sg64
(lp4795
I00
asbasbasbag57
(g73
g59
NtRp4796
(dp4797
g62
(dp4798
sg71
g4768
sg64
(lp4799
g57
(g78
g59
NtRp4800
(dp4801
g62
(dp4802
sg71
g4796
sg64
(lp4803
g57
(g58
g59
NtRp4804
(dp4805
g62
(dp4806
g70
I1
ssg71
g4800
sg64
(lp4807
Nasbasbasbag57
(g73
g59
NtRp4808
(dp4809
g62
(dp4810
sg71
g4768
sg64
(lp4811
g57
(g78
g59
NtRp4812
(dp4813
g62
(dp4814
sg71
g4808
sg64
(lp4815
g57
(g58
g59
NtRp4816
(dp4817
g62
(dp4818
g70
I1
ssg71
g4812
sg64
(lp4819
(lp4820
(g4368
I00
g4366
tp4821
a(g4378
I00
g4376
tp4822
a(g4388
I00
g4386
tp4823
aasbasbasbasbasbasbasbag57
(g73
g59
NtRp4824
(dp4825
g62
(dp4826
sg71
g4469
sg64
(lp4827
g57
(g78
g59
NtRp4828
(dp4829
g62
(dp4830
sg71
g4824
sg64
(lp4831
g57
(g58
g59
NtRp4832
(dp4833
g62
(dp4834
g70
I2
ssg71
g4828
sg64
(lp4835
g57
(g66
g59
NtRp4836
(dp4837
g62
(dp4838
g70
I1
ssg71
Nsg64
(lp4839
g57
(g73
g59
NtRp4840
(dp4841
g62
(dp4842
sg71
g4836
sg64
(lp4843
g57
(g78
g59
NtRp4844
(dp4845
g62
(dp4846
sg71
g4840
sg64
(lp4847
g57
(g58
g59
NtRp4848
(dp4849
g62
(dp4850
g70
I1
ssg71
g4844
sg64
(lp4851
g4397
asbasbasbag57
(g73
g59
NtRp4852
(dp4853
g62
(dp4854
sg71
g4836
sg64
(lp4855
g57
(g78
g59
NtRp4856
(dp4857
g62
(dp4858
sg71
g4852
sg64
(lp4859
g57
(g58
g59
NtRp4860
(dp4861
g62
(dp4862
g70
I1
ssg71
g4856
sg64
(lp4863
I00
asbasbasbag57
(g73
g59
NtRp4864
(dp4865
g62
(dp4866
sg71
g4836
sg64
(lp4867
g57
(g78
g59
NtRp4868
(dp4869
g62
(dp4870
sg71
g4864
sg64
(lp4871
g57
(g58
g59
NtRp4872
(dp4873
g62
(dp4874
g70
I1
ssg71
g4868
sg64
(lp4875
Nasbasbasbag57
(g73
g59
NtRp4876
(dp4877
g62
(dp4878
sg71
g4836
sg64
(lp4879
g57
(g78
g59
NtRp4880
(dp4881
g62
(dp4882
sg71
g4876
sg64
(lp4883
g57
(g58
g59
NtRp4884
(dp4885
g62
(dp4886
g70
I1
ssg71
g4880
sg64
(lp4887
(lp4888
(g4411
I00
g4409
tp4889
a(g4420
I00
g4139
tp4890
a(g4429
I00
g4149
tp4891
aasbasbasbasbasbasbasbasbasbasbasbasbasbasbasbasbasbasbasbag57
(g73
g59
NtRp4892
(dp4893
g62
(dp4894
sg71
g3159
sg64
(lp4895
g57
(g78
g59
NtRp4896
(dp4897
g62
(dp4898
g82
g83
ssg71
g4892
sg64
(lp4899
S'meta'
p4900
asbag57
(g78
g59
NtRp4901
(dp4902
g62
(dp4903
g89
g90
ssg71
g4892
sg64
(lp4904
S':'
asbag57
(g78
g59
NtRp4905
(dp4906
g62
(dp4907
sg71
g4892
sg64
(lp4908
g57
(g58
g59
NtRp4909
(dp4910
g62
(dp4911
g70
I5
ssg71
g4905
sg64
(lp4912
g57
(g66
g59
NtRp4913
(dp4914
g62
(dp4915
g70
I4
ssg71
Nsg64
(lp4916
g57
(g73
g59
NtRp4917
(dp4918
g62
(dp4919
sg71
g4913
sg64
(lp4920
g57
(g78
g59
NtRp4921
(dp4922
g62
(dp4923
g82
g83
ssg71
g4917
sg64
(lp4924
S'author'
p4925
asbag57
(g78
g59
NtRp4926
(dp4927
g62
(dp4928
g89
g90
ssg71
g4917
sg64
(lp4929
S':'
asbag57
(g78
g59
NtRp4930
(dp4931
g62
(dp4932
sg71
g4917
sg64
(lp4933
g57
(g58
g59
NtRp4934
(dp4935
g62
(dp4936
g70
I4
ssg71
g4930
sg64
(lp4937
S'Your Name <you@example.com>'
p4938
asbasbasbag57
(g73
g59
NtRp4939
(dp4940
g62
(dp4941
sg71
g4913
sg64
(lp4942
g57
(g78
g59
NtRp4943
(dp4944
g62
(dp4945
g82
g83
ssg71
g4939
sg64
(lp4946
S'copyright'
p4947
asbag57
(g78
g59
NtRp4948
(dp4949
g62
(dp4950
g89
g90
ssg71
g4939
sg64
(lp4951
S':'
asbag57
(g78
g59
NtRp4952
(dp4953
g62
(dp4954
sg71
g4939
sg64
(lp4955
g57
(g58
g59
NtRp4956
(dp4957
g62
(dp4958
g70
I4
ssg71
g4952
sg64
(lp4959
S'Copyright 2011'
p4960
asbasbasbag57
(g73
g59
NtRp4961
(dp4962
g62
(dp4963
sg71
g4913
sg64
(lp4964
g57
(g78
g59
NtRp4965
(dp4966
g62
(dp4967
g82
g83
ssg71
g4961
sg64
(lp4968
S'description'
p4969
asbag57
(g78
g59
NtRp4970
(dp4971
g62
(dp4972
g89
g90
ssg71
g4961
sg64
(lp4973
S':'
asbag57
(g78
g59
NtRp4974
(dp4975
g62
(dp4976
sg71
g4961
sg64
(lp4977
g57
(g58
g59
NtRp4978
(dp4979
g62
(dp4980
g70
I4
ssg71
g4974
sg64
(lp4981
S'a cool new app'
p4982
asbasbasbag57
(g73
g59
NtRp4983
(dp4984
g62
(dp4985
sg71
g4913
sg64
(lp4986
g57
(g78
g59
NtRp4987
(dp4988
g62
(dp4989
g82
g83
ssg71
g4983
sg64
(lp4990
S'generator'
p4991
asbag57
(g78
g59
NtRp4992
(dp4993
g62
(dp4994
g89
g90
ssg71
g4983
sg64
(lp4995
S':'
asbag57
(g78
g59
NtRp4996
(dp4997
g62
(dp4998
sg71
g4983
sg64
(lp4999
g57
(g58
g59
NtRp5000
(dp5001
g62
(dp5002
g70
I4
ssg71
g4996
sg64
(lp5003
S'Web2py Web Framework'
p5004
asbasbasbag57
(g73
g59
NtRp5005
(dp5006
g62
(dp5007
sg71
g4913
sg64
(lp5008
g57
(g78
g59
NtRp5009
(dp5010
g62
(dp5011
g82
g83
ssg71
g5005
sg64
(lp5012
S'keywords'
p5013
asbag57
(g78
g59
NtRp5014
(dp5015
g62
(dp5016
g89
g90
ssg71
g5005
sg64
(lp5017
S':'
asbag57
(g78
g59
NtRp5018
(dp5019
g62
(dp5020
sg71
g5005
sg64
(lp5021
g57
(g58
g59
NtRp5022
(dp5023
g62
(dp5024
g70
I4
ssg71
g5018
sg64
(lp5025
S'web2py, python, framework'
p5026
asbasbasbasbasbasbasbag57
(g73
g59
NtRp5027
(dp5028
g62
(dp5029
sg71
g3159
sg64
(lp5030
g57
(g78
g59
NtRp5031
(dp5032
g62
(dp5033
g82
g83
ssg71
g5027
sg64
(lp5034
S'postprocessing'
p5035
asbag57
(g78
g59
NtRp5036
(dp5037
g62
(dp5038
g89
g90
ssg71
g5027
sg64
(lp5039
S':'
asbag57
(g78
g59
NtRp5040
(dp5041
g62
(dp5042
sg71
g5027
sg64
(lp5043
g57
(g58
g59
NtRp5044
(dp5045
g62
(dp5046
g70
I5
ssg71
g5040
sg64
(lp5047
g57
(g66
g59
NtRp5048
(dp5049
g62
(dp5050
g70
I4
ssg71
Nsg64
(lp5051
sbasbasbasbag57
(g73
g59
NtRp5052
(dp5053
g62
(dp5054
sg71
g3159
sg64
(lp5055
g57
(g78
g59
NtRp5056
(dp5057
g62
(dp5058
g82
g83
ssg71
g5052
sg64
(lp5059
S'session_file'
p5060
asbag57
(g78
g59
NtRp5061
(dp5062
g62
(dp5063
g89
g90
ssg71
g5052
sg64
(lp5064
S':'
asbag57
(g78
g59
NtRp5065
(dp5066
g62
(dp5067
sg71
g5052
sg64
(lp5068
g57
(g58
g59
NtRp5069
(dp5070
g62
(dp5071
g70
I5
ssg71
g5065
sg64
(lp5072
S"<open file '/home/famihug/Apps/web2py/applications/test/sessions/127.0.0.1-e5cc216d-0463-4fe8-aefc-620a5f131d3a', mode 'rb+' at 0x996ef40>"
p5073
asbasbasbag57
(g73
g59
NtRp5074
(dp5075
g62
(dp5076
sg71
g3159
sg64
(lp5077
g57
(g78
g59
NtRp5078
(dp5079
g62
(dp5080
g82
g83
ssg71
g5074
sg64
(lp5081
S'session_filename'
p5082
asbag57
(g78
g59
NtRp5083
(dp5084
g62
(dp5085
g89
g90
ssg71
g5074
sg64
(lp5086
S':'
asbag57
(g78
g59
NtRp5087
(dp5088
g62
(dp5089
sg71
g5074
sg64
(lp5090
g57
(g58
g59
NtRp5091
(dp5092
g62
(dp5093
g70
I5
ssg71
g5087
sg64
(lp5094
S'/home/famihug/Apps/web2py/applications/test/sessions/127.0.0.1-e5cc216d-0463-4fe8-aefc-620a5f131d3a'
p5095
asbasbasbag57
(g73
g59
NtRp5096
(dp5097
g62
(dp5098
sg71
g3159
sg64
(lp5099
g57
(g78
g59
NtRp5100
(dp5101
g62
(dp5102
g82
g83
ssg71
g5096
sg64
(lp5103
S'session_id'
p5104
asbag57
(g78
g59
NtRp5105
(dp5106
g62
(dp5107
g89
g90
ssg71
g5096
sg64
(lp5108
S':'
asbag57
(g78
g59
NtRp5109
(dp5110
g62
(dp5111
sg71
g5096
sg64
(lp5112
g57
(g58
g59
NtRp5113
(dp5114
g62
(dp5115
g70
I5
ssg71
g5109
sg64
(lp5116
S'127.0.0.1-e5cc216d-0463-4fe8-aefc-620a5f131d3a'
p5117
asbasbasbag57
(g73
g59
NtRp5118
(dp5119
g62
(dp5120
sg71
g3159
sg64
(lp5121
g57
(g78
g59
NtRp5122
(dp5123
g62
(dp5124
g82
g83
ssg71
g5118
sg64
(lp5125
S'session_id_name'
p5126
asbag57
(g78
g59
NtRp5127
(dp5128
g62
(dp5129
g89
g90
ssg71
g5118
sg64
(lp5130
S':'
asbag57
(g78
g59
NtRp5131
(dp5132
g62
(dp5133
sg71
g5118
sg64
(lp5134
g57
(g58
g59
NtRp5135
(dp5136
g62
(dp5137
g70
I5
ssg71
g5131
sg64
(lp5138
g3216
asbasbasbag57
(g73
g59
NtRp5139
(dp5140
g62
(dp5141
sg71
g3159
sg64
(lp5142
g57
(g78
g59
NtRp5143
(dp5144
g62
(dp5145
g82
g83
ssg71
g5139
sg64
(lp5146
S'session_locked'
p5147
asbag57
(g78
g59
NtRp5148
(dp5149
g62
(dp5150
g89
g90
ssg71
g5139
sg64
(lp5151
S':'
asbag57
(g78
g59
NtRp5152
(dp5153
g62
(dp5154
sg71
g5139
sg64
(lp5155
g57
(g58
g59
NtRp5156
(dp5157
g62
(dp5158
g70
I5
ssg71
g5152
sg64
(lp5159
g1449
asbasbasbag57
(g73
g59
NtRp5160
(dp5161
g62
(dp5162
sg71
g3159
sg64
(lp5163
g57
(g78
g59
NtRp5164
(dp5165
g62
(dp5166
g82
g83
ssg71
g5160
sg64
(lp5167
S'session_new'
p5168
asbag57
(g78
g59
NtRp5169
(dp5170
g62
(dp5171
g89
g90
ssg71
g5160
sg64
(lp5172
S':'
asbag57
(g78
g59
NtRp5173
(dp5174
g62
(dp5175
sg71
g5160
sg64
(lp5176
g57
(g58
g59
NtRp5177
(dp5178
g62
(dp5179
g70
I5
ssg71
g5173
sg64
(lp5180
g100
asbasbasbag57
(g73
g59
NtRp5181
(dp5182
g62
(dp5183
sg71
g3159
sg64
(lp5184
g57
(g78
g59
NtRp5185
(dp5186
g62
(dp5187
g82
g83
ssg71
g5181
sg64
(lp5188
S'status'
p5189
asbag57
(g78
g59
NtRp5190
(dp5191
g62
(dp5192
g89
g90
ssg71
g5181
sg64
(lp5193
S':'
asbag57
(g78
g59
NtRp5194
(dp5195
g62
(dp5196
sg71
g5181
sg64
(lp5197
g57
(g58
g59
NtRp5198
(dp5199
g62
(dp5200
g70
I5
ssg71
g5194
sg64
(lp5201
S'200'
p5202
asbasbasbag57
(g73
g59
NtRp5203
(dp5204
g62
(dp5205
sg71
g3159
sg64
(lp5206
g57
(g78
g59
NtRp5207
(dp5208
g62
(dp5209
g82
g83
ssg71
g5203
sg64
(lp5210
S'subtitle'
p5211
asbag57
(g78
g59
NtRp5212
(dp5213
g62
(dp5214
g89
g90
ssg71
g5203
sg64
(lp5215
S':'
asbag57
(g78
g59
NtRp5216
(dp5217
g62
(dp5218
sg71
g5203
sg64
(lp5219
g57
(g58
g59
NtRp5220
(dp5221
g62
(dp5222
g70
I5
ssg71
g5216
sg64
(lp5223
g3820
(S's\r\x00\x00\x00customize me!'
tRp5224
asbasbasbag57
(g73
g59
NtRp5225
(dp5226
g62
(dp5227
sg71
g3159
sg64
(lp5228
g57
(g78
g59
NtRp5229
(dp5230
g62
(dp5231
g82
g83
ssg71
g5225
sg64
(lp5232
S'title'
p5233
asbag57
(g78
g59
NtRp5234
(dp5235
g62
(dp5236
g89
g90
ssg71
g5225
sg64
(lp5237
S':'
asbag57
(g78
g59
NtRp5238
(dp5239
g62
(dp5240
sg71
g5225
sg64
(lp5241
g57
(g58
g59
NtRp5242
(dp5243
g62
(dp5244
g70
I5
ssg71
g5238
sg64
(lp5245
S'Test'
p5246
asbasbasbag57
(g73
g59
NtRp5247
(dp5248
g62
(dp5249
sg71
g3159
sg64
(lp5250
g57
(g78
g59
NtRp5251
(dp5252
g62
(dp5253
g82
g83
ssg71
g5247
sg64
(lp5254
g2113
asbag57
(g78
g59
NtRp5255
(dp5256
g62
(dp5257
g89
g90
ssg71
g5247
sg64
(lp5258
S':'
asbag57
(g78
g59
NtRp5259
(dp5260
g62
(dp5261
sg71
g5247
sg64
(lp5262
g57
(g58
g59
NtRp5263
(dp5264
g62
(dp5265
g70
I5
ssg71
g5259
sg64
(lp5266
g2126
asbasbasbag57
(g73
g59
NtRp5267
(dp5268
g62
(dp5269
sg71
g3159
sg64
(lp5270
g57
(g78
g59
NtRp5271
(dp5272
g62
(dp5273
g82
g83
ssg71
g5267
sg64
(lp5274
S'view'
p5275
asbag57
(g78
g59
NtRp5276
(dp5277
g62
(dp5278
g89
g90
ssg71
g5267
sg64
(lp5279
S':'
asbag57
(g78
g59
NtRp5280
(dp5281
g62
(dp5282
sg71
g5267
sg64
(lp5283
g57
(g58
g59
NtRp5284
(dp5285
g62
(dp5286
g70
I5
ssg71
g5280
sg64
(lp5287
S'default/index.html'
p5288
asbasbasbasbasbsS'locals'
p5289
(dp5290
S'Service'
p5291
S"<class 'gluon.tools.Service'>"
p5292
sS'OBJECT'
p5293
S"<class 'gluon.html.OBJECT'>"
p5294
sS'SQLDB'
p5295
S"<class 'gluon.dal.DAL'>"
p5296
sg2786
S"<Storage {'_formkey[tasks/create]': '38d39952-2e...login]': '4393f8bf-ee7c-4009-8ae0-841eb925f31e'}>"
p5297
sS'LINK'
p5298
S"<class 'gluon.html.LINK'>"
p5299
sS'BR'
p5300
S"<class 'gluon.html.BR'>"
p5301
sS'local_import'
p5302
S'<function <lambda>>'
p5303
sS'OPTGROUP'
p5304
S"<class 'gluon.html.OPTGROUP'>"
p5305
sS'__package__'
p5306
S'None'
p5307
sS'PRE'
p5308
S"<class 'gluon.html.PRE'>"
p5309
sS'IS_INT_IN_RANGE'
p5310
S"<class 'gluon.validators.IS_INT_IN_RANGE'>"
p5311
sS'left_sidebar_enabled'
p5312
g100
sS'IS_LOWER'
p5313
S"<class 'gluon.validators.IS_LOWER'>"
p5314
sS'IS_STRONG'
p5315
S"<class 'gluon.validators.IS_STRONG'>"
p5316
sS'cache'
p5317
S'<gluon.cache.Cache object>'
p5318
sS'IS_IN_DB'
p5319
S"<class 'gluon.validators.IS_IN_DB'>"
p5320
sS'TAG'
p5321
S'<gluon.html.__TAG__ object>'
p5322
sS'SQLField'
p5323
S"<class 'gluon.dal.Field'>"
p5324
sS'mail'
p5325
S'<gluon.tools.Mail object>'
p5326
sS'BODY'
p5327
S"<class 'gluon.html.BODY'>"
p5328
sS'IS_DATE_IN_RANGE'
p5329
S"<class 'gluon.validators.IS_DATE_IN_RANGE'>"
p5330
sS'TH'
p5331
S"<class 'gluon.html.TH'>"
p5332
sS'URL'
p5333
S'<function URL>'
p5334
sS'__file__'
p5335
S"'/home/famihug/Apps/web2py/applications/test/views/default/index.html'"
p5336
sS'db'
p5337
S"<DAL {'auth_event': <Table {'origin': <gluon.dal...n_key': <gluon.dal.Field object at 0x99649cc>}>}>"
p5338
sS'auth'
p5339
S'<gluon.tools.Auth object>'
p5340
sS'P'
S"<class 'gluon.html.P'>"
p5341
sS'TFOOT'
p5342
S"<class 'gluon.html.TFOOT'>"
p5343
sS'XHTML'
p5344
S"<class 'gluon.html.XHTML'>"
p5345
sS'ON'
p5346
g1449
sS'OL'
p5347
S"<class 'gluon.html.OL'>"
p5348
sS'TEXTAREA'
p5349
S"<class 'gluon.html.TEXTAREA'>"
p5350
sS'MENU'
p5351
S"<class 'gluon.html.MENU'>"
p5352
sS'LOAD'
p5353
S'<function LOAD>'
p5354
sS'CODE'
p5355
S"<class 'gluon.html.CODE'>"
p5356
sS'HTTP'
p5357
S"<class 'gluon.http.HTTP'>"
p5358
sS'HR'
p5359
S"<class 'gluon.html.HR'>"
p5360
sS'IS_DATETIME'
p5361
S"<class 'gluon.validators.IS_DATETIME'>"
p5362
sS'HEAD'
p5363
S"<class 'gluon.html.HEAD'>"
p5364
sS'LABEL'
p5365
S"<class 'gluon.html.LABEL'>"
p5366
sS'CLEANUP'
p5367
S"<class 'gluon.validators.CLEANUP'>"
p5368
sS'plugins'
p5369
S'<gluon.tools.PluginManager object>'
p5370
sS'SELECT'
p5371
S"<class 'gluon.html.SELECT'>"
p5372
sS'use_janrain'
p5373
S'<function use_janrain>'
p5374
sS'CENTER'
p5375
S"<class 'gluon.html.CENTER'>"
p5376
sS'prettydate'
p5377
S'<function prettydate>'
p5378
sS'Crud'
p5379
S"<class 'gluon.tools.Crud'>"
p5380
sS'Auth'
p5381
S"<class 'gluon.tools.Auth'>"
p5382
sS'__builtins__'
p5383
S"{'ArithmeticError': <type 'exceptions.ArithmeticError'>, 'AssertionError': <type 'exceptions.AssertionError'>, 'AttributeError': <type 'exceptions.AttributeError'>, 'BaseException': <type 'exceptions.BaseException'>, 'BufferError': <type 'exceptions.BufferError'>, 'BytesWarning': <type 'exceptions.BytesWarning'>, 'DeprecationWarning': <type 'exceptions.DeprecationWarning'>, 'EOFError': <type 'exceptions.EOFError'>, 'Ellipsis': Ellipsis, 'EnvironmentError': <type 'exceptions.EnvironmentError'>, ...}"
p5384
sS'HTML'
p5385
S"<class 'gluon.html.HTML'>"
p5386
sS'SQLFORM'
p5387
S"<class 'gluon.sqlhtml.SQLFORM'>"
p5388
sS'EM'
p5389
S"<class 'gluon.html.EM'>"
p5390
sS'redirect'
p5391
S'<function redirect>'
p5392
sS'FIELDSET'
p5393
S"<class 'gluon.html.FIELDSET'>"
p5394
sS'IS_EQUAL_TO'
p5395
S"<class 'gluon.validators.IS_EQUAL_TO'>"
p5396
sS'embed64'
p5397
S'<function embed64>'
p5398
sS'IS_LIST_OF'
p5399
S"<class 'gluon.validators.IS_LIST_OF'>"
p5400
sS'__name__'
p5401
S"'__restricted__'"
p5402
sS'EMBED'
p5403
S"<class 'gluon.html.EMBED'>"
p5404
sS'_'
S'<function _>'
p5405
sS'FORM'
p5406
S"<class 'gluon.html.FORM'>"
p5407
sS'H2'
p5408
S"<class 'gluon.html.H2'>"
p5409
sS'H3'
p5410
S"<class 'gluon.html.H3'>"
p5411
sS'BUTTON'
p5412
S"<class 'gluon.html.BUTTON'>"
p5413
sS'H1'
p5414
S"<class 'gluon.html.H1'>"
p5415
sS'H6'
p5416
S"<class 'gluon.html.H6'>"
p5417
sS'H4'
p5418
S"<class 'gluon.html.H4'>"
p5419
sS'H5'
p5420
S"<class 'gluon.html.H5'>"
p5421
sS'UL'
p5422
S"<class 'gluon.html.UL'>"
p5423
sS'IS_UPPER'
p5424
S"<class 'gluon.validators.IS_UPPER'>"
p5425
sS'xmlescape'
p5426
S'<function xmlescape>'
p5427
sS'IS_TIME'
p5428
S"<class 'gluon.validators.IS_TIME'>"
p5429
sS'tasks'
p5430
S'<gluon.dal.Rows object>'
p5431
sS'OPTION'
p5432
S"<class 'gluon.html.OPTION'>"
p5433
sS'TITLE'
p5434
S"<class 'gluon.html.TITLE'>"
p5435
sS'CRYPT'
p5436
S"<class 'gluon.validators.CRYPT'>"
p5437
sS'IS_EMPTY_OR'
p5438
S"<class 'gluon.validators.IS_EMPTY_OR'>"
p5439
sS'MARKMIN'
p5440
S"<class 'gluon.html.MARKMIN'>"
p5441
sS'INPUT'
p5442
S"<class 'gluon.html.INPUT'>"
p5443
sS'COL'
p5444
S"<class 'gluon.html.COL'>"
p5445
sS'service'
p5446
S'<gluon.tools.Service object>'
p5447
sS'SCRIPT'
p5448
S"<class 'gluon.html.SCRIPT'>"
p5449
sS'is_mobile'
p5450
g100
sS'TABLE'
p5451
S"<class 'gluon.html.TABLE'>"
p5452
sS'IS_IPV4'
p5453
S"<class 'gluon.validators.IS_IPV4'>"
p5454
sS'IS_LENGTH'
p5455
S"<class 'gluon.validators.IS_LENGTH'>"
p5456
sS'XML'
p5457
S"<class 'gluon.html.XML'>"
p5458
sS'B'
S"<class 'gluon.html.B'>"
p5459
sS'IMG'
p5460
S"<class 'gluon.html.IMG'>"
p5461
sS'SQLTABLE'
p5462
S"<class 'gluon.sqlhtml.SQLTABLE'>"
p5463
sS'IS_MATCH'
p5464
S"<class 'gluon.validators.IS_MATCH'>"
p5465
sS'IS_ALPHANUMERIC'
p5466
S"<class 'gluon.validators.IS_ALPHANUMERIC'>"
p5467
sS'SPAN'
p5468
S"<class 'gluon.html.SPAN'>"
p5469
sS'IS_SLUG'
p5470
S"<class 'gluon.validators.IS_SLUG'>"
p5471
sS'BEAUTIFY'
p5472
S"<class 'gluon.html.BEAUTIFY'>"
p5473
sS'META'
p5474
S"<class 'gluon.html.META'>"
p5475
sS'IS_DATE'
p5476
S"<class 'gluon.validators.IS_DATE'>"
p5477
sS'IS_EMAIL'
p5478
S"<class 'gluon.validators.IS_EMAIL'>"
p5479
sS'IS_NOT_EMPTY'
p5480
S"<class 'gluon.validators.IS_NOT_EMPTY'>"
p5481
sS'IS_FLOAT_IN_RANGE'
p5482
S"<class 'gluon.validators.IS_FLOAT_IN_RANGE'>"
p5483
sS'TBODY'
p5484
S"<class 'gluon.html.TBODY'>"
p5485
sS'CAT'
p5486
S"<class 'gluon.html.CAT'>"
p5487
sS'Field'
p5488
S"<class 'gluon.dal.Field'>"
p5489
sS'middle_columns'
p5490
S"'twelve'"
p5491
sS'DIV'
p5492
S"<class 'gluon.html.DIV'>"
p5493
sS'LEGEND'
p5494
S"<class 'gluon.html.LEGEND'>"
p5495
sS'COLGROUP'
p5496
S"<class 'gluon.html.COLGROUP'>"
p5497
sS'DAL'
p5498
S"<class 'gluon.dal.DAL'>"
p5499
sS'TT'
p5500
S"<class 'gluon.html.TT'>"
p5501
sS'TR'
p5502
S"<class 'gluon.html.TR'>"
p5503
sS'LI'
p5504
S"<class 'gluon.html.LI'>"
p5505
sS'right_sidebar_enabled'
p5506
g1449
sS'IFRAME'
p5507
S"<class 'gluon.html.IFRAME'>"
p5508
sS'TD'
p5509
S"<class 'gluon.html.TD'>"
p5510
sS'PluginManager'
p5511
S"<class 'gluon.tools.PluginManager'>"
p5512
sS'IS_URL'
p5513
S"<class 'gluon.validators.IS_URL'>"
p5514
sS'A'
S"<class 'gluon.html.A'>"
p5515
sS'STYLE'
p5516
S"<class 'gluon.html.STYLE'>"
p5517
sS'IS_DATETIME_IN_RANGE'
p5518
S"<class 'gluon.validators.IS_DATETIME_IN_RANGE'>"
p5519
sS'IS_IMAGE'
p5520
S"<class 'gluon.validators.IS_IMAGE'>"
p5521
sS'I'
S"<class 'gluon.html.I'>"
p5522
sS'crud'
p5523
S'<gluon.tools.Crud object>'
p5524
sS'IS_NOT_IN_DB'
p5525
S"<class 'gluon.validators.IS_NOT_IN_DB'>"
p5526
sg3154
S"<Storage {'body': <cStringIO.StringO object at 0...da> at 0x9b18d14>, 'view': 'default/index.html'}>"
p5527
sS'THEAD'
p5528
S"<class 'gluon.html.THEAD'>"
p5529
sS'IS_NULL_OR'
p5530
S"<class 'gluon.validators.IS_EMPTY_OR'>"
p5531
sg56
S"<Storage {'body': <cStringIO.StringO object at 0..._vars': <Storage {}>, 'post_vars': <Storage {}>}>"
p5532
sS'IS_EXPR'
p5533
S"<class 'gluon.validators.IS_EXPR'>"
p5534
sS'T'
S'<gluon.languages.translator object>'
p5535
sS'IS_IN_SET'
p5536
S"<class 'gluon.validators.IS_IN_SET'>"
p5537
sS'IS_UPLOAD_FILENAME'
p5538
S"<class 'gluon.validators.IS_UPLOAD_FILENAME'>"
p5539
sS'IS_DECIMAL_IN_RANGE'
p5540
S"<class 'gluon.validators.IS_DECIMAL_IN_RANGE'>"
p5541
sssS'traceback'
p5542
S'Traceback (most recent call last):\n  File "/home/famihug/Apps/web2py/gluon/restricted.py", line 205, in restricted\n    exec ccode in environment\n  File "/home/famihug/Apps/web2py/applications/test/views/default/index.html", line 84, in <module>\nNameError: name \'form\' is not defined\n'
p5543
s.