(dp1
S'output'
p2
S"<type 'exceptions.IndentationError'> unexpected indent (default.py, line 18)"
p3
sS'layer'
p4
S'/home/famihug/Apps/web2py/applications/test/controllers/default.py'
p5
sS'code'
p6
S'# -*- coding: utf-8 -*-\n# this file is released under public domain and you can use without limitations\n\n#########################################################################\n## This is a samples controller\n## - index is the default action of any application\n## - user is required for authentication and authorization\n## - download is for downloading files uploaded in the db (does streaming)\n## - call exposes all registered services (none by default)\n#########################################################################\n\ndef index():\n    """\n    example action using the internationalization operator T and flash\n    rendered by views/default/index.html or views/generic.html\n    """\n    response.flash = "Welcome to web2py!"\n\ttasks = db(db.tasks).select(orderby=db.tasks.priority)\n\n    return dict(tasks=tasks)\n\ndef user():\n    """\n    exposes:\n    http://..../[app]/default/user/login\n    http://..../[app]/default/user/logout\n    http://..../[app]/default/user/register\n    http://..../[app]/default/user/profile\n    http://..../[app]/default/user/retrieve_password\n    http://..../[app]/default/user/change_password\n    use @auth.requires_login()\n        @auth.requires_membership(\'group name\')\n        @auth.requires_permission(\'read\',\'table name\',record_id)\n    to decorate functions that need access control\n    """\n    return dict(form=auth())\n\n\ndef download():\n    """\n    allows downloading of uploaded files\n    http://..../[app]/default/download/[filename]\n    """\n    return response.download(request,db)\n\n\ndef call():\n    """\n    exposes services. for example:\n    http://..../[app]/default/call/jsonrpc\n    decorate with @services.jsonrpc the functions to expose\n    supports xml, json, xmlrpc, jsonrpc, amfrpc, rss, csv\n    """\n    return service()\n\n\n#@auth.requires_signature()\ndef data():\n    """\n    http://..../[app]/default/data/tables\n    http://..../[app]/default/data/create/[table]\n    http://..../[app]/default/data/read/[table]/[id]\n    http://..../[app]/default/data/update/[table]/[id]\n    http://..../[app]/default/data/delete/[table]/[id]\n    http://..../[app]/default/data/select/[table]\n    http://..../[app]/default/data/search/[table]\n    but URLs must be signed, i.e. linked with\n      A(\'table\',_href=URL(\'data/tables\',user_signature=True))\n    or with the signed load operator\n      LOAD(\'default\',\'data.load\',args=\'tables\',ajax=True,user_signature=True)\n    """\n    return dict(form=crud())\n\ndb = DAL("sqlite://storage.db")\n\nresponse._vars=response._caller(index)\n'
p7
sS'snapshot'
p8
(dp9
S'exception'
p10
(dp11
S'__getslice__'
p12
S"<method-wrapper '__getslice__' of exceptions.IndentationError object>"
p13
sS'text'
p14
S"'\\ttasks = db(db.tasks).select(orderby=db.tasks.priority)\\n'"
p15
sS'__str__'
p16
S"<method-wrapper '__str__' of exceptions.IndentationError object>"
p17
sS'__reduce__'
p18
S'<built-in method __reduce__ of exceptions.IndentationError object>'
p19
sS'__dict__'
p20
S'{}'
p21
sS'__sizeof__'
p22
S'<built-in method __sizeof__ of exceptions.IndentationError object>'
p23
sS'__init__'
p24
S"<method-wrapper '__init__' of exceptions.IndentationError object>"
p25
sS'__setattr__'
p26
S"<method-wrapper '__setattr__' of exceptions.IndentationError object>"
p27
sS'__reduce_ex__'
p28
S'<built-in method __reduce_ex__ of exceptions.IndentationError object>'
p29
sS'__new__'
p30
S'<built-in method __new__ of type object>'
p31
sS'__format__'
p32
S'<built-in method __format__ of exceptions.IndentationError object>'
p33
sS'__class__'
p34
S"<type 'exceptions.IndentationError'>"
p35
sS'filename'
p36
S"'/home/famihug/Apps/web2py/applications/test/controllers/default.py'"
p37
sS'lineno'
p38
S'18'
p39
sS'msg'
p40
S"'unexpected indent'"
p41
sS'__doc__'
p42
S"'Improper indentation.'"
p43
sS'__getitem__'
p44
S"<method-wrapper '__getitem__' of exceptions.IndentationError object>"
p45
sS'__setstate__'
p46
S'<built-in method __setstate__ of exceptions.IndentationError object>'
p47
sS'__getattribute__'
p48
S"<method-wrapper '__getattribute__' of exceptions.IndentationError object>"
p49
sS'print_file_and_line'
p50
S'None'
p51
sS'args'
p52
S"('unexpected indent', ('/home/famihug/Apps/web2py/applications/test/controllers/default.py', 18, 1, '\\ttasks = db(db.tasks).select(orderby=db.tasks.priority)\\n'))"
p53
sS'__subclasshook__'
p54
S'<built-in method __subclasshook__ of type object>'
p55
sS'offset'
p56
S'1'
sS'__unicode__'
p57
S'<built-in method __unicode__ of exceptions.IndentationError object>'
p58
sS'__delattr__'
p59
S"<method-wrapper '__delattr__' of exceptions.IndentationError object>"
p60
sS'__repr__'
p61
S"<method-wrapper '__repr__' of exceptions.IndentationError object>"
p62
sS'__hash__'
p63
S"<method-wrapper '__hash__' of exceptions.IndentationError object>"
p64
ssS'evalue'
p65
S'unexpected indent (default.py, line 18)'
p66
sS'request'
p67
ccopy_reg
_reconstructor
p68
(cgluon.html
BEAUTIFY
p69
c__builtin__
object
p70
NtRp71
(dp72
S'attributes'
p73
(dp74
sS'components'
p75
(lp76
g68
(cgluon.html
TABLE
p77
g70
NtRp78
(dp79
g73
(dp80
S'level'
p81
I5
ssS'parent'
p82
Nsg75
(lp83
g68
(cgluon.html
TR
p84
g70
NtRp85
(dp86
g73
(dp87
sg82
g78
sg75
(lp88
g68
(cgluon.html
TD
p89
g70
NtRp90
(dp91
g73
(dp92
S'_style'
p93
S'font-weight:bold;vertical-align:top'
p94
ssg82
g85
sg75
(lp95
S'ajax'
p96
asbag68
(g89
g70
NtRp97
(dp98
g73
(dp99
S'_valign'
p100
S'top'
p101
ssg82
g85
sg75
(lp102
S':'
asbag68
(g89
g70
NtRp103
(dp104
g73
(dp105
sg82
g85
sg75
(lp106
g68
(g69
g70
NtRp107
(dp108
g73
(dp109
g81
I5
ssg82
g103
sg75
(lp110
S'False'
p111
asbasbasbag68
(g84
g70
NtRp112
(dp113
g73
(dp114
sg82
g78
sg75
(lp115
g68
(g89
g70
NtRp116
(dp117
g73
(dp118
g93
g94
ssg82
g112
sg75
(lp119
S'application'
p120
asbag68
(g89
g70
NtRp121
(dp122
g73
(dp123
g100
g101
ssg82
g112
sg75
(lp124
S':'
asbag68
(g89
g70
NtRp125
(dp126
g73
(dp127
sg82
g112
sg75
(lp128
g68
(g69
g70
NtRp129
(dp130
g73
(dp131
g81
I5
ssg82
g125
sg75
(lp132
S'test'
p133
asbasbasbag68
(g84
g70
NtRp134
(dp135
g73
(dp136
sg82
g78
sg75
(lp137
g68
(g89
g70
NtRp138
(dp139
g73
(dp140
g93
g94
ssg82
g134
sg75
(lp141
g52
asbag68
(g89
g70
NtRp142
(dp143
g73
(dp144
g100
g101
ssg82
g134
sg75
(lp145
S':'
asbag68
(g89
g70
NtRp146
(dp147
g73
(dp148
sg82
g134
sg75
(lp149
g68
(g69
g70
NtRp150
(dp151
g73
(dp152
g81
I5
ssg82
g146
sg75
(lp153
g68
(g77
g70
NtRp154
(dp155
g73
(dp156
g81
I4
ssg82
Nsg75
(lp157
sbasbasbasbag68
(g84
g70
NtRp158
(dp159
g73
(dp160
sg82
g78
sg75
(lp161
g68
(g89
g70
NtRp162
(dp163
g73
(dp164
g93
g94
ssg82
g158
sg75
(lp165
S'body'
p166
asbag68
(g89
g70
NtRp167
(dp168
g73
(dp169
g100
g101
ssg82
g158
sg75
(lp170
S':'
asbag68
(g89
g70
NtRp171
(dp172
g73
(dp173
sg82
g158
sg75
(lp174
g68
(g69
g70
NtRp175
(dp176
g73
(dp177
g81
I5
ssg82
g171
sg75
(lp178
S'<cStringIO.StringO object at 0x93046c0>'
p179
asbasbasbag68
(g84
g70
NtRp180
(dp181
g73
(dp182
sg82
g78
sg75
(lp183
g68
(g89
g70
NtRp184
(dp185
g73
(dp186
g93
g94
ssg82
g180
sg75
(lp187
S'client'
p188
asbag68
(g89
g70
NtRp189
(dp190
g73
(dp191
g100
g101
ssg82
g180
sg75
(lp192
S':'
asbag68
(g89
g70
NtRp193
(dp194
g73
(dp195
sg82
g180
sg75
(lp196
g68
(g69
g70
NtRp197
(dp198
g73
(dp199
g81
I5
ssg82
g193
sg75
(lp200
S'127.0.0.1'
p201
asbasbasbag68
(g84
g70
NtRp202
(dp203
g73
(dp204
sg82
g78
sg75
(lp205
g68
(g89
g70
NtRp206
(dp207
g73
(dp208
g93
g94
ssg82
g202
sg75
(lp209
S'controller'
p210
asbag68
(g89
g70
NtRp211
(dp212
g73
(dp213
g100
g101
ssg82
g202
sg75
(lp214
S':'
asbag68
(g89
g70
NtRp215
(dp216
g73
(dp217
sg82
g202
sg75
(lp218
g68
(g69
g70
NtRp219
(dp220
g73
(dp221
g81
I5
ssg82
g215
sg75
(lp222
S'default'
p223
asbasbasbag68
(g84
g70
NtRp224
(dp225
g73
(dp226
sg82
g78
sg75
(lp227
g68
(g89
g70
NtRp228
(dp229
g73
(dp230
g93
g94
ssg82
g224
sg75
(lp231
S'cookies'
p232
asbag68
(g89
g70
NtRp233
(dp234
g73
(dp235
g100
g101
ssg82
g224
sg75
(lp236
S':'
asbag68
(g89
g70
NtRp237
(dp238
g73
(dp239
sg82
g224
sg75
(lp240
g68
(g69
g70
NtRp241
(dp242
g73
(dp243
g81
I5
ssg82
g237
sg75
(lp244
g68
(g77
g70
NtRp245
(dp246
g73
(dp247
g81
I4
ssg82
Nsg75
(lp248
g68
(g84
g70
NtRp249
(dp250
g73
(dp251
sg82
g245
sg75
(lp252
g68
(g89
g70
NtRp253
(dp254
g73
(dp255
g93
g94
ssg82
g249
sg75
(lp256
S'session_id_test'
p257
asbag68
(g89
g70
NtRp258
(dp259
g73
(dp260
g100
g101
ssg82
g249
sg75
(lp261
S':'
asbag68
(g89
g70
NtRp262
(dp263
g73
(dp264
sg82
g249
sg75
(lp265
g68
(g69
g70
NtRp266
(dp267
g73
(dp268
g81
I4
ssg82
g262
sg75
(lp269
g68
(g77
g70
NtRp270
(dp271
g73
(dp272
g81
I3
ssg82
Nsg75
(lp273
g68
(g84
g70
NtRp274
(dp275
g73
(dp276
sg82
g270
sg75
(lp277
g68
(g89
g70
NtRp278
(dp279
g73
(dp280
g93
g94
ssg82
g274
sg75
(lp281
S'comment'
p282
asbag68
(g89
g70
NtRp283
(dp284
g73
(dp285
g100
g101
ssg82
g274
sg75
(lp286
S':'
asbag68
(g89
g70
NtRp287
(dp288
g73
(dp289
sg82
g274
sg75
(lp290
g68
(g69
g70
NtRp291
(dp292
g73
(dp293
g81
I3
ssg82
g287
sg75
(lp294
S''
asbasbasbag68
(g84
g70
NtRp295
(dp296
g73
(dp297
sg82
g270
sg75
(lp298
g68
(g89
g70
NtRp299
(dp300
g73
(dp301
g93
g94
ssg82
g295
sg75
(lp302
S'domain'
p303
asbag68
(g89
g70
NtRp304
(dp305
g73
(dp306
g100
g101
ssg82
g295
sg75
(lp307
S':'
asbag68
(g89
g70
NtRp308
(dp309
g73
(dp310
sg82
g295
sg75
(lp311
g68
(g69
g70
NtRp312
(dp313
g73
(dp314
g81
I3
ssg82
g308
sg75
(lp315
S''
asbasbasbag68
(g84
g70
NtRp316
(dp317
g73
(dp318
sg82
g270
sg75
(lp319
g68
(g89
g70
NtRp320
(dp321
g73
(dp322
g93
g94
ssg82
g316
sg75
(lp323
S'expires'
p324
asbag68
(g89
g70
NtRp325
(dp326
g73
(dp327
g100
g101
ssg82
g316
sg75
(lp328
S':'
asbag68
(g89
g70
NtRp329
(dp330
g73
(dp331
sg82
g316
sg75
(lp332
g68
(g69
g70
NtRp333
(dp334
g73
(dp335
g81
I3
ssg82
g329
sg75
(lp336
S''
asbasbasbag68
(g84
g70
NtRp337
(dp338
g73
(dp339
sg82
g270
sg75
(lp340
g68
(g89
g70
NtRp341
(dp342
g73
(dp343
g93
g94
ssg82
g337
sg75
(lp344
S'httponly'
p345
asbag68
(g89
g70
NtRp346
(dp347
g73
(dp348
g100
g101
ssg82
g337
sg75
(lp349
S':'
asbag68
(g89
g70
NtRp350
(dp351
g73
(dp352
sg82
g337
sg75
(lp353
g68
(g69
g70
NtRp354
(dp355
g73
(dp356
g81
I3
ssg82
g350
sg75
(lp357
S''
asbasbasbag68
(g84
g70
NtRp358
(dp359
g73
(dp360
sg82
g270
sg75
(lp361
g68
(g89
g70
NtRp362
(dp363
g73
(dp364
g93
g94
ssg82
g358
sg75
(lp365
S'max-age'
p366
asbag68
(g89
g70
NtRp367
(dp368
g73
(dp369
g100
g101
ssg82
g358
sg75
(lp370
S':'
asbag68
(g89
g70
NtRp371
(dp372
g73
(dp373
sg82
g358
sg75
(lp374
g68
(g69
g70
NtRp375
(dp376
g73
(dp377
g81
I3
ssg82
g371
sg75
(lp378
S''
asbasbasbag68
(g84
g70
NtRp379
(dp380
g73
(dp381
sg82
g270
sg75
(lp382
g68
(g89
g70
NtRp383
(dp384
g73
(dp385
g93
g94
ssg82
g379
sg75
(lp386
S'path'
p387
asbag68
(g89
g70
NtRp388
(dp389
g73
(dp390
g100
g101
ssg82
g379
sg75
(lp391
S':'
asbag68
(g89
g70
NtRp392
(dp393
g73
(dp394
sg82
g379
sg75
(lp395
g68
(g69
g70
NtRp396
(dp397
g73
(dp398
g81
I3
ssg82
g392
sg75
(lp399
S''
asbasbasbag68
(g84
g70
NtRp400
(dp401
g73
(dp402
sg82
g270
sg75
(lp403
g68
(g89
g70
NtRp404
(dp405
g73
(dp406
g93
g94
ssg82
g400
sg75
(lp407
S'secure'
p408
asbag68
(g89
g70
NtRp409
(dp410
g73
(dp411
g100
g101
ssg82
g400
sg75
(lp412
S':'
asbag68
(g89
g70
NtRp413
(dp414
g73
(dp415
sg82
g400
sg75
(lp416
g68
(g69
g70
NtRp417
(dp418
g73
(dp419
g81
I3
ssg82
g413
sg75
(lp420
S''
asbasbasbag68
(g84
g70
NtRp421
(dp422
g73
(dp423
sg82
g270
sg75
(lp424
g68
(g89
g70
NtRp425
(dp426
g73
(dp427
g93
g94
ssg82
g421
sg75
(lp428
S'version'
p429
asbag68
(g89
g70
NtRp430
(dp431
g73
(dp432
g100
g101
ssg82
g421
sg75
(lp433
S':'
asbag68
(g89
g70
NtRp434
(dp435
g73
(dp436
sg82
g421
sg75
(lp437
g68
(g69
g70
NtRp438
(dp439
g73
(dp440
g81
I3
ssg82
g434
sg75
(lp441
S''
asbasbasbasbasbasbasbasbasbasbasbag68
(g84
g70
NtRp442
(dp443
g73
(dp444
sg82
g78
sg75
(lp445
g68
(g89
g70
NtRp446
(dp447
g73
(dp448
g93
g94
ssg82
g442
sg75
(lp449
S'env'
p450
asbag68
(g89
g70
NtRp451
(dp452
g73
(dp453
g100
g101
ssg82
g442
sg75
(lp454
S':'
asbag68
(g89
g70
NtRp455
(dp456
g73
(dp457
sg82
g442
sg75
(lp458
g68
(g69
g70
NtRp459
(dp460
g73
(dp461
g81
I5
ssg82
g455
sg75
(lp462
g68
(g77
g70
NtRp463
(dp464
g73
(dp465
g81
I4
ssg82
Nsg75
(lp466
g68
(g84
g70
NtRp467
(dp468
g73
(dp469
sg82
g463
sg75
(lp470
g68
(g89
g70
NtRp471
(dp472
g73
(dp473
g93
g94
ssg82
g467
sg75
(lp474
S'app_folders'
p475
asbag68
(g89
g70
NtRp476
(dp477
g73
(dp478
g100
g101
ssg82
g467
sg75
(lp479
S':'
asbag68
(g89
g70
NtRp480
(dp481
g73
(dp482
sg82
g467
sg75
(lp483
g68
(g69
g70
NtRp484
(dp485
g73
(dp486
g81
I4
ssg82
g480
sg75
(lp487
S"set(['/home/famihug/Apps/web2py/applications/welcome/', '/home/famihug/Apps/web2py/applications/test/', '/home/famihug/Apps/web2py/applications/examples/'])"
p488
asbasbasbag68
(g84
g70
NtRp489
(dp490
g73
(dp491
sg82
g463
sg75
(lp492
g68
(g89
g70
NtRp493
(dp494
g73
(dp495
g93
g94
ssg82
g489
sg75
(lp496
S'applications_parent'
p497
asbag68
(g89
g70
NtRp498
(dp499
g73
(dp500
g100
g101
ssg82
g489
sg75
(lp501
S':'
asbag68
(g89
g70
NtRp502
(dp503
g73
(dp504
sg82
g489
sg75
(lp505
g68
(g69
g70
NtRp506
(dp507
g73
(dp508
g81
I4
ssg82
g502
sg75
(lp509
S'/home/famihug/Apps/web2py'
p510
asbasbasbag68
(g84
g70
NtRp511
(dp512
g73
(dp513
sg82
g463
sg75
(lp514
g68
(g89
g70
NtRp515
(dp516
g73
(dp517
g93
g94
ssg82
g511
sg75
(lp518
S'cmd_args'
p519
asbag68
(g89
g70
NtRp520
(dp521
g73
(dp522
g100
g101
ssg82
g511
sg75
(lp523
S':'
asbag68
(g89
g70
NtRp524
(dp525
g73
(dp526
sg82
g511
sg75
(lp527
g68
(g69
g70
NtRp528
(dp529
g73
(dp530
g81
I4
ssg82
g524
sg75
(lp531
g68
(g77
g70
NtRp532
(dp533
g73
(dp534
g81
I3
ssg82
Nsg75
(lp535
sbasbasbasbag68
(g84
g70
NtRp536
(dp537
g73
(dp538
sg82
g463
sg75
(lp539
g68
(g89
g70
NtRp540
(dp541
g73
(dp542
g93
g94
ssg82
g536
sg75
(lp543
S'cmd_options'
p544
asbag68
(g89
g70
NtRp545
(dp546
g73
(dp547
g100
g101
ssg82
g536
sg75
(lp548
S':'
asbag68
(g89
g70
NtRp549
(dp550
g73
(dp551
sg82
g536
sg75
(lp552
g68
(g69
g70
NtRp553
(dp554
g73
(dp555
g81
I4
ssg82
g549
sg75
(lp556
S"<Values at 0x90497ec: {'verbose': False, 'ip': '127.0.0.1', 'shutdown_timeout': 5, 'taskbar': False, 'nocron': False, 'pid_filename': 'httpserver.pid', 'maxthreads': None, 'softcron': False, 'server_name': 'hvn.vn', 'bpython': False, 'nogui': False, 'port': 8000, 'extcron': False, 'debuglevel': 30, 'test': None, 'folder': '/home/famihug/Apps/web2py', 'config': '', 'import_models': False, 'winservice': '', 'shell': None, 'run': '', 'log_filename': 'httpserver.log', 'args': [''], 'socket_timeout': 5, 'ssl_ca_certificate': None, 'scheduler': None, 'profiler_filename': None, 'ssl_private_key': '', 'password': 'hehehe', 'request_queue_size': 5, 'ssl_certificate': '', 'cronjob': False, 'numthreads': None, 'quiet': False, 'interfaces': None, 'minthreads': None, 'timeout': 10, 'plain': False, 'nobanner': False}>"
p557
asbasbasbag68
(g84
g70
NtRp558
(dp559
g73
(dp560
sg82
g463
sg75
(lp561
g68
(g89
g70
NtRp562
(dp563
g73
(dp564
g93
g94
ssg82
g558
sg75
(lp565
S'db_sessions'
p566
asbag68
(g89
g70
NtRp567
(dp568
g73
(dp569
g100
g101
ssg82
g558
sg75
(lp570
S':'
asbag68
(g89
g70
NtRp571
(dp572
g73
(dp573
sg82
g558
sg75
(lp574
g68
(g69
g70
NtRp575
(dp576
g73
(dp577
g81
I4
ssg82
g571
sg75
(lp578
S'set([])'
p579
asbasbasbag68
(g84
g70
NtRp580
(dp581
g73
(dp582
sg82
g463
sg75
(lp583
g68
(g89
g70
NtRp584
(dp585
g73
(dp586
g93
g94
ssg82
g580
sg75
(lp587
S'debugging'
p588
asbag68
(g89
g70
NtRp589
(dp590
g73
(dp591
g100
g101
ssg82
g580
sg75
(lp592
S':'
asbag68
(g89
g70
NtRp593
(dp594
g73
(dp595
sg82
g580
sg75
(lp596
g68
(g69
g70
NtRp597
(dp598
g73
(dp599
g81
I4
ssg82
g593
sg75
(lp600
g111
asbasbasbag68
(g84
g70
NtRp601
(dp602
g73
(dp603
sg82
g463
sg75
(lp604
g68
(g89
g70
NtRp605
(dp606
g73
(dp607
g93
g94
ssg82
g601
sg75
(lp608
S'gluon_parent'
p609
asbag68
(g89
g70
NtRp610
(dp611
g73
(dp612
g100
g101
ssg82
g601
sg75
(lp613
S':'
asbag68
(g89
g70
NtRp614
(dp615
g73
(dp616
sg82
g601
sg75
(lp617
g68
(g69
g70
NtRp618
(dp619
g73
(dp620
g81
I4
ssg82
g614
sg75
(lp621
S'/home/famihug/Apps/web2py'
p622
asbasbasbag68
(g84
g70
NtRp623
(dp624
g73
(dp625
sg82
g463
sg75
(lp626
g68
(g89
g70
NtRp627
(dp628
g73
(dp629
g93
g94
ssg82
g623
sg75
(lp630
S'http_accept'
p631
asbag68
(g89
g70
NtRp632
(dp633
g73
(dp634
g100
g101
ssg82
g623
sg75
(lp635
S':'
asbag68
(g89
g70
NtRp636
(dp637
g73
(dp638
sg82
g623
sg75
(lp639
g68
(g69
g70
NtRp640
(dp641
g73
(dp642
g81
I4
ssg82
g636
sg75
(lp643
S'text/html,application/xhtml+xml,application/xml;q=0.9,*/*;q=0.8'
p644
asbasbasbag68
(g84
g70
NtRp645
(dp646
g73
(dp647
sg82
g463
sg75
(lp648
g68
(g89
g70
NtRp649
(dp650
g73
(dp651
g93
g94
ssg82
g645
sg75
(lp652
S'http_accept_encoding'
p653
asbag68
(g89
g70
NtRp654
(dp655
g73
(dp656
g100
g101
ssg82
g645
sg75
(lp657
S':'
asbag68
(g89
g70
NtRp658
(dp659
g73
(dp660
sg82
g645
sg75
(lp661
g68
(g69
g70
NtRp662
(dp663
g73
(dp664
g81
I4
ssg82
g658
sg75
(lp665
S'gzip, deflate'
p666
asbasbasbag68
(g84
g70
NtRp667
(dp668
g73
(dp669
sg82
g463
sg75
(lp670
g68
(g89
g70
NtRp671
(dp672
g73
(dp673
g93
g94
ssg82
g667
sg75
(lp674
S'http_accept_language'
p675
asbag68
(g89
g70
NtRp676
(dp677
g73
(dp678
g100
g101
ssg82
g667
sg75
(lp679
S':'
asbag68
(g89
g70
NtRp680
(dp681
g73
(dp682
sg82
g667
sg75
(lp683
g68
(g69
g70
NtRp684
(dp685
g73
(dp686
g81
I4
ssg82
g680
sg75
(lp687
S'en-us,en;q=0.5'
p688
asbasbasbag68
(g84
g70
NtRp689
(dp690
g73
(dp691
sg82
g463
sg75
(lp692
g68
(g89
g70
NtRp693
(dp694
g73
(dp695
g93
g94
ssg82
g689
sg75
(lp696
S'http_connection'
p697
asbag68
(g89
g70
NtRp698
(dp699
g73
(dp700
g100
g101
ssg82
g689
sg75
(lp701
S':'
asbag68
(g89
g70
NtRp702
(dp703
g73
(dp704
sg82
g689
sg75
(lp705
g68
(g69
g70
NtRp706
(dp707
g73
(dp708
g81
I4
ssg82
g702
sg75
(lp709
S'keep-alive'
p710
asbasbasbag68
(g84
g70
NtRp711
(dp712
g73
(dp713
sg82
g463
sg75
(lp714
g68
(g89
g70
NtRp715
(dp716
g73
(dp717
g93
g94
ssg82
g711
sg75
(lp718
S'http_cookie'
p719
asbag68
(g89
g70
NtRp720
(dp721
g73
(dp722
g100
g101
ssg82
g711
sg75
(lp723
S':'
asbag68
(g89
g70
NtRp724
(dp725
g73
(dp726
sg82
g711
sg75
(lp727
g68
(g69
g70
NtRp728
(dp729
g73
(dp730
g81
I4
ssg82
g724
sg75
(lp731
S'session_id_test=127.0.0.1-e5cc216d-0463-4fe8-aefc-620a5f131d3a'
p732
asbasbasbag68
(g84
g70
NtRp733
(dp734
g73
(dp735
sg82
g463
sg75
(lp736
g68
(g89
g70
NtRp737
(dp738
g73
(dp739
g93
g94
ssg82
g733
sg75
(lp740
S'http_host'
p741
asbag68
(g89
g70
NtRp742
(dp743
g73
(dp744
g100
g101
ssg82
g733
sg75
(lp745
S':'
asbag68
(g89
g70
NtRp746
(dp747
g73
(dp748
sg82
g733
sg75
(lp749
g68
(g69
g70
NtRp750
(dp751
g73
(dp752
g81
I4
ssg82
g746
sg75
(lp753
S'127.0.0.1:8000'
p754
asbasbasbag68
(g84
g70
NtRp755
(dp756
g73
(dp757
sg82
g463
sg75
(lp758
g68
(g89
g70
NtRp759
(dp760
g73
(dp761
g93
g94
ssg82
g755
sg75
(lp762
S'http_user_agent'
p763
asbag68
(g89
g70
NtRp764
(dp765
g73
(dp766
g100
g101
ssg82
g755
sg75
(lp767
S':'
asbag68
(g89
g70
NtRp768
(dp769
g73
(dp770
sg82
g755
sg75
(lp771
g68
(g69
g70
NtRp772
(dp773
g73
(dp774
g81
I4
ssg82
g768
sg75
(lp775
S'Mozilla/5.0 (X11; Linux i686; rv:13.0) Gecko/20100101 Firefox/13.0.1'
p776
asbasbasbag68
(g84
g70
NtRp777
(dp778
g73
(dp779
sg82
g463
sg75
(lp780
g68
(g89
g70
NtRp781
(dp782
g73
(dp783
g93
g94
ssg82
g777
sg75
(lp784
S'is_jython'
p785
asbag68
(g89
g70
NtRp786
(dp787
g73
(dp788
g100
g101
ssg82
g777
sg75
(lp789
S':'
asbag68
(g89
g70
NtRp790
(dp791
g73
(dp792
sg82
g777
sg75
(lp793
g68
(g69
g70
NtRp794
(dp795
g73
(dp796
g81
I4
ssg82
g790
sg75
(lp797
g111
asbasbasbag68
(g84
g70
NtRp798
(dp799
g73
(dp800
sg82
g463
sg75
(lp801
g68
(g89
g70
NtRp802
(dp803
g73
(dp804
g93
g94
ssg82
g798
sg75
(lp805
S'is_pypy'
p806
asbag68
(g89
g70
NtRp807
(dp808
g73
(dp809
g100
g101
ssg82
g798
sg75
(lp810
S':'
asbag68
(g89
g70
NtRp811
(dp812
g73
(dp813
sg82
g798
sg75
(lp814
g68
(g69
g70
NtRp815
(dp816
g73
(dp817
g81
I4
ssg82
g811
sg75
(lp818
g111
asbasbasbag68
(g84
g70
NtRp819
(dp820
g73
(dp821
sg82
g463
sg75
(lp822
g68
(g89
g70
NtRp823
(dp824
g73
(dp825
g93
g94
ssg82
g819
sg75
(lp826
S'path_info'
p827
asbag68
(g89
g70
NtRp828
(dp829
g73
(dp830
g100
g101
ssg82
g819
sg75
(lp831
S':'
asbag68
(g89
g70
NtRp832
(dp833
g73
(dp834
sg82
g819
sg75
(lp835
g68
(g69
g70
NtRp836
(dp837
g73
(dp838
g81
I4
ssg82
g832
sg75
(lp839
S'/test/default/'
p840
asbasbasbag68
(g84
g70
NtRp841
(dp842
g73
(dp843
sg82
g463
sg75
(lp844
g68
(g89
g70
NtRp845
(dp846
g73
(dp847
g93
g94
ssg82
g841
sg75
(lp848
S'query_string'
p849
asbag68
(g89
g70
NtRp850
(dp851
g73
(dp852
g100
g101
ssg82
g841
sg75
(lp853
S':'
asbag68
(g89
g70
NtRp854
(dp855
g73
(dp856
sg82
g841
sg75
(lp857
g68
(g69
g70
NtRp858
(dp859
g73
(dp860
g81
I4
ssg82
g854
sg75
(lp861
S''
asbasbasbag68
(g84
g70
NtRp862
(dp863
g73
(dp864
sg82
g463
sg75
(lp865
g68
(g89
g70
NtRp866
(dp867
g73
(dp868
g93
g94
ssg82
g862
sg75
(lp869
S'remote_addr'
p870
asbag68
(g89
g70
NtRp871
(dp872
g73
(dp873
g100
g101
ssg82
g862
sg75
(lp874
S':'
asbag68
(g89
g70
NtRp875
(dp876
g73
(dp877
sg82
g862
sg75
(lp878
g68
(g69
g70
NtRp879
(dp880
g73
(dp881
g81
I4
ssg82
g875
sg75
(lp882
g201
asbasbasbag68
(g84
g70
NtRp883
(dp884
g73
(dp885
sg82
g463
sg75
(lp886
g68
(g89
g70
NtRp887
(dp888
g73
(dp889
g93
g94
ssg82
g883
sg75
(lp890
S'remote_port'
p891
asbag68
(g89
g70
NtRp892
(dp893
g73
(dp894
g100
g101
ssg82
g883
sg75
(lp895
S':'
asbag68
(g89
g70
NtRp896
(dp897
g73
(dp898
sg82
g883
sg75
(lp899
g68
(g69
g70
NtRp900
(dp901
g73
(dp902
g81
I4
ssg82
g896
sg75
(lp903
S'55988'
p904
asbasbasbag68
(g84
g70
NtRp905
(dp906
g73
(dp907
sg82
g463
sg75
(lp908
g68
(g89
g70
NtRp909
(dp910
g73
(dp911
g93
g94
ssg82
g905
sg75
(lp912
S'request_method'
p913
asbag68
(g89
g70
NtRp914
(dp915
g73
(dp916
g100
g101
ssg82
g905
sg75
(lp917
S':'
asbag68
(g89
g70
NtRp918
(dp919
g73
(dp920
sg82
g905
sg75
(lp921
g68
(g69
g70
NtRp922
(dp923
g73
(dp924
g81
I4
ssg82
g918
sg75
(lp925
S'GET'
p926
asbasbasbag68
(g84
g70
NtRp927
(dp928
g73
(dp929
sg82
g463
sg75
(lp930
g68
(g89
g70
NtRp931
(dp932
g73
(dp933
g93
g94
ssg82
g927
sg75
(lp934
S'script_name'
p935
asbag68
(g89
g70
NtRp936
(dp937
g73
(dp938
g100
g101
ssg82
g927
sg75
(lp939
S':'
asbag68
(g89
g70
NtRp940
(dp941
g73
(dp942
sg82
g927
sg75
(lp943
g68
(g69
g70
NtRp944
(dp945
g73
(dp946
g81
I4
ssg82
g940
sg75
(lp947
S''
asbasbasbag68
(g84
g70
NtRp948
(dp949
g73
(dp950
sg82
g463
sg75
(lp951
g68
(g89
g70
NtRp952
(dp953
g73
(dp954
g93
g94
ssg82
g948
sg75
(lp955
S'server_name'
p956
asbag68
(g89
g70
NtRp957
(dp958
g73
(dp959
g100
g101
ssg82
g948
sg75
(lp960
S':'
asbag68
(g89
g70
NtRp961
(dp962
g73
(dp963
sg82
g948
sg75
(lp964
g68
(g69
g70
NtRp965
(dp966
g73
(dp967
g81
I4
ssg82
g961
sg75
(lp968
S'hvn.vn'
p969
asbasbasbag68
(g84
g70
NtRp970
(dp971
g73
(dp972
sg82
g463
sg75
(lp973
g68
(g89
g70
NtRp974
(dp975
g73
(dp976
g93
g94
ssg82
g970
sg75
(lp977
S'server_port'
p978
asbag68
(g89
g70
NtRp979
(dp980
g73
(dp981
g100
g101
ssg82
g970
sg75
(lp982
S':'
asbag68
(g89
g70
NtRp983
(dp984
g73
(dp985
sg82
g970
sg75
(lp986
g68
(g69
g70
NtRp987
(dp988
g73
(dp989
g81
I4
ssg82
g983
sg75
(lp990
S'8000'
p991
asbasbasbag68
(g84
g70
NtRp992
(dp993
g73
(dp994
sg82
g463
sg75
(lp995
g68
(g89
g70
NtRp996
(dp997
g73
(dp998
g93
g94
ssg82
g992
sg75
(lp999
S'server_protocol'
p1000
asbag68
(g89
g70
NtRp1001
(dp1002
g73
(dp1003
g100
g101
ssg82
g992
sg75
(lp1004
S':'
asbag68
(g89
g70
NtRp1005
(dp1006
g73
(dp1007
sg82
g992
sg75
(lp1008
g68
(g69
g70
NtRp1009
(dp1010
g73
(dp1011
g81
I4
ssg82
g1005
sg75
(lp1012
S'HTTP/1.1'
p1013
asbasbasbag68
(g84
g70
NtRp1014
(dp1015
g73
(dp1016
sg82
g463
sg75
(lp1017
g68
(g89
g70
NtRp1018
(dp1019
g73
(dp1020
g93
g94
ssg82
g1014
sg75
(lp1021
S'server_software'
p1022
asbag68
(g89
g70
NtRp1023
(dp1024
g73
(dp1025
g100
g101
ssg82
g1014
sg75
(lp1026
S':'
asbag68
(g89
g70
NtRp1027
(dp1028
g73
(dp1029
sg82
g1014
sg75
(lp1030
g68
(g69
g70
NtRp1031
(dp1032
g73
(dp1033
g81
I4
ssg82
g1027
sg75
(lp1034
S'Rocket 1.2.4'
p1035
asbasbasbag68
(g84
g70
NtRp1036
(dp1037
g73
(dp1038
sg82
g463
sg75
(lp1039
g68
(g89
g70
NtRp1040
(dp1041
g73
(dp1042
g93
g94
ssg82
g1036
sg75
(lp1043
S'web2py_crontype'
p1044
asbag68
(g89
g70
NtRp1045
(dp1046
g73
(dp1047
g100
g101
ssg82
g1036
sg75
(lp1048
S':'
asbag68
(g89
g70
NtRp1049
(dp1050
g73
(dp1051
sg82
g1036
sg75
(lp1052
g68
(g69
g70
NtRp1053
(dp1054
g73
(dp1055
g81
I4
ssg82
g1049
sg75
(lp1056
S'hard'
p1057
asbasbasbag68
(g84
g70
NtRp1058
(dp1059
g73
(dp1060
sg82
g463
sg75
(lp1061
g68
(g89
g70
NtRp1062
(dp1063
g73
(dp1064
g93
g94
ssg82
g1058
sg75
(lp1065
S'web2py_path'
p1066
asbag68
(g89
g70
NtRp1067
(dp1068
g73
(dp1069
g100
g101
ssg82
g1058
sg75
(lp1070
S':'
asbag68
(g89
g70
NtRp1071
(dp1072
g73
(dp1073
sg82
g1058
sg75
(lp1074
g68
(g69
g70
NtRp1075
(dp1076
g73
(dp1077
g81
I4
ssg82
g1071
sg75
(lp1078
g510
asbasbasbag68
(g84
g70
NtRp1079
(dp1080
g73
(dp1081
sg82
g463
sg75
(lp1082
g68
(g89
g70
NtRp1083
(dp1084
g73
(dp1085
g93
g94
ssg82
g1079
sg75
(lp1086
S'web2py_version'
p1087
asbag68
(g89
g70
NtRp1088
(dp1089
g73
(dp1090
g100
g101
ssg82
g1079
sg75
(lp1091
S':'
asbag68
(g89
g70
NtRp1092
(dp1093
g73
(dp1094
sg82
g1079
sg75
(lp1095
g68
(g69
g70
NtRp1096
(dp1097
g73
(dp1098
g81
I4
ssg82
g1092
sg75
(lp1099
g68
(g77
g70
NtRp1100
(dp1101
g73
(dp1102
g81
I3
ssg82
Nsg75
(lp1103
g68
(g84
g70
NtRp1104
(dp1105
g73
(dp1106
sg82
g1100
sg75
(lp1107
g68
(g89
g70
NtRp1108
(dp1109
g73
(dp1110
sg82
g1104
sg75
(lp1111
g68
(g69
g70
NtRp1112
(dp1113
g73
(dp1114
g81
I3
ssg82
g1108
sg75
(lp1115
S'1'
asbasbasbag68
(g84
g70
NtRp1116
(dp1117
g73
(dp1118
sg82
g1100
sg75
(lp1119
g68
(g89
g70
NtRp1120
(dp1121
g73
(dp1122
sg82
g1116
sg75
(lp1123
g68
(g69
g70
NtRp1124
(dp1125
g73
(dp1126
g81
I3
ssg82
g1120
sg75
(lp1127
S'99'
p1128
asbasbasbag68
(g84
g70
NtRp1129
(dp1130
g73
(dp1131
sg82
g1100
sg75
(lp1132
g68
(g89
g70
NtRp1133
(dp1134
g73
(dp1135
sg82
g1129
sg75
(lp1136
g68
(g69
g70
NtRp1137
(dp1138
g73
(dp1139
g81
I3
ssg82
g1133
sg75
(lp1140
S'7'
asbasbasbag68
(g84
g70
NtRp1141
(dp1142
g73
(dp1143
sg82
g1100
sg75
(lp1144
g68
(g89
g70
NtRp1145
(dp1146
g73
(dp1147
sg82
g1141
sg75
(lp1148
g68
(g69
g70
NtRp1149
(dp1150
g73
(dp1151
g81
I3
ssg82
g1145
sg75
(lp1152
S'datetime.datetime(2012, 3, 4, 22, 12, 8)'
p1153
asbasbasbag68
(g84
g70
NtRp1154
(dp1155
g73
(dp1156
sg82
g1100
sg75
(lp1157
g68
(g89
g70
NtRp1158
(dp1159
g73
(dp1160
sg82
g1154
sg75
(lp1161
g68
(g69
g70
NtRp1162
(dp1163
g73
(dp1164
g81
I3
ssg82
g1158
sg75
(lp1165
S'stable'
p1166
asbasbasbasbasbasbasbag68
(g84
g70
NtRp1167
(dp1168
g73
(dp1169
sg82
g463
sg75
(lp1170
g68
(g89
g70
NtRp1171
(dp1172
g73
(dp1173
g93
g94
ssg82
g1167
sg75
(lp1174
S'wsgi_errors'
p1175
asbag68
(g89
g70
NtRp1176
(dp1177
g73
(dp1178
g100
g101
ssg82
g1167
sg75
(lp1179
S':'
asbag68
(g89
g70
NtRp1180
(dp1181
g73
(dp1182
sg82
g1167
sg75
(lp1183
g68
(g69
g70
NtRp1184
(dp1185
g73
(dp1186
g81
I4
ssg82
g1180
sg75
(lp1187
S"<open file '<stderr>', mode 'w' at 0xb76ea0d0>"
p1188
asbasbasbag68
(g84
g70
NtRp1189
(dp1190
g73
(dp1191
sg82
g463
sg75
(lp1192
g68
(g89
g70
NtRp1193
(dp1194
g73
(dp1195
g93
g94
ssg82
g1189
sg75
(lp1196
S'wsgi_file_wrapper'
p1197
asbag68
(g89
g70
NtRp1198
(dp1199
g73
(dp1200
g100
g101
ssg82
g1189
sg75
(lp1201
S':'
asbag68
(g89
g70
NtRp1202
(dp1203
g73
(dp1204
sg82
g1189
sg75
(lp1205
g68
(g69
g70
NtRp1206
(dp1207
g73
(dp1208
g81
I4
ssg82
g1202
sg75
(lp1209
S'<class wsgiref.util.FileWrapper at 0x8ff09ec>'
p1210
asbasbasbag68
(g84
g70
NtRp1211
(dp1212
g73
(dp1213
sg82
g463
sg75
(lp1214
g68
(g89
g70
NtRp1215
(dp1216
g73
(dp1217
g93
g94
ssg82
g1211
sg75
(lp1218
S'wsgi_input'
p1219
asbag68
(g89
g70
NtRp1220
(dp1221
g73
(dp1222
g100
g101
ssg82
g1211
sg75
(lp1223
S':'
asbag68
(g89
g70
NtRp1224
(dp1225
g73
(dp1226
sg82
g1211
sg75
(lp1227
g68
(g69
g70
NtRp1228
(dp1229
g73
(dp1230
g81
I4
ssg82
g1224
sg75
(lp1231
S'<socket._fileobject object at 0x93b17ec>'
p1232
asbasbasbag68
(g84
g70
NtRp1233
(dp1234
g73
(dp1235
sg82
g463
sg75
(lp1236
g68
(g89
g70
NtRp1237
(dp1238
g73
(dp1239
g93
g94
ssg82
g1233
sg75
(lp1240
S'wsgi_multiprocess'
p1241
asbag68
(g89
g70
NtRp1242
(dp1243
g73
(dp1244
g100
g101
ssg82
g1233
sg75
(lp1245
S':'
asbag68
(g89
g70
NtRp1246
(dp1247
g73
(dp1248
sg82
g1233
sg75
(lp1249
g68
(g69
g70
NtRp1250
(dp1251
g73
(dp1252
g81
I4
ssg82
g1246
sg75
(lp1253
g111
asbasbasbag68
(g84
g70
NtRp1254
(dp1255
g73
(dp1256
sg82
g463
sg75
(lp1257
g68
(g89
g70
NtRp1258
(dp1259
g73
(dp1260
g93
g94
ssg82
g1254
sg75
(lp1261
S'wsgi_multithread'
p1262
asbag68
(g89
g70
NtRp1263
(dp1264
g73
(dp1265
g100
g101
ssg82
g1254
sg75
(lp1266
S':'
asbag68
(g89
g70
NtRp1267
(dp1268
g73
(dp1269
sg82
g1254
sg75
(lp1270
g68
(g69
g70
NtRp1271
(dp1272
g73
(dp1273
g81
I4
ssg82
g1267
sg75
(lp1274
S'True'
p1275
asbasbasbag68
(g84
g70
NtRp1276
(dp1277
g73
(dp1278
sg82
g463
sg75
(lp1279
g68
(g89
g70
NtRp1280
(dp1281
g73
(dp1282
g93
g94
ssg82
g1276
sg75
(lp1283
S'wsgi_run_once'
p1284
asbag68
(g89
g70
NtRp1285
(dp1286
g73
(dp1287
g100
g101
ssg82
g1276
sg75
(lp1288
S':'
asbag68
(g89
g70
NtRp1289
(dp1290
g73
(dp1291
sg82
g1276
sg75
(lp1292
g68
(g69
g70
NtRp1293
(dp1294
g73
(dp1295
g81
I4
ssg82
g1289
sg75
(lp1296
g111
asbasbasbag68
(g84
g70
NtRp1297
(dp1298
g73
(dp1299
sg82
g463
sg75
(lp1300
g68
(g89
g70
NtRp1301
(dp1302
g73
(dp1303
g93
g94
ssg82
g1297
sg75
(lp1304
S'wsgi_url_scheme'
p1305
asbag68
(g89
g70
NtRp1306
(dp1307
g73
(dp1308
g100
g101
ssg82
g1297
sg75
(lp1309
S':'
asbag68
(g89
g70
NtRp1310
(dp1311
g73
(dp1312
sg82
g1297
sg75
(lp1313
g68
(g69
g70
NtRp1314
(dp1315
g73
(dp1316
g81
I4
ssg82
g1310
sg75
(lp1317
S'http'
p1318
asbasbasbag68
(g84
g70
NtRp1319
(dp1320
g73
(dp1321
sg82
g463
sg75
(lp1322
g68
(g89
g70
NtRp1323
(dp1324
g73
(dp1325
g93
g94
ssg82
g1319
sg75
(lp1326
S'wsgi_version'
p1327
asbag68
(g89
g70
NtRp1328
(dp1329
g73
(dp1330
g100
g101
ssg82
g1319
sg75
(lp1331
S':'
asbag68
(g89
g70
NtRp1332
(dp1333
g73
(dp1334
sg82
g1319
sg75
(lp1335
g68
(g69
g70
NtRp1336
(dp1337
g73
(dp1338
g81
I4
ssg82
g1332
sg75
(lp1339
g68
(g77
g70
NtRp1340
(dp1341
g73
(dp1342
g81
I3
ssg82
Nsg75
(lp1343
g68
(g84
g70
NtRp1344
(dp1345
g73
(dp1346
sg82
g1340
sg75
(lp1347
g68
(g89
g70
NtRp1348
(dp1349
g73
(dp1350
sg82
g1344
sg75
(lp1351
g68
(g69
g70
NtRp1352
(dp1353
g73
(dp1354
g81
I3
ssg82
g1348
sg75
(lp1355
S'1'
asbasbasbag68
(g84
g70
NtRp1356
(dp1357
g73
(dp1358
sg82
g1340
sg75
(lp1359
g68
(g89
g70
NtRp1360
(dp1361
g73
(dp1362
sg82
g1356
sg75
(lp1363
g68
(g69
g70
NtRp1364
(dp1365
g73
(dp1366
g81
I3
ssg82
g1360
sg75
(lp1367
S'0'
asbasbasbasbasbasbasbasbasbasbasbag68
(g84
g70
NtRp1368
(dp1369
g73
(dp1370
sg82
g78
sg75
(lp1371
g68
(g89
g70
NtRp1372
(dp1373
g73
(dp1374
g93
g94
ssg82
g1368
sg75
(lp1375
S'extension'
p1376
asbag68
(g89
g70
NtRp1377
(dp1378
g73
(dp1379
g100
g101
ssg82
g1368
sg75
(lp1380
S':'
asbag68
(g89
g70
NtRp1381
(dp1382
g73
(dp1383
sg82
g1368
sg75
(lp1384
g68
(g69
g70
NtRp1385
(dp1386
g73
(dp1387
g81
I5
ssg82
g1381
sg75
(lp1388
S'html'
p1389
asbasbasbag68
(g84
g70
NtRp1390
(dp1391
g73
(dp1392
sg82
g78
sg75
(lp1393
g68
(g89
g70
NtRp1394
(dp1395
g73
(dp1396
g93
g94
ssg82
g1390
sg75
(lp1397
S'folder'
p1398
asbag68
(g89
g70
NtRp1399
(dp1400
g73
(dp1401
g100
g101
ssg82
g1390
sg75
(lp1402
S':'
asbag68
(g89
g70
NtRp1403
(dp1404
g73
(dp1405
sg82
g1390
sg75
(lp1406
g68
(g69
g70
NtRp1407
(dp1408
g73
(dp1409
g81
I5
ssg82
g1403
sg75
(lp1410
S'/home/famihug/Apps/web2py/applications/test/'
p1411
asbasbasbag68
(g84
g70
NtRp1412
(dp1413
g73
(dp1414
sg82
g78
sg75
(lp1415
g68
(g89
g70
NtRp1416
(dp1417
g73
(dp1418
g93
g94
ssg82
g1412
sg75
(lp1419
S'function'
p1420
asbag68
(g89
g70
NtRp1421
(dp1422
g73
(dp1423
g100
g101
ssg82
g1412
sg75
(lp1424
S':'
asbag68
(g89
g70
NtRp1425
(dp1426
g73
(dp1427
sg82
g1412
sg75
(lp1428
g68
(g69
g70
NtRp1429
(dp1430
g73
(dp1431
g81
I5
ssg82
g1425
sg75
(lp1432
S'index'
p1433
asbasbasbag68
(g84
g70
NtRp1434
(dp1435
g73
(dp1436
sg82
g78
sg75
(lp1437
g68
(g89
g70
NtRp1438
(dp1439
g73
(dp1440
g93
g94
ssg82
g1434
sg75
(lp1441
S'get_vars'
p1442
asbag68
(g89
g70
NtRp1443
(dp1444
g73
(dp1445
g100
g101
ssg82
g1434
sg75
(lp1446
S':'
asbag68
(g89
g70
NtRp1447
(dp1448
g73
(dp1449
sg82
g1434
sg75
(lp1450
g68
(g69
g70
NtRp1451
(dp1452
g73
(dp1453
g81
I5
ssg82
g1447
sg75
(lp1454
g68
(g77
g70
NtRp1455
(dp1456
g73
(dp1457
g81
I4
ssg82
Nsg75
(lp1458
sbasbasbasbag68
(g84
g70
NtRp1459
(dp1460
g73
(dp1461
sg82
g78
sg75
(lp1462
g68
(g89
g70
NtRp1463
(dp1464
g73
(dp1465
g93
g94
ssg82
g1459
sg75
(lp1466
S'global_settings'
p1467
asbag68
(g89
g70
NtRp1468
(dp1469
g73
(dp1470
g100
g101
ssg82
g1459
sg75
(lp1471
S':'
asbag68
(g89
g70
NtRp1472
(dp1473
g73
(dp1474
sg82
g1459
sg75
(lp1475
g68
(g69
g70
NtRp1476
(dp1477
g73
(dp1478
g81
I5
ssg82
g1472
sg75
(lp1479
g68
(g77
g70
NtRp1480
(dp1481
g73
(dp1482
g81
I4
ssg82
Nsg75
(lp1483
g68
(g84
g70
NtRp1484
(dp1485
g73
(dp1486
sg82
g1480
sg75
(lp1487
g68
(g89
g70
NtRp1488
(dp1489
g73
(dp1490
g93
g94
ssg82
g1484
sg75
(lp1491
g475
asbag68
(g89
g70
NtRp1492
(dp1493
g73
(dp1494
g100
g101
ssg82
g1484
sg75
(lp1495
S':'
asbag68
(g89
g70
NtRp1496
(dp1497
g73
(dp1498
sg82
g1484
sg75
(lp1499
g68
(g69
g70
NtRp1500
(dp1501
g73
(dp1502
g81
I4
ssg82
g1496
sg75
(lp1503
S"set(['/home/famihug/Apps/web2py/applications/welcome/', '/home/famihug/Apps/web2py/applications/test/', '/home/famihug/Apps/web2py/applications/examples/'])"
p1504
asbasbasbag68
(g84
g70
NtRp1505
(dp1506
g73
(dp1507
sg82
g1480
sg75
(lp1508
g68
(g89
g70
NtRp1509
(dp1510
g73
(dp1511
g93
g94
ssg82
g1505
sg75
(lp1512
g497
asbag68
(g89
g70
NtRp1513
(dp1514
g73
(dp1515
g100
g101
ssg82
g1505
sg75
(lp1516
S':'
asbag68
(g89
g70
NtRp1517
(dp1518
g73
(dp1519
sg82
g1505
sg75
(lp1520
g68
(g69
g70
NtRp1521
(dp1522
g73
(dp1523
g81
I4
ssg82
g1517
sg75
(lp1524
g510
asbasbasbag68
(g84
g70
NtRp1525
(dp1526
g73
(dp1527
sg82
g1480
sg75
(lp1528
g68
(g89
g70
NtRp1529
(dp1530
g73
(dp1531
g93
g94
ssg82
g1525
sg75
(lp1532
g519
asbag68
(g89
g70
NtRp1533
(dp1534
g73
(dp1535
g100
g101
ssg82
g1525
sg75
(lp1536
S':'
asbag68
(g89
g70
NtRp1537
(dp1538
g73
(dp1539
sg82
g1525
sg75
(lp1540
g68
(g69
g70
NtRp1541
(dp1542
g73
(dp1543
g81
I4
ssg82
g1537
sg75
(lp1544
g68
(g77
g70
NtRp1545
(dp1546
g73
(dp1547
g81
I3
ssg82
Nsg75
(lp1548
sbasbasbasbag68
(g84
g70
NtRp1549
(dp1550
g73
(dp1551
sg82
g1480
sg75
(lp1552
g68
(g89
g70
NtRp1553
(dp1554
g73
(dp1555
g93
g94
ssg82
g1549
sg75
(lp1556
g544
asbag68
(g89
g70
NtRp1557
(dp1558
g73
(dp1559
g100
g101
ssg82
g1549
sg75
(lp1560
S':'
asbag68
(g89
g70
NtRp1561
(dp1562
g73
(dp1563
sg82
g1549
sg75
(lp1564
g68
(g69
g70
NtRp1565
(dp1566
g73
(dp1567
g81
I4
ssg82
g1561
sg75
(lp1568
S"<Values at 0x90497ec: {'verbose': False, 'ip': '127.0.0.1', 'shutdown_timeout': 5, 'taskbar': False, 'nocron': False, 'pid_filename': 'httpserver.pid', 'maxthreads': None, 'softcron': False, 'server_name': 'hvn.vn', 'bpython': False, 'nogui': False, 'port': 8000, 'extcron': False, 'debuglevel': 30, 'test': None, 'folder': '/home/famihug/Apps/web2py', 'config': '', 'import_models': False, 'winservice': '', 'shell': None, 'run': '', 'log_filename': 'httpserver.log', 'args': [''], 'socket_timeout': 5, 'ssl_ca_certificate': None, 'scheduler': None, 'profiler_filename': None, 'ssl_private_key': '', 'password': 'hehehe', 'request_queue_size': 5, 'ssl_certificate': '', 'cronjob': False, 'numthreads': None, 'quiet': False, 'interfaces': None, 'minthreads': None, 'timeout': 10, 'plain': False, 'nobanner': False}>"
p1569
asbasbasbag68
(g84
g70
NtRp1570
(dp1571
g73
(dp1572
sg82
g1480
sg75
(lp1573
g68
(g89
g70
NtRp1574
(dp1575
g73
(dp1576
g93
g94
ssg82
g1570
sg75
(lp1577
g566
asbag68
(g89
g70
NtRp1578
(dp1579
g73
(dp1580
g100
g101
ssg82
g1570
sg75
(lp1581
S':'
asbag68
(g89
g70
NtRp1582
(dp1583
g73
(dp1584
sg82
g1570
sg75
(lp1585
g68
(g69
g70
NtRp1586
(dp1587
g73
(dp1588
g81
I4
ssg82
g1582
sg75
(lp1589
S'set([])'
p1590
asbasbasbag68
(g84
g70
NtRp1591
(dp1592
g73
(dp1593
sg82
g1480
sg75
(lp1594
g68
(g89
g70
NtRp1595
(dp1596
g73
(dp1597
g93
g94
ssg82
g1591
sg75
(lp1598
g588
asbag68
(g89
g70
NtRp1599
(dp1600
g73
(dp1601
g100
g101
ssg82
g1591
sg75
(lp1602
S':'
asbag68
(g89
g70
NtRp1603
(dp1604
g73
(dp1605
sg82
g1591
sg75
(lp1606
g68
(g69
g70
NtRp1607
(dp1608
g73
(dp1609
g81
I4
ssg82
g1603
sg75
(lp1610
g111
asbasbasbag68
(g84
g70
NtRp1611
(dp1612
g73
(dp1613
sg82
g1480
sg75
(lp1614
g68
(g89
g70
NtRp1615
(dp1616
g73
(dp1617
g93
g94
ssg82
g1611
sg75
(lp1618
g609
asbag68
(g89
g70
NtRp1619
(dp1620
g73
(dp1621
g100
g101
ssg82
g1611
sg75
(lp1622
S':'
asbag68
(g89
g70
NtRp1623
(dp1624
g73
(dp1625
sg82
g1611
sg75
(lp1626
g68
(g69
g70
NtRp1627
(dp1628
g73
(dp1629
g81
I4
ssg82
g1623
sg75
(lp1630
g622
asbasbasbag68
(g84
g70
NtRp1631
(dp1632
g73
(dp1633
sg82
g1480
sg75
(lp1634
g68
(g89
g70
NtRp1635
(dp1636
g73
(dp1637
g93
g94
ssg82
g1631
sg75
(lp1638
g785
asbag68
(g89
g70
NtRp1639
(dp1640
g73
(dp1641
g100
g101
ssg82
g1631
sg75
(lp1642
S':'
asbag68
(g89
g70
NtRp1643
(dp1644
g73
(dp1645
sg82
g1631
sg75
(lp1646
g68
(g69
g70
NtRp1647
(dp1648
g73
(dp1649
g81
I4
ssg82
g1643
sg75
(lp1650
g111
asbasbasbag68
(g84
g70
NtRp1651
(dp1652
g73
(dp1653
sg82
g1480
sg75
(lp1654
g68
(g89
g70
NtRp1655
(dp1656
g73
(dp1657
g93
g94
ssg82
g1651
sg75
(lp1658
g806
asbag68
(g89
g70
NtRp1659
(dp1660
g73
(dp1661
g100
g101
ssg82
g1651
sg75
(lp1662
S':'
asbag68
(g89
g70
NtRp1663
(dp1664
g73
(dp1665
sg82
g1651
sg75
(lp1666
g68
(g69
g70
NtRp1667
(dp1668
g73
(dp1669
g81
I4
ssg82
g1663
sg75
(lp1670
g111
asbasbasbag68
(g84
g70
NtRp1671
(dp1672
g73
(dp1673
sg82
g1480
sg75
(lp1674
g68
(g89
g70
NtRp1675
(dp1676
g73
(dp1677
g93
g94
ssg82
g1671
sg75
(lp1678
g1044
asbag68
(g89
g70
NtRp1679
(dp1680
g73
(dp1681
g100
g101
ssg82
g1671
sg75
(lp1682
S':'
asbag68
(g89
g70
NtRp1683
(dp1684
g73
(dp1685
sg82
g1671
sg75
(lp1686
g68
(g69
g70
NtRp1687
(dp1688
g73
(dp1689
g81
I4
ssg82
g1683
sg75
(lp1690
g1057
asbasbasbag68
(g84
g70
NtRp1691
(dp1692
g73
(dp1693
sg82
g1480
sg75
(lp1694
g68
(g89
g70
NtRp1695
(dp1696
g73
(dp1697
g93
g94
ssg82
g1691
sg75
(lp1698
g1087
asbag68
(g89
g70
NtRp1699
(dp1700
g73
(dp1701
g100
g101
ssg82
g1691
sg75
(lp1702
S':'
asbag68
(g89
g70
NtRp1703
(dp1704
g73
(dp1705
sg82
g1691
sg75
(lp1706
g68
(g69
g70
NtRp1707
(dp1708
g73
(dp1709
g81
I4
ssg82
g1703
sg75
(lp1710
g68
(g77
g70
NtRp1711
(dp1712
g73
(dp1713
g81
I3
ssg82
Nsg75
(lp1714
g68
(g84
g70
NtRp1715
(dp1716
g73
(dp1717
sg82
g1711
sg75
(lp1718
g68
(g89
g70
NtRp1719
(dp1720
g73
(dp1721
sg82
g1715
sg75
(lp1722
g68
(g69
g70
NtRp1723
(dp1724
g73
(dp1725
g81
I3
ssg82
g1719
sg75
(lp1726
S'1'
asbasbasbag68
(g84
g70
NtRp1727
(dp1728
g73
(dp1729
sg82
g1711
sg75
(lp1730
g68
(g89
g70
NtRp1731
(dp1732
g73
(dp1733
sg82
g1727
sg75
(lp1734
g68
(g69
g70
NtRp1735
(dp1736
g73
(dp1737
g81
I3
ssg82
g1731
sg75
(lp1738
S'99'
p1739
asbasbasbag68
(g84
g70
NtRp1740
(dp1741
g73
(dp1742
sg82
g1711
sg75
(lp1743
g68
(g89
g70
NtRp1744
(dp1745
g73
(dp1746
sg82
g1740
sg75
(lp1747
g68
(g69
g70
NtRp1748
(dp1749
g73
(dp1750
g81
I3
ssg82
g1744
sg75
(lp1751
S'7'
asbasbasbag68
(g84
g70
NtRp1752
(dp1753
g73
(dp1754
sg82
g1711
sg75
(lp1755
g68
(g89
g70
NtRp1756
(dp1757
g73
(dp1758
sg82
g1752
sg75
(lp1759
g68
(g69
g70
NtRp1760
(dp1761
g73
(dp1762
g81
I3
ssg82
g1756
sg75
(lp1763
S'datetime.datetime(2012, 3, 4, 22, 12, 8)'
p1764
asbasbasbag68
(g84
g70
NtRp1765
(dp1766
g73
(dp1767
sg82
g1711
sg75
(lp1768
g68
(g89
g70
NtRp1769
(dp1770
g73
(dp1771
sg82
g1765
sg75
(lp1772
g68
(g69
g70
NtRp1773
(dp1774
g73
(dp1775
g81
I3
ssg82
g1769
sg75
(lp1776
g1166
asbasbasbasbasbasbasbasbasbasbasbag68
(g84
g70
NtRp1777
(dp1778
g73
(dp1779
sg82
g78
sg75
(lp1780
g68
(g89
g70
NtRp1781
(dp1782
g73
(dp1783
g93
g94
ssg82
g1777
sg75
(lp1784
S'is_https'
p1785
asbag68
(g89
g70
NtRp1786
(dp1787
g73
(dp1788
g100
g101
ssg82
g1777
sg75
(lp1789
S':'
asbag68
(g89
g70
NtRp1790
(dp1791
g73
(dp1792
sg82
g1777
sg75
(lp1793
g68
(g69
g70
NtRp1794
(dp1795
g73
(dp1796
g81
I5
ssg82
g1790
sg75
(lp1797
g111
asbasbasbag68
(g84
g70
NtRp1798
(dp1799
g73
(dp1800
sg82
g78
sg75
(lp1801
g68
(g89
g70
NtRp1802
(dp1803
g73
(dp1804
g93
g94
ssg82
g1798
sg75
(lp1805
S'is_local'
p1806
asbag68
(g89
g70
NtRp1807
(dp1808
g73
(dp1809
g100
g101
ssg82
g1798
sg75
(lp1810
S':'
asbag68
(g89
g70
NtRp1811
(dp1812
g73
(dp1813
sg82
g1798
sg75
(lp1814
g68
(g69
g70
NtRp1815
(dp1816
g73
(dp1817
g81
I5
ssg82
g1811
sg75
(lp1818
g1275
asbasbasbag68
(g84
g70
NtRp1819
(dp1820
g73
(dp1821
sg82
g78
sg75
(lp1822
g68
(g89
g70
NtRp1823
(dp1824
g73
(dp1825
g93
g94
ssg82
g1819
sg75
(lp1826
S'is_restful'
p1827
asbag68
(g89
g70
NtRp1828
(dp1829
g73
(dp1830
g100
g101
ssg82
g1819
sg75
(lp1831
S':'
asbag68
(g89
g70
NtRp1832
(dp1833
g73
(dp1834
sg82
g1819
sg75
(lp1835
g68
(g69
g70
NtRp1836
(dp1837
g73
(dp1838
g81
I5
ssg82
g1832
sg75
(lp1839
g111
asbasbasbag68
(g84
g70
NtRp1840
(dp1841
g73
(dp1842
sg82
g78
sg75
(lp1843
g68
(g89
g70
NtRp1844
(dp1845
g73
(dp1846
g93
g94
ssg82
g1840
sg75
(lp1847
S'now'
p1848
asbag68
(g89
g70
NtRp1849
(dp1850
g73
(dp1851
g100
g101
ssg82
g1840
sg75
(lp1852
S':'
asbag68
(g89
g70
NtRp1853
(dp1854
g73
(dp1855
sg82
g1840
sg75
(lp1856
g68
(g69
g70
NtRp1857
(dp1858
g73
(dp1859
g81
I5
ssg82
g1853
sg75
(lp1860
S'datetime.datetime(2012, 7, 3, 10, 39, 32, 841703)'
p1861
asbasbasbag68
(g84
g70
NtRp1862
(dp1863
g73
(dp1864
sg82
g78
sg75
(lp1865
g68
(g89
g70
NtRp1866
(dp1867
g73
(dp1868
g93
g94
ssg82
g1862
sg75
(lp1869
S'post_vars'
p1870
asbag68
(g89
g70
NtRp1871
(dp1872
g73
(dp1873
g100
g101
ssg82
g1862
sg75
(lp1874
S':'
asbag68
(g89
g70
NtRp1875
(dp1876
g73
(dp1877
sg82
g1862
sg75
(lp1878
g68
(g69
g70
NtRp1879
(dp1880
g73
(dp1881
g81
I5
ssg82
g1875
sg75
(lp1882
g68
(g77
g70
NtRp1883
(dp1884
g73
(dp1885
g81
I4
ssg82
Nsg75
(lp1886
sbasbasbasbag68
(g84
g70
NtRp1887
(dp1888
g73
(dp1889
sg82
g78
sg75
(lp1890
g68
(g89
g70
NtRp1891
(dp1892
g73
(dp1893
g93
g94
ssg82
g1887
sg75
(lp1894
S'url'
p1895
asbag68
(g89
g70
NtRp1896
(dp1897
g73
(dp1898
g100
g101
ssg82
g1887
sg75
(lp1899
S':'
asbag68
(g89
g70
NtRp1900
(dp1901
g73
(dp1902
sg82
g1887
sg75
(lp1903
g68
(g69
g70
NtRp1904
(dp1905
g73
(dp1906
g81
I5
ssg82
g1900
sg75
(lp1907
S'/test/default/index'
p1908
asbasbasbag68
(g84
g70
NtRp1909
(dp1910
g73
(dp1911
sg82
g78
sg75
(lp1912
g68
(g89
g70
NtRp1913
(dp1914
g73
(dp1915
g93
g94
ssg82
g1909
sg75
(lp1916
S'utcnow'
p1917
asbag68
(g89
g70
NtRp1918
(dp1919
g73
(dp1920
g100
g101
ssg82
g1909
sg75
(lp1921
S':'
asbag68
(g89
g70
NtRp1922
(dp1923
g73
(dp1924
sg82
g1909
sg75
(lp1925
g68
(g69
g70
NtRp1926
(dp1927
g73
(dp1928
g81
I5
ssg82
g1922
sg75
(lp1929
S'datetime.datetime(2012, 7, 3, 3, 39, 32, 841746)'
p1930
asbasbasbag68
(g84
g70
NtRp1931
(dp1932
g73
(dp1933
sg82
g78
sg75
(lp1934
g68
(g89
g70
NtRp1935
(dp1936
g73
(dp1937
g93
g94
ssg82
g1931
sg75
(lp1938
S'uuid'
p1939
asbag68
(g89
g70
NtRp1940
(dp1941
g73
(dp1942
g100
g101
ssg82
g1931
sg75
(lp1943
S':'
asbag68
(g89
g70
NtRp1944
(dp1945
g73
(dp1946
sg82
g1931
sg75
(lp1947
g68
(g69
g70
NtRp1948
(dp1949
g73
(dp1950
g81
I5
ssg82
g1944
sg75
(lp1951
S'test/127.0.0.1.2012-07-03.10-39-32.9d4cc06a-4d12-40cc-92d5-5e8f91491244'
p1952
asbasbasbag68
(g84
g70
NtRp1953
(dp1954
g73
(dp1955
sg82
g78
sg75
(lp1956
g68
(g89
g70
NtRp1957
(dp1958
g73
(dp1959
g93
g94
ssg82
g1953
sg75
(lp1960
S'vars'
p1961
asbag68
(g89
g70
NtRp1962
(dp1963
g73
(dp1964
g100
g101
ssg82
g1953
sg75
(lp1965
S':'
asbag68
(g89
g70
NtRp1966
(dp1967
g73
(dp1968
sg82
g1953
sg75
(lp1969
g68
(g69
g70
NtRp1970
(dp1971
g73
(dp1972
g81
I5
ssg82
g1966
sg75
(lp1973
g68
(g77
g70
NtRp1974
(dp1975
g73
(dp1976
g81
I4
ssg82
Nsg75
(lp1977
sbasbasbasbag68
(g84
g70
NtRp1978
(dp1979
g73
(dp1980
sg82
g78
sg75
(lp1981
g68
(g89
g70
NtRp1982
(dp1983
g73
(dp1984
g93
g94
ssg82
g1978
sg75
(lp1985
S'wsgi'
p1986
asbag68
(g89
g70
NtRp1987
(dp1988
g73
(dp1989
g100
g101
ssg82
g1978
sg75
(lp1990
S':'
asbag68
(g89
g70
NtRp1991
(dp1992
g73
(dp1993
sg82
g1978
sg75
(lp1994
g68
(g69
g70
NtRp1995
(dp1996
g73
(dp1997
g81
I5
ssg82
g1991
sg75
(lp1998
g68
(g77
g70
NtRp1999
(dp2000
g73
(dp2001
g81
I4
ssg82
Nsg75
(lp2002
g68
(g84
g70
NtRp2003
(dp2004
g73
(dp2005
sg82
g1999
sg75
(lp2006
g68
(g89
g70
NtRp2007
(dp2008
g73
(dp2009
g93
g94
ssg82
g2003
sg75
(lp2010
S'environ'
p2011
asbag68
(g89
g70
NtRp2012
(dp2013
g73
(dp2014
g100
g101
ssg82
g2003
sg75
(lp2015
S':'
asbag68
(g89
g70
NtRp2016
(dp2017
g73
(dp2018
sg82
g2003
sg75
(lp2019
g68
(g69
g70
NtRp2020
(dp2021
g73
(dp2022
g81
I4
ssg82
g2016
sg75
(lp2023
g68
(g77
g70
NtRp2024
(dp2025
g73
(dp2026
g81
I3
ssg82
Nsg75
(lp2027
g68
(g84
g70
NtRp2028
(dp2029
g73
(dp2030
sg82
g2024
sg75
(lp2031
g68
(g89
g70
NtRp2032
(dp2033
g73
(dp2034
g93
g94
ssg82
g2028
sg75
(lp2035
S'HTTP_ACCEPT'
p2036
asbag68
(g89
g70
NtRp2037
(dp2038
g73
(dp2039
g100
g101
ssg82
g2028
sg75
(lp2040
S':'
asbag68
(g89
g70
NtRp2041
(dp2042
g73
(dp2043
sg82
g2028
sg75
(lp2044
g68
(g69
g70
NtRp2045
(dp2046
g73
(dp2047
g81
I3
ssg82
g2041
sg75
(lp2048
g644
asbasbasbag68
(g84
g70
NtRp2049
(dp2050
g73
(dp2051
sg82
g2024
sg75
(lp2052
g68
(g89
g70
NtRp2053
(dp2054
g73
(dp2055
g93
g94
ssg82
g2049
sg75
(lp2056
S'HTTP_ACCEPT_ENCODING'
p2057
asbag68
(g89
g70
NtRp2058
(dp2059
g73
(dp2060
g100
g101
ssg82
g2049
sg75
(lp2061
S':'
asbag68
(g89
g70
NtRp2062
(dp2063
g73
(dp2064
sg82
g2049
sg75
(lp2065
g68
(g69
g70
NtRp2066
(dp2067
g73
(dp2068
g81
I3
ssg82
g2062
sg75
(lp2069
g666
asbasbasbag68
(g84
g70
NtRp2070
(dp2071
g73
(dp2072
sg82
g2024
sg75
(lp2073
g68
(g89
g70
NtRp2074
(dp2075
g73
(dp2076
g93
g94
ssg82
g2070
sg75
(lp2077
S'HTTP_ACCEPT_LANGUAGE'
p2078
asbag68
(g89
g70
NtRp2079
(dp2080
g73
(dp2081
g100
g101
ssg82
g2070
sg75
(lp2082
S':'
asbag68
(g89
g70
NtRp2083
(dp2084
g73
(dp2085
sg82
g2070
sg75
(lp2086
g68
(g69
g70
NtRp2087
(dp2088
g73
(dp2089
g81
I3
ssg82
g2083
sg75
(lp2090
g688
asbasbasbag68
(g84
g70
NtRp2091
(dp2092
g73
(dp2093
sg82
g2024
sg75
(lp2094
g68
(g89
g70
NtRp2095
(dp2096
g73
(dp2097
g93
g94
ssg82
g2091
sg75
(lp2098
S'HTTP_CONNECTION'
p2099
asbag68
(g89
g70
NtRp2100
(dp2101
g73
(dp2102
g100
g101
ssg82
g2091
sg75
(lp2103
S':'
asbag68
(g89
g70
NtRp2104
(dp2105
g73
(dp2106
sg82
g2091
sg75
(lp2107
g68
(g69
g70
NtRp2108
(dp2109
g73
(dp2110
g81
I3
ssg82
g2104
sg75
(lp2111
g710
asbasbasbag68
(g84
g70
NtRp2112
(dp2113
g73
(dp2114
sg82
g2024
sg75
(lp2115
g68
(g89
g70
NtRp2116
(dp2117
g73
(dp2118
g93
g94
ssg82
g2112
sg75
(lp2119
S'HTTP_COOKIE'
p2120
asbag68
(g89
g70
NtRp2121
(dp2122
g73
(dp2123
g100
g101
ssg82
g2112
sg75
(lp2124
S':'
asbag68
(g89
g70
NtRp2125
(dp2126
g73
(dp2127
sg82
g2112
sg75
(lp2128
g68
(g69
g70
NtRp2129
(dp2130
g73
(dp2131
g81
I3
ssg82
g2125
sg75
(lp2132
g732
asbasbasbag68
(g84
g70
NtRp2133
(dp2134
g73
(dp2135
sg82
g2024
sg75
(lp2136
g68
(g89
g70
NtRp2137
(dp2138
g73
(dp2139
g93
g94
ssg82
g2133
sg75
(lp2140
S'HTTP_HOST'
p2141
asbag68
(g89
g70
NtRp2142
(dp2143
g73
(dp2144
g100
g101
ssg82
g2133
sg75
(lp2145
S':'
asbag68
(g89
g70
NtRp2146
(dp2147
g73
(dp2148
sg82
g2133
sg75
(lp2149
g68
(g69
g70
NtRp2150
(dp2151
g73
(dp2152
g81
I3
ssg82
g2146
sg75
(lp2153
g754
asbasbasbag68
(g84
g70
NtRp2154
(dp2155
g73
(dp2156
sg82
g2024
sg75
(lp2157
g68
(g89
g70
NtRp2158
(dp2159
g73
(dp2160
g93
g94
ssg82
g2154
sg75
(lp2161
S'HTTP_USER_AGENT'
p2162
asbag68
(g89
g70
NtRp2163
(dp2164
g73
(dp2165
g100
g101
ssg82
g2154
sg75
(lp2166
S':'
asbag68
(g89
g70
NtRp2167
(dp2168
g73
(dp2169
sg82
g2154
sg75
(lp2170
g68
(g69
g70
NtRp2171
(dp2172
g73
(dp2173
g81
I3
ssg82
g2167
sg75
(lp2174
g776
asbasbasbag68
(g84
g70
NtRp2175
(dp2176
g73
(dp2177
sg82
g2024
sg75
(lp2178
g68
(g89
g70
NtRp2179
(dp2180
g73
(dp2181
g93
g94
ssg82
g2175
sg75
(lp2182
S'PATH_INFO'
p2183
asbag68
(g89
g70
NtRp2184
(dp2185
g73
(dp2186
g100
g101
ssg82
g2175
sg75
(lp2187
S':'
asbag68
(g89
g70
NtRp2188
(dp2189
g73
(dp2190
sg82
g2175
sg75
(lp2191
g68
(g69
g70
NtRp2192
(dp2193
g73
(dp2194
g81
I3
ssg82
g2188
sg75
(lp2195
g840
asbasbasbag68
(g84
g70
NtRp2196
(dp2197
g73
(dp2198
sg82
g2024
sg75
(lp2199
g68
(g89
g70
NtRp2200
(dp2201
g73
(dp2202
g93
g94
ssg82
g2196
sg75
(lp2203
S'QUERY_STRING'
p2204
asbag68
(g89
g70
NtRp2205
(dp2206
g73
(dp2207
g100
g101
ssg82
g2196
sg75
(lp2208
S':'
asbag68
(g89
g70
NtRp2209
(dp2210
g73
(dp2211
sg82
g2196
sg75
(lp2212
g68
(g69
g70
NtRp2213
(dp2214
g73
(dp2215
g81
I3
ssg82
g2209
sg75
(lp2216
S''
asbasbasbag68
(g84
g70
NtRp2217
(dp2218
g73
(dp2219
sg82
g2024
sg75
(lp2220
g68
(g89
g70
NtRp2221
(dp2222
g73
(dp2223
g93
g94
ssg82
g2217
sg75
(lp2224
S'REMOTE_ADDR'
p2225
asbag68
(g89
g70
NtRp2226
(dp2227
g73
(dp2228
g100
g101
ssg82
g2217
sg75
(lp2229
S':'
asbag68
(g89
g70
NtRp2230
(dp2231
g73
(dp2232
sg82
g2217
sg75
(lp2233
g68
(g69
g70
NtRp2234
(dp2235
g73
(dp2236
g81
I3
ssg82
g2230
sg75
(lp2237
g201
asbasbasbag68
(g84
g70
NtRp2238
(dp2239
g73
(dp2240
sg82
g2024
sg75
(lp2241
g68
(g89
g70
NtRp2242
(dp2243
g73
(dp2244
g93
g94
ssg82
g2238
sg75
(lp2245
S'REMOTE_PORT'
p2246
asbag68
(g89
g70
NtRp2247
(dp2248
g73
(dp2249
g100
g101
ssg82
g2238
sg75
(lp2250
S':'
asbag68
(g89
g70
NtRp2251
(dp2252
g73
(dp2253
sg82
g2238
sg75
(lp2254
g68
(g69
g70
NtRp2255
(dp2256
g73
(dp2257
g81
I3
ssg82
g2251
sg75
(lp2258
g904
asbasbasbag68
(g84
g70
NtRp2259
(dp2260
g73
(dp2261
sg82
g2024
sg75
(lp2262
g68
(g89
g70
NtRp2263
(dp2264
g73
(dp2265
g93
g94
ssg82
g2259
sg75
(lp2266
S'REQUEST_METHOD'
p2267
asbag68
(g89
g70
NtRp2268
(dp2269
g73
(dp2270
g100
g101
ssg82
g2259
sg75
(lp2271
S':'
asbag68
(g89
g70
NtRp2272
(dp2273
g73
(dp2274
sg82
g2259
sg75
(lp2275
g68
(g69
g70
NtRp2276
(dp2277
g73
(dp2278
g81
I3
ssg82
g2272
sg75
(lp2279
g926
asbasbasbag68
(g84
g70
NtRp2280
(dp2281
g73
(dp2282
sg82
g2024
sg75
(lp2283
g68
(g89
g70
NtRp2284
(dp2285
g73
(dp2286
g93
g94
ssg82
g2280
sg75
(lp2287
S'SCRIPT_NAME'
p2288
asbag68
(g89
g70
NtRp2289
(dp2290
g73
(dp2291
g100
g101
ssg82
g2280
sg75
(lp2292
S':'
asbag68
(g89
g70
NtRp2293
(dp2294
g73
(dp2295
sg82
g2280
sg75
(lp2296
g68
(g69
g70
NtRp2297
(dp2298
g73
(dp2299
g81
I3
ssg82
g2293
sg75
(lp2300
S''
asbasbasbag68
(g84
g70
NtRp2301
(dp2302
g73
(dp2303
sg82
g2024
sg75
(lp2304
g68
(g89
g70
NtRp2305
(dp2306
g73
(dp2307
g93
g94
ssg82
g2301
sg75
(lp2308
S'SERVER_NAME'
p2309
asbag68
(g89
g70
NtRp2310
(dp2311
g73
(dp2312
g100
g101
ssg82
g2301
sg75
(lp2313
S':'
asbag68
(g89
g70
NtRp2314
(dp2315
g73
(dp2316
sg82
g2301
sg75
(lp2317
g68
(g69
g70
NtRp2318
(dp2319
g73
(dp2320
g81
I3
ssg82
g2314
sg75
(lp2321
g969
asbasbasbag68
(g84
g70
NtRp2322
(dp2323
g73
(dp2324
sg82
g2024
sg75
(lp2325
g68
(g89
g70
NtRp2326
(dp2327
g73
(dp2328
g93
g94
ssg82
g2322
sg75
(lp2329
S'SERVER_PORT'
p2330
asbag68
(g89
g70
NtRp2331
(dp2332
g73
(dp2333
g100
g101
ssg82
g2322
sg75
(lp2334
S':'
asbag68
(g89
g70
NtRp2335
(dp2336
g73
(dp2337
sg82
g2322
sg75
(lp2338
g68
(g69
g70
NtRp2339
(dp2340
g73
(dp2341
g81
I3
ssg82
g2335
sg75
(lp2342
g991
asbasbasbag68
(g84
g70
NtRp2343
(dp2344
g73
(dp2345
sg82
g2024
sg75
(lp2346
g68
(g89
g70
NtRp2347
(dp2348
g73
(dp2349
g93
g94
ssg82
g2343
sg75
(lp2350
S'SERVER_PROTOCOL'
p2351
asbag68
(g89
g70
NtRp2352
(dp2353
g73
(dp2354
g100
g101
ssg82
g2343
sg75
(lp2355
S':'
asbag68
(g89
g70
NtRp2356
(dp2357
g73
(dp2358
sg82
g2343
sg75
(lp2359
g68
(g69
g70
NtRp2360
(dp2361
g73
(dp2362
g81
I3
ssg82
g2356
sg75
(lp2363
g1013
asbasbasbag68
(g84
g70
NtRp2364
(dp2365
g73
(dp2366
sg82
g2024
sg75
(lp2367
g68
(g89
g70
NtRp2368
(dp2369
g73
(dp2370
g93
g94
ssg82
g2364
sg75
(lp2371
S'SERVER_SOFTWARE'
p2372
asbag68
(g89
g70
NtRp2373
(dp2374
g73
(dp2375
g100
g101
ssg82
g2364
sg75
(lp2376
S':'
asbag68
(g89
g70
NtRp2377
(dp2378
g73
(dp2379
sg82
g2364
sg75
(lp2380
g68
(g69
g70
NtRp2381
(dp2382
g73
(dp2383
g81
I3
ssg82
g2377
sg75
(lp2384
g1035
asbasbasbag68
(g84
g70
NtRp2385
(dp2386
g73
(dp2387
sg82
g2024
sg75
(lp2388
g68
(g89
g70
NtRp2389
(dp2390
g73
(dp2391
g93
g94
ssg82
g2385
sg75
(lp2392
S'wsgi.errors'
p2393
asbag68
(g89
g70
NtRp2394
(dp2395
g73
(dp2396
g100
g101
ssg82
g2385
sg75
(lp2397
S':'
asbag68
(g89
g70
NtRp2398
(dp2399
g73
(dp2400
sg82
g2385
sg75
(lp2401
g68
(g69
g70
NtRp2402
(dp2403
g73
(dp2404
g81
I3
ssg82
g2398
sg75
(lp2405
S"<open file '<stderr>', mode 'w' at 0xb76ea0d0>"
p2406
asbasbasbag68
(g84
g70
NtRp2407
(dp2408
g73
(dp2409
sg82
g2024
sg75
(lp2410
g68
(g89
g70
NtRp2411
(dp2412
g73
(dp2413
g93
g94
ssg82
g2407
sg75
(lp2414
S'wsgi.file_wrapper'
p2415
asbag68
(g89
g70
NtRp2416
(dp2417
g73
(dp2418
g100
g101
ssg82
g2407
sg75
(lp2419
S':'
asbag68
(g89
g70
NtRp2420
(dp2421
g73
(dp2422
sg82
g2407
sg75
(lp2423
g68
(g69
g70
NtRp2424
(dp2425
g73
(dp2426
g81
I3
ssg82
g2420
sg75
(lp2427
S'<class wsgiref.util.FileWrapper at 0x8ff09ec>'
p2428
asbasbasbag68
(g84
g70
NtRp2429
(dp2430
g73
(dp2431
sg82
g2024
sg75
(lp2432
g68
(g89
g70
NtRp2433
(dp2434
g73
(dp2435
g93
g94
ssg82
g2429
sg75
(lp2436
S'wsgi.input'
p2437
asbag68
(g89
g70
NtRp2438
(dp2439
g73
(dp2440
g100
g101
ssg82
g2429
sg75
(lp2441
S':'
asbag68
(g89
g70
NtRp2442
(dp2443
g73
(dp2444
sg82
g2429
sg75
(lp2445
g68
(g69
g70
NtRp2446
(dp2447
g73
(dp2448
g81
I3
ssg82
g2442
sg75
(lp2449
S'<cStringIO.StringO object at 0x93046c0>'
p2450
asbasbasbag68
(g84
g70
NtRp2451
(dp2452
g73
(dp2453
sg82
g2024
sg75
(lp2454
g68
(g89
g70
NtRp2455
(dp2456
g73
(dp2457
g93
g94
ssg82
g2451
sg75
(lp2458
S'wsgi.multiprocess'
p2459
asbag68
(g89
g70
NtRp2460
(dp2461
g73
(dp2462
g100
g101
ssg82
g2451
sg75
(lp2463
S':'
asbag68
(g89
g70
NtRp2464
(dp2465
g73
(dp2466
sg82
g2451
sg75
(lp2467
g68
(g69
g70
NtRp2468
(dp2469
g73
(dp2470
g81
I3
ssg82
g2464
sg75
(lp2471
g111
asbasbasbag68
(g84
g70
NtRp2472
(dp2473
g73
(dp2474
sg82
g2024
sg75
(lp2475
g68
(g89
g70
NtRp2476
(dp2477
g73
(dp2478
g93
g94
ssg82
g2472
sg75
(lp2479
S'wsgi.multithread'
p2480
asbag68
(g89
g70
NtRp2481
(dp2482
g73
(dp2483
g100
g101
ssg82
g2472
sg75
(lp2484
S':'
asbag68
(g89
g70
NtRp2485
(dp2486
g73
(dp2487
sg82
g2472
sg75
(lp2488
g68
(g69
g70
NtRp2489
(dp2490
g73
(dp2491
g81
I3
ssg82
g2485
sg75
(lp2492
g1275
asbasbasbag68
(g84
g70
NtRp2493
(dp2494
g73
(dp2495
sg82
g2024
sg75
(lp2496
g68
(g89
g70
NtRp2497
(dp2498
g73
(dp2499
g93
g94
ssg82
g2493
sg75
(lp2500
S'wsgi.run_once'
p2501
asbag68
(g89
g70
NtRp2502
(dp2503
g73
(dp2504
g100
g101
ssg82
g2493
sg75
(lp2505
S':'
asbag68
(g89
g70
NtRp2506
(dp2507
g73
(dp2508
sg82
g2493
sg75
(lp2509
g68
(g69
g70
NtRp2510
(dp2511
g73
(dp2512
g81
I3
ssg82
g2506
sg75
(lp2513
g111
asbasbasbag68
(g84
g70
NtRp2514
(dp2515
g73
(dp2516
sg82
g2024
sg75
(lp2517
g68
(g89
g70
NtRp2518
(dp2519
g73
(dp2520
g93
g94
ssg82
g2514
sg75
(lp2521
S'wsgi.url_scheme'
p2522
asbag68
(g89
g70
NtRp2523
(dp2524
g73
(dp2525
g100
g101
ssg82
g2514
sg75
(lp2526
S':'
asbag68
(g89
g70
NtRp2527
(dp2528
g73
(dp2529
sg82
g2514
sg75
(lp2530
g68
(g69
g70
NtRp2531
(dp2532
g73
(dp2533
g81
I3
ssg82
g2527
sg75
(lp2534
g1318
asbasbasbag68
(g84
g70
NtRp2535
(dp2536
g73
(dp2537
sg82
g2024
sg75
(lp2538
g68
(g89
g70
NtRp2539
(dp2540
g73
(dp2541
g93
g94
ssg82
g2535
sg75
(lp2542
S'wsgi.version'
p2543
asbag68
(g89
g70
NtRp2544
(dp2545
g73
(dp2546
g100
g101
ssg82
g2535
sg75
(lp2547
S':'
asbag68
(g89
g70
NtRp2548
(dp2549
g73
(dp2550
sg82
g2535
sg75
(lp2551
g68
(g69
g70
NtRp2552
(dp2553
g73
(dp2554
g81
I3
ssg82
g2548
sg75
(lp2555
S'1'
asbasbasbasbasbasbasbasbasbasbasbasbasbsS'frames'
p2556
(lp2557
(dp2558
S'file'
p2559
S'/home/famihug/Apps/web2py/gluon/restricted.py'
p2560
sS'dump'
p2561
(dp2562
S'code'
p2563
S'\'# -*- coding: utf-8 -*-\\n# this file is released ...age.db")\\n\\nresponse._vars=response._caller(index)\\n\''
p2564
sS'layer'
p2565
S"'/home/famihug/Apps/web2py/applications/test/controllers/default.py'"
p2566
sS'global compile2'
p2567
S'<function compile2>'
p2568
sS'ccode'
p2569
S'undefined'
p2570
ssS'lnum'
p2571
I204
sS'lines'
p2572
(dp2573
I199
S"    environment['__name__'] = '__restricted__'"
p2574
sI200
S'    try:'
p2575
sI201
S'        if type(code) == types.CodeType:'
p2576
sI202
S'            ccode = code'
p2577
sI203
S'        else:'
p2578
sI204
S'            ccode = compile2(code,layer)'
p2579
sI205
S'        exec ccode in environment'
p2580
sI206
S'    except HTTP:'
p2581
sI207
S'        raise'
p2582
sI208
S'    except RestrictedError:'
p2583
ssS'call'
p2584
S'(code=\'# -*- coding: utf-8 -*-\\n# this file is released ...age.db")\\n\\nresponse._vars=response._caller(index)\\n\', environment={\'A\': <class \'gluon.html.A\'>, \'Auth\': <class \'gluon.tools.Auth\'>, \'B\': <class \'gluon.html.B\'>, \'BEAUTIFY\': <class \'gluon.html.BEAUTIFY\'>, \'BODY\': <class \'gluon.html.BODY\'>, \'BR\': <class \'gluon.html.BR\'>, \'BUTTON\': <class \'gluon.html.BUTTON\'>, \'CAT\': <class \'gluon.html.CAT\'>, \'CENTER\': <class \'gluon.html.CENTER\'>, \'CLEANUP\': <class \'gluon.validators.CLEANUP\'>, ...}, layer=\'/home/famihug/Apps/web2py/applications/test/controllers/default.py\')'
p2585
sS'func'
p2586
S'restricted'
p2587
sa(dp2588
g2559
S'/home/famihug/Apps/web2py/gluon/restricted.py'
p2589
sg2561
(dp2590
S'builtincompile'
p2591
S'<built-in function compile>'
p2592
sS'code'
p2593
S'\'# -*- coding: utf-8 -*-\\n# this file is released ...age.db")\\n\\nresponse._vars=response._caller(index)\\n\''
p2594
sS'code.rstrip'
p2595
S'<built-in method rstrip of str object>'
p2596
sS').replace'
p2597
g2570
sS'layer'
p2598
S"'/home/famihug/Apps/web2py/applications/test/controllers/default.py'"
p2599
ssg2571
I189
sg2572
(dp2600
I192
S'    """'
p2601
sI193
S'    runs code in environment and returns the output. if an exception occurs'
p2602
sI184
S''
sI185
S'def compile2(code,layer):'
p2603
sI186
S'    """'
p2604
sI187
S"    The +'\\n' is necessary else compile fails when code ends in a comment."
p2605
sI188
S'    """'
p2606
sI189
S"    return compile(code.rstrip().replace('\\r\\n','\\n')+'\\n', layer, 'exec')"
p2607
sI190
S''
sI191
S"def restricted(code, environment=None, layer='Unknown'):"
p2608
ssg2584
S'(code=\'# -*- coding: utf-8 -*-\\n# this file is released ...age.db")\\n\\nresponse._vars=response._caller(index)\\n\', layer=\'/home/famihug/Apps/web2py/applications/test/controllers/default.py\')'
p2609
sg2586
S'compile2'
p2610
sasS'pyver'
p2611
S'Python 2.6.6: /usr/bin/python'
p2612
sS'session'
p2613
g68
(g69
g70
NtRp2614
(dp2615
g73
(dp2616
sg75
(lp2617
g68
(g77
g70
NtRp2618
(dp2619
g73
(dp2620
g81
I5
ssg82
Nsg75
(lp2621
g68
(g84
g70
NtRp2622
(dp2623
g73
(dp2624
sg82
g2618
sg75
(lp2625
g68
(g89
g70
NtRp2626
(dp2627
g73
(dp2628
g93
g94
ssg82
g2622
sg75
(lp2629
S'auth'
p2630
asbag68
(g89
g70
NtRp2631
(dp2632
g73
(dp2633
g100
g101
ssg82
g2622
sg75
(lp2634
S':'
asbag68
(g89
g70
NtRp2635
(dp2636
g73
(dp2637
sg82
g2622
sg75
(lp2638
g68
(g69
g70
NtRp2639
(dp2640
g73
(dp2641
g81
I5
ssg82
g2635
sg75
(lp2642
g68
(g77
g70
NtRp2643
(dp2644
g73
(dp2645
g81
I4
ssg82
Nsg75
(lp2646
g68
(g84
g70
NtRp2647
(dp2648
g73
(dp2649
sg82
g2643
sg75
(lp2650
g68
(g89
g70
NtRp2651
(dp2652
g73
(dp2653
g93
g94
ssg82
g2647
sg75
(lp2654
S'expiration'
p2655
asbag68
(g89
g70
NtRp2656
(dp2657
g73
(dp2658
g100
g101
ssg82
g2647
sg75
(lp2659
S':'
asbag68
(g89
g70
NtRp2660
(dp2661
g73
(dp2662
sg82
g2647
sg75
(lp2663
g68
(g69
g70
NtRp2664
(dp2665
g73
(dp2666
g81
I4
ssg82
g2660
sg75
(lp2667
S'3600'
p2668
asbasbasbag68
(g84
g70
NtRp2669
(dp2670
g73
(dp2671
sg82
g2643
sg75
(lp2672
g68
(g89
g70
NtRp2673
(dp2674
g73
(dp2675
g93
g94
ssg82
g2669
sg75
(lp2676
S'hmac_key'
p2677
asbag68
(g89
g70
NtRp2678
(dp2679
g73
(dp2680
g100
g101
ssg82
g2669
sg75
(lp2681
S':'
asbag68
(g89
g70
NtRp2682
(dp2683
g73
(dp2684
sg82
g2669
sg75
(lp2685
g68
(g69
g70
NtRp2686
(dp2687
g73
(dp2688
g81
I4
ssg82
g2682
sg75
(lp2689
S'88072444-98cf-4540-a290-d99a6a8d2715'
p2690
asbasbasbag68
(g84
g70
NtRp2691
(dp2692
g73
(dp2693
sg82
g2643
sg75
(lp2694
g68
(g89
g70
NtRp2695
(dp2696
g73
(dp2697
g93
g94
ssg82
g2691
sg75
(lp2698
S'last_visit'
p2699
asbag68
(g89
g70
NtRp2700
(dp2701
g73
(dp2702
g100
g101
ssg82
g2691
sg75
(lp2703
S':'
asbag68
(g89
g70
NtRp2704
(dp2705
g73
(dp2706
sg82
g2691
sg75
(lp2707
g68
(g69
g70
NtRp2708
(dp2709
g73
(dp2710
g81
I4
ssg82
g2704
sg75
(lp2711
S'datetime.datetime(2012, 7, 3, 10, 39, 32, 841703)'
p2712
asbasbasbag68
(g84
g70
NtRp2713
(dp2714
g73
(dp2715
sg82
g2643
sg75
(lp2716
g68
(g89
g70
NtRp2717
(dp2718
g73
(dp2719
g93
g94
ssg82
g2713
sg75
(lp2720
S'remember'
p2721
asbag68
(g89
g70
NtRp2722
(dp2723
g73
(dp2724
g100
g101
ssg82
g2713
sg75
(lp2725
S':'
asbag68
(g89
g70
NtRp2726
(dp2727
g73
(dp2728
sg82
g2713
sg75
(lp2729
g68
(g69
g70
NtRp2730
(dp2731
g73
(dp2732
g81
I4
ssg82
g2726
sg75
(lp2733
g111
asbasbasbag68
(g84
g70
NtRp2734
(dp2735
g73
(dp2736
sg82
g2643
sg75
(lp2737
g68
(g89
g70
NtRp2738
(dp2739
g73
(dp2740
g93
g94
ssg82
g2734
sg75
(lp2741
S'user'
p2742
asbag68
(g89
g70
NtRp2743
(dp2744
g73
(dp2745
g100
g101
ssg82
g2734
sg75
(lp2746
S':'
asbag68
(g89
g70
NtRp2747
(dp2748
g73
(dp2749
sg82
g2734
sg75
(lp2750
g68
(g69
g70
NtRp2751
(dp2752
g73
(dp2753
g81
I4
ssg82
g2747
sg75
(lp2754
g68
(g77
g70
NtRp2755
(dp2756
g73
(dp2757
g81
I3
ssg82
Nsg75
(lp2758
g68
(g84
g70
NtRp2759
(dp2760
g73
(dp2761
sg82
g2755
sg75
(lp2762
g68
(g89
g70
NtRp2763
(dp2764
g73
(dp2765
g93
g94
ssg82
g2759
sg75
(lp2766
S'email'
p2767
asbag68
(g89
g70
NtRp2768
(dp2769
g73
(dp2770
g100
g101
ssg82
g2759
sg75
(lp2771
S':'
asbag68
(g89
g70
NtRp2772
(dp2773
g73
(dp2774
sg82
g2759
sg75
(lp2775
g68
(g69
g70
NtRp2776
(dp2777
g73
(dp2778
g81
I3
ssg82
g2772
sg75
(lp2779
S'root@familug.org'
p2780
asbasbasbag68
(g84
g70
NtRp2781
(dp2782
g73
(dp2783
sg82
g2755
sg75
(lp2784
g68
(g89
g70
NtRp2785
(dp2786
g73
(dp2787
g93
g94
ssg82
g2781
sg75
(lp2788
S'first_name'
p2789
asbag68
(g89
g70
NtRp2790
(dp2791
g73
(dp2792
g100
g101
ssg82
g2781
sg75
(lp2793
S':'
asbag68
(g89
g70
NtRp2794
(dp2795
g73
(dp2796
sg82
g2781
sg75
(lp2797
g68
(g69
g70
NtRp2798
(dp2799
g73
(dp2800
g81
I3
ssg82
g2794
sg75
(lp2801
S'hvn'
p2802
asbasbasbag68
(g84
g70
NtRp2803
(dp2804
g73
(dp2805
sg82
g2755
sg75
(lp2806
g68
(g89
g70
NtRp2807
(dp2808
g73
(dp2809
g93
g94
ssg82
g2803
sg75
(lp2810
S'id'
p2811
asbag68
(g89
g70
NtRp2812
(dp2813
g73
(dp2814
g100
g101
ssg82
g2803
sg75
(lp2815
S':'
asbag68
(g89
g70
NtRp2816
(dp2817
g73
(dp2818
sg82
g2803
sg75
(lp2819
g68
(g69
g70
NtRp2820
(dp2821
g73
(dp2822
g81
I3
ssg82
g2816
sg75
(lp2823
S'1'
asbasbasbag68
(g84
g70
NtRp2824
(dp2825
g73
(dp2826
sg82
g2755
sg75
(lp2827
g68
(g89
g70
NtRp2828
(dp2829
g73
(dp2830
g93
g94
ssg82
g2824
sg75
(lp2831
S'last_name'
p2832
asbag68
(g89
g70
NtRp2833
(dp2834
g73
(dp2835
g100
g101
ssg82
g2824
sg75
(lp2836
S':'
asbag68
(g89
g70
NtRp2837
(dp2838
g73
(dp2839
sg82
g2824
sg75
(lp2840
g68
(g69
g70
NtRp2841
(dp2842
g73
(dp2843
g81
I3
ssg82
g2837
sg75
(lp2844
S'hvn'
p2845
asbasbasbag68
(g84
g70
NtRp2846
(dp2847
g73
(dp2848
sg82
g2755
sg75
(lp2849
g68
(g89
g70
NtRp2850
(dp2851
g73
(dp2852
g93
g94
ssg82
g2846
sg75
(lp2853
S'password'
p2854
asbag68
(g89
g70
NtRp2855
(dp2856
g73
(dp2857
g100
g101
ssg82
g2846
sg75
(lp2858
S':'
asbag68
(g89
g70
NtRp2859
(dp2860
g73
(dp2861
sg82
g2846
sg75
(lp2862
g68
(g69
g70
NtRp2863
(dp2864
g73
(dp2865
g81
I3
ssg82
g2859
sg75
(lp2866
S'8011e23b3c19b803721a534da64a96af'
p2867
asbasbasbag68
(g84
g70
NtRp2868
(dp2869
g73
(dp2870
sg82
g2755
sg75
(lp2871
g68
(g89
g70
NtRp2872
(dp2873
g73
(dp2874
g93
g94
ssg82
g2868
sg75
(lp2875
S'registration_id'
p2876
asbag68
(g89
g70
NtRp2877
(dp2878
g73
(dp2879
g100
g101
ssg82
g2868
sg75
(lp2880
S':'
asbag68
(g89
g70
NtRp2881
(dp2882
g73
(dp2883
sg82
g2868
sg75
(lp2884
g68
(g69
g70
NtRp2885
(dp2886
g73
(dp2887
g81
I3
ssg82
g2881
sg75
(lp2888
S''
asbasbasbag68
(g84
g70
NtRp2889
(dp2890
g73
(dp2891
sg82
g2755
sg75
(lp2892
g68
(g89
g70
NtRp2893
(dp2894
g73
(dp2895
g93
g94
ssg82
g2889
sg75
(lp2896
S'registration_key'
p2897
asbag68
(g89
g70
NtRp2898
(dp2899
g73
(dp2900
g100
g101
ssg82
g2889
sg75
(lp2901
S':'
asbag68
(g89
g70
NtRp2902
(dp2903
g73
(dp2904
sg82
g2889
sg75
(lp2905
g68
(g69
g70
NtRp2906
(dp2907
g73
(dp2908
g81
I3
ssg82
g2902
sg75
(lp2909
S''
asbasbasbag68
(g84
g70
NtRp2910
(dp2911
g73
(dp2912
sg82
g2755
sg75
(lp2913
g68
(g89
g70
NtRp2914
(dp2915
g73
(dp2916
g93
g94
ssg82
g2910
sg75
(lp2917
S'reset_password_key'
p2918
asbag68
(g89
g70
NtRp2919
(dp2920
g73
(dp2921
g100
g101
ssg82
g2910
sg75
(lp2922
S':'
asbag68
(g89
g70
NtRp2923
(dp2924
g73
(dp2925
sg82
g2910
sg75
(lp2926
g68
(g69
g70
NtRp2927
(dp2928
g73
(dp2929
g81
I3
ssg82
g2923
sg75
(lp2930
S''
asbasbasbasbasbasbasbag68
(g84
g70
NtRp2931
(dp2932
g73
(dp2933
sg82
g2643
sg75
(lp2934
g68
(g89
g70
NtRp2935
(dp2936
g73
(dp2937
g93
g94
ssg82
g2931
sg75
(lp2938
S'user_groups'
p2939
asbag68
(g89
g70
NtRp2940
(dp2941
g73
(dp2942
g100
g101
ssg82
g2931
sg75
(lp2943
S':'
asbag68
(g89
g70
NtRp2944
(dp2945
g73
(dp2946
sg82
g2931
sg75
(lp2947
g68
(g69
g70
NtRp2948
(dp2949
g73
(dp2950
g81
I4
ssg82
g2944
sg75
(lp2951
g68
(g77
g70
NtRp2952
(dp2953
g73
(dp2954
g81
I3
ssg82
Nsg75
(lp2955
g68
(g84
g70
NtRp2956
(dp2957
g73
(dp2958
sg82
g2952
sg75
(lp2959
g68
(g89
g70
NtRp2960
(dp2961
g73
(dp2962
g93
g94
ssg82
g2956
sg75
(lp2963
S'1'
asbag68
(g89
g70
NtRp2964
(dp2965
g73
(dp2966
g100
g101
ssg82
g2956
sg75
(lp2967
S':'
asbag68
(g89
g70
NtRp2968
(dp2969
g73
(dp2970
sg82
g2956
sg75
(lp2971
g68
(g69
g70
NtRp2972
(dp2973
g73
(dp2974
g81
I3
ssg82
g2968
sg75
(lp2975
S'user_1'
p2976
asbasbasbasbasbasbasbasbasbasbasbasbasbsS'etype'
p2977
S"<type 'exceptions.IndentationError'>"
p2978
sS'date'
p2979
S'Tue Jul  3 10:39:33 2012'
p2980
sS'response'
p2981
g68
(g69
g70
NtRp2982
(dp2983
g73
(dp2984
sg75
(lp2985
g68
(g77
g70
NtRp2986
(dp2987
g73
(dp2988
g81
I5
ssg82
Nsg75
(lp2989
g68
(g84
g70
NtRp2990
(dp2991
g73
(dp2992
sg82
g2986
sg75
(lp2993
g68
(g89
g70
NtRp2994
(dp2995
g73
(dp2996
g93
g94
ssg82
g2990
sg75
(lp2997
g166
asbag68
(g89
g70
NtRp2998
(dp2999
g73
(dp3000
g100
g101
ssg82
g2990
sg75
(lp3001
S':'
asbag68
(g89
g70
NtRp3002
(dp3003
g73
(dp3004
sg82
g2990
sg75
(lp3005
g68
(g69
g70
NtRp3006
(dp3007
g73
(dp3008
g81
I5
ssg82
g3002
sg75
(lp3009
S'<cStringIO.StringO object at 0x9304260>'
p3010
asbasbasbag68
(g84
g70
NtRp3011
(dp3012
g73
(dp3013
sg82
g2986
sg75
(lp3014
g68
(g89
g70
NtRp3015
(dp3016
g73
(dp3017
g93
g94
ssg82
g3011
sg75
(lp3018
g232
asbag68
(g89
g70
NtRp3019
(dp3020
g73
(dp3021
g100
g101
ssg82
g3011
sg75
(lp3022
S':'
asbag68
(g89
g70
NtRp3023
(dp3024
g73
(dp3025
sg82
g3011
sg75
(lp3026
g68
(g69
g70
NtRp3027
(dp3028
g73
(dp3029
g81
I5
ssg82
g3023
sg75
(lp3030
g68
(g77
g70
NtRp3031
(dp3032
g73
(dp3033
g81
I4
ssg82
Nsg75
(lp3034
g68
(g84
g70
NtRp3035
(dp3036
g73
(dp3037
sg82
g3031
sg75
(lp3038
g68
(g89
g70
NtRp3039
(dp3040
g73
(dp3041
g93
g94
ssg82
g3035
sg75
(lp3042
S'session_id_test'
p3043
asbag68
(g89
g70
NtRp3044
(dp3045
g73
(dp3046
g100
g101
ssg82
g3035
sg75
(lp3047
S':'
asbag68
(g89
g70
NtRp3048
(dp3049
g73
(dp3050
sg82
g3035
sg75
(lp3051
g68
(g69
g70
NtRp3052
(dp3053
g73
(dp3054
g81
I4
ssg82
g3048
sg75
(lp3055
g68
(g77
g70
NtRp3056
(dp3057
g73
(dp3058
g81
I3
ssg82
Nsg75
(lp3059
g68
(g84
g70
NtRp3060
(dp3061
g73
(dp3062
sg82
g3056
sg75
(lp3063
g68
(g89
g70
NtRp3064
(dp3065
g73
(dp3066
g93
g94
ssg82
g3060
sg75
(lp3067
g282
asbag68
(g89
g70
NtRp3068
(dp3069
g73
(dp3070
g100
g101
ssg82
g3060
sg75
(lp3071
S':'
asbag68
(g89
g70
NtRp3072
(dp3073
g73
(dp3074
sg82
g3060
sg75
(lp3075
g68
(g69
g70
NtRp3076
(dp3077
g73
(dp3078
g81
I3
ssg82
g3072
sg75
(lp3079
S''
asbasbasbag68
(g84
g70
NtRp3080
(dp3081
g73
(dp3082
sg82
g3056
sg75
(lp3083
g68
(g89
g70
NtRp3084
(dp3085
g73
(dp3086
g93
g94
ssg82
g3080
sg75
(lp3087
g303
asbag68
(g89
g70
NtRp3088
(dp3089
g73
(dp3090
g100
g101
ssg82
g3080
sg75
(lp3091
S':'
asbag68
(g89
g70
NtRp3092
(dp3093
g73
(dp3094
sg82
g3080
sg75
(lp3095
g68
(g69
g70
NtRp3096
(dp3097
g73
(dp3098
g81
I3
ssg82
g3092
sg75
(lp3099
S''
asbasbasbag68
(g84
g70
NtRp3100
(dp3101
g73
(dp3102
sg82
g3056
sg75
(lp3103
g68
(g89
g70
NtRp3104
(dp3105
g73
(dp3106
g93
g94
ssg82
g3100
sg75
(lp3107
g324
asbag68
(g89
g70
NtRp3108
(dp3109
g73
(dp3110
g100
g101
ssg82
g3100
sg75
(lp3111
S':'
asbag68
(g89
g70
NtRp3112
(dp3113
g73
(dp3114
sg82
g3100
sg75
(lp3115
g68
(g69
g70
NtRp3116
(dp3117
g73
(dp3118
g81
I3
ssg82
g3112
sg75
(lp3119
S''
asbasbasbag68
(g84
g70
NtRp3120
(dp3121
g73
(dp3122
sg82
g3056
sg75
(lp3123
g68
(g89
g70
NtRp3124
(dp3125
g73
(dp3126
g93
g94
ssg82
g3120
sg75
(lp3127
g345
asbag68
(g89
g70
NtRp3128
(dp3129
g73
(dp3130
g100
g101
ssg82
g3120
sg75
(lp3131
S':'
asbag68
(g89
g70
NtRp3132
(dp3133
g73
(dp3134
sg82
g3120
sg75
(lp3135
g68
(g69
g70
NtRp3136
(dp3137
g73
(dp3138
g81
I3
ssg82
g3132
sg75
(lp3139
S''
asbasbasbag68
(g84
g70
NtRp3140
(dp3141
g73
(dp3142
sg82
g3056
sg75
(lp3143
g68
(g89
g70
NtRp3144
(dp3145
g73
(dp3146
g93
g94
ssg82
g3140
sg75
(lp3147
g366
asbag68
(g89
g70
NtRp3148
(dp3149
g73
(dp3150
g100
g101
ssg82
g3140
sg75
(lp3151
S':'
asbag68
(g89
g70
NtRp3152
(dp3153
g73
(dp3154
sg82
g3140
sg75
(lp3155
g68
(g69
g70
NtRp3156
(dp3157
g73
(dp3158
g81
I3
ssg82
g3152
sg75
(lp3159
S''
asbasbasbag68
(g84
g70
NtRp3160
(dp3161
g73
(dp3162
sg82
g3056
sg75
(lp3163
g68
(g89
g70
NtRp3164
(dp3165
g73
(dp3166
g93
g94
ssg82
g3160
sg75
(lp3167
g387
asbag68
(g89
g70
NtRp3168
(dp3169
g73
(dp3170
g100
g101
ssg82
g3160
sg75
(lp3171
S':'
asbag68
(g89
g70
NtRp3172
(dp3173
g73
(dp3174
sg82
g3160
sg75
(lp3175
g68
(g69
g70
NtRp3176
(dp3177
g73
(dp3178
g81
I3
ssg82
g3172
sg75
(lp3179
S'/'
asbasbasbag68
(g84
g70
NtRp3180
(dp3181
g73
(dp3182
sg82
g3056
sg75
(lp3183
g68
(g89
g70
NtRp3184
(dp3185
g73
(dp3186
g93
g94
ssg82
g3180
sg75
(lp3187
g408
asbag68
(g89
g70
NtRp3188
(dp3189
g73
(dp3190
g100
g101
ssg82
g3180
sg75
(lp3191
S':'
asbag68
(g89
g70
NtRp3192
(dp3193
g73
(dp3194
sg82
g3180
sg75
(lp3195
g68
(g69
g70
NtRp3196
(dp3197
g73
(dp3198
g81
I3
ssg82
g3192
sg75
(lp3199
S''
asbasbasbag68
(g84
g70
NtRp3200
(dp3201
g73
(dp3202
sg82
g3056
sg75
(lp3203
g68
(g89
g70
NtRp3204
(dp3205
g73
(dp3206
g93
g94
ssg82
g3200
sg75
(lp3207
g429
asbag68
(g89
g70
NtRp3208
(dp3209
g73
(dp3210
g100
g101
ssg82
g3200
sg75
(lp3211
S':'
asbag68
(g89
g70
NtRp3212
(dp3213
g73
(dp3214
sg82
g3200
sg75
(lp3215
g68
(g69
g70
NtRp3216
(dp3217
g73
(dp3218
g81
I3
ssg82
g3212
sg75
(lp3219
S''
asbasbasbasbasbasbasbasbasbasbasbag68
(g84
g70
NtRp3220
(dp3221
g73
(dp3222
sg82
g2986
sg75
(lp3223
g68
(g89
g70
NtRp3224
(dp3225
g73
(dp3226
g93
g94
ssg82
g3220
sg75
(lp3227
S'delimiters'
p3228
asbag68
(g89
g70
NtRp3229
(dp3230
g73
(dp3231
g100
g101
ssg82
g3220
sg75
(lp3232
S':'
asbag68
(g89
g70
NtRp3233
(dp3234
g73
(dp3235
sg82
g3220
sg75
(lp3236
g68
(g69
g70
NtRp3237
(dp3238
g73
(dp3239
g81
I5
ssg82
g3233
sg75
(lp3240
g68
(g77
g70
NtRp3241
(dp3242
g73
(dp3243
g81
I4
ssg82
Nsg75
(lp3244
g68
(g84
g70
NtRp3245
(dp3246
g73
(dp3247
sg82
g3241
sg75
(lp3248
g68
(g89
g70
NtRp3249
(dp3250
g73
(dp3251
sg82
g3245
sg75
(lp3252
g68
(g69
g70
NtRp3253
(dp3254
g73
(dp3255
g81
I4
ssg82
g3249
sg75
(lp3256
S'{{'
p3257
asbasbasbag68
(g84
g70
NtRp3258
(dp3259
g73
(dp3260
sg82
g3241
sg75
(lp3261
g68
(g89
g70
NtRp3262
(dp3263
g73
(dp3264
sg82
g3258
sg75
(lp3265
g68
(g69
g70
NtRp3266
(dp3267
g73
(dp3268
g81
I4
ssg82
g3262
sg75
(lp3269
S'}}'
p3270
asbasbasbasbasbasbasbag68
(g84
g70
NtRp3271
(dp3272
g73
(dp3273
sg82
g2986
sg75
(lp3274
g68
(g89
g70
NtRp3275
(dp3276
g73
(dp3277
g93
g94
ssg82
g3271
sg75
(lp3278
S'files'
p3279
asbag68
(g89
g70
NtRp3280
(dp3281
g73
(dp3282
g100
g101
ssg82
g3271
sg75
(lp3283
S':'
asbag68
(g89
g70
NtRp3284
(dp3285
g73
(dp3286
sg82
g3271
sg75
(lp3287
g68
(g69
g70
NtRp3288
(dp3289
g73
(dp3290
g81
I5
ssg82
g3284
sg75
(lp3291
g68
(g77
g70
NtRp3292
(dp3293
g73
(dp3294
g81
I4
ssg82
Nsg75
(lp3295
sbasbasbasbag68
(g84
g70
NtRp3296
(dp3297
g73
(dp3298
sg82
g2986
sg75
(lp3299
g68
(g89
g70
NtRp3300
(dp3301
g73
(dp3302
g93
g94
ssg82
g3296
sg75
(lp3303
S'flash'
p3304
asbag68
(g89
g70
NtRp3305
(dp3306
g73
(dp3307
g100
g101
ssg82
g3296
sg75
(lp3308
S':'
asbag68
(g89
g70
NtRp3309
(dp3310
g73
(dp3311
sg82
g3296
sg75
(lp3312
g68
(g69
g70
NtRp3313
(dp3314
g73
(dp3315
g81
I5
ssg82
g3309
sg75
(lp3316
S''
asbasbasbag68
(g84
g70
NtRp3317
(dp3318
g73
(dp3319
sg82
g2986
sg75
(lp3320
g68
(g89
g70
NtRp3321
(dp3322
g73
(dp3323
g93
g94
ssg82
g3317
sg75
(lp3324
S'generic_patterns'
p3325
asbag68
(g89
g70
NtRp3326
(dp3327
g73
(dp3328
g100
g101
ssg82
g3317
sg75
(lp3329
S':'
asbag68
(g89
g70
NtRp3330
(dp3331
g73
(dp3332
sg82
g3317
sg75
(lp3333
g68
(g69
g70
NtRp3334
(dp3335
g73
(dp3336
g81
I5
ssg82
g3330
sg75
(lp3337
g68
(g77
g70
NtRp3338
(dp3339
g73
(dp3340
g81
I4
ssg82
Nsg75
(lp3341
g68
(g84
g70
NtRp3342
(dp3343
g73
(dp3344
sg82
g3338
sg75
(lp3345
g68
(g89
g70
NtRp3346
(dp3347
g73
(dp3348
sg82
g3342
sg75
(lp3349
g68
(g69
g70
NtRp3350
(dp3351
g73
(dp3352
g81
I4
ssg82
g3346
sg75
(lp3353
S'*'
asbasbasbasbasbasbasbag68
(g84
g70
NtRp3354
(dp3355
g73
(dp3356
sg82
g2986
sg75
(lp3357
g68
(g89
g70
NtRp3358
(dp3359
g73
(dp3360
g93
g94
ssg82
g3354
sg75
(lp3361
S'headers'
p3362
asbag68
(g89
g70
NtRp3363
(dp3364
g73
(dp3365
g100
g101
ssg82
g3354
sg75
(lp3366
S':'
asbag68
(g89
g70
NtRp3367
(dp3368
g73
(dp3369
sg82
g3354
sg75
(lp3370
g68
(g69
g70
NtRp3371
(dp3372
g73
(dp3373
g81
I5
ssg82
g3367
sg75
(lp3374
g68
(g77
g70
NtRp3375
(dp3376
g73
(dp3377
g81
I4
ssg82
Nsg75
(lp3378
g68
(g84
g70
NtRp3379
(dp3380
g73
(dp3381
sg82
g3375
sg75
(lp3382
g68
(g89
g70
NtRp3383
(dp3384
g73
(dp3385
g93
g94
ssg82
g3379
sg75
(lp3386
S'Cache-Control'
p3387
asbag68
(g89
g70
NtRp3388
(dp3389
g73
(dp3390
g100
g101
ssg82
g3379
sg75
(lp3391
S':'
asbag68
(g89
g70
NtRp3392
(dp3393
g73
(dp3394
sg82
g3379
sg75
(lp3395
g68
(g69
g70
NtRp3396
(dp3397
g73
(dp3398
g81
I4
ssg82
g3392
sg75
(lp3399
S'no-store, no-cache, must-revalidate, post-check=0, pre-check=0'
p3400
asbasbasbag68
(g84
g70
NtRp3401
(dp3402
g73
(dp3403
sg82
g3375
sg75
(lp3404
g68
(g89
g70
NtRp3405
(dp3406
g73
(dp3407
g93
g94
ssg82
g3401
sg75
(lp3408
S'Content-Type'
p3409
asbag68
(g89
g70
NtRp3410
(dp3411
g73
(dp3412
g100
g101
ssg82
g3401
sg75
(lp3413
S':'
asbag68
(g89
g70
NtRp3414
(dp3415
g73
(dp3416
sg82
g3401
sg75
(lp3417
g68
(g69
g70
NtRp3418
(dp3419
g73
(dp3420
g81
I4
ssg82
g3414
sg75
(lp3421
S'text/html; charset=utf-8'
p3422
asbasbasbag68
(g84
g70
NtRp3423
(dp3424
g73
(dp3425
sg82
g3375
sg75
(lp3426
g68
(g89
g70
NtRp3427
(dp3428
g73
(dp3429
g93
g94
ssg82
g3423
sg75
(lp3430
S'Expires'
p3431
asbag68
(g89
g70
NtRp3432
(dp3433
g73
(dp3434
g100
g101
ssg82
g3423
sg75
(lp3435
S':'
asbag68
(g89
g70
NtRp3436
(dp3437
g73
(dp3438
sg82
g3423
sg75
(lp3439
g68
(g69
g70
NtRp3440
(dp3441
g73
(dp3442
g81
I4
ssg82
g3436
sg75
(lp3443
S'Tue, 03 Jul 2012 03:39:32 GMT'
p3444
asbasbasbag68
(g84
g70
NtRp3445
(dp3446
g73
(dp3447
sg82
g3375
sg75
(lp3448
g68
(g89
g70
NtRp3449
(dp3450
g73
(dp3451
g93
g94
ssg82
g3445
sg75
(lp3452
S'Pragma'
p3453
asbag68
(g89
g70
NtRp3454
(dp3455
g73
(dp3456
g100
g101
ssg82
g3445
sg75
(lp3457
S':'
asbag68
(g89
g70
NtRp3458
(dp3459
g73
(dp3460
sg82
g3445
sg75
(lp3461
g68
(g69
g70
NtRp3462
(dp3463
g73
(dp3464
g81
I4
ssg82
g3458
sg75
(lp3465
S'no-cache'
p3466
asbasbasbag68
(g84
g70
NtRp3467
(dp3468
g73
(dp3469
sg82
g3375
sg75
(lp3470
g68
(g89
g70
NtRp3471
(dp3472
g73
(dp3473
g93
g94
ssg82
g3467
sg75
(lp3474
S'X-Powered-By'
p3475
asbag68
(g89
g70
NtRp3476
(dp3477
g73
(dp3478
g100
g101
ssg82
g3467
sg75
(lp3479
S':'
asbag68
(g89
g70
NtRp3480
(dp3481
g73
(dp3482
sg82
g3467
sg75
(lp3483
g68
(g69
g70
NtRp3484
(dp3485
g73
(dp3486
g81
I4
ssg82
g3480
sg75
(lp3487
S'web2py'
p3488
asbasbasbasbasbasbasbag68
(g84
g70
NtRp3489
(dp3490
g73
(dp3491
sg82
g2986
sg75
(lp3492
g68
(g89
g70
NtRp3493
(dp3494
g73
(dp3495
g93
g94
ssg82
g3489
sg75
(lp3496
S'menu'
p3497
asbag68
(g89
g70
NtRp3498
(dp3499
g73
(dp3500
g100
g101
ssg82
g3489
sg75
(lp3501
S':'
asbag68
(g89
g70
NtRp3502
(dp3503
g73
(dp3504
sg82
g3489
sg75
(lp3505
g68
(g69
g70
NtRp3506
(dp3507
g73
(dp3508
g81
I5
ssg82
g3502
sg75
(lp3509
g68
(g77
g70
NtRp3510
(dp3511
g73
(dp3512
g81
I4
ssg82
Nsg75
(lp3513
g68
(g84
g70
NtRp3514
(dp3515
g73
(dp3516
sg82
g3510
sg75
(lp3517
g68
(g89
g70
NtRp3518
(dp3519
g73
(dp3520
sg82
g3514
sg75
(lp3521
g68
(g69
g70
NtRp3522
(dp3523
g73
(dp3524
g81
I4
ssg82
g3518
sg75
(lp3525
g68
(g77
g70
NtRp3526
(dp3527
g73
(dp3528
g81
I3
ssg82
Nsg75
(lp3529
g68
(g84
g70
NtRp3530
(dp3531
g73
(dp3532
sg82
g3526
sg75
(lp3533
g68
(g89
g70
NtRp3534
(dp3535
g73
(dp3536
sg82
g3530
sg75
(lp3537
g68
(g69
g70
NtRp3538
(dp3539
g73
(dp3540
g81
I3
ssg82
g3534
sg75
(lp3541
cgluon.languages
lazyT_unpickle
p3542
(S's\x04\x00\x00\x00Home'
tRp3543
asbasbasbag68
(g84
g70
NtRp3544
(dp3545
g73
(dp3546
sg82
g3526
sg75
(lp3547
g68
(g89
g70
NtRp3548
(dp3549
g73
(dp3550
sg82
g3544
sg75
(lp3551
g68
(g69
g70
NtRp3552
(dp3553
g73
(dp3554
g81
I3
ssg82
g3548
sg75
(lp3555
g111
asbasbasbag68
(g84
g70
NtRp3556
(dp3557
g73
(dp3558
sg82
g3526
sg75
(lp3559
g68
(g89
g70
NtRp3560
(dp3561
g73
(dp3562
sg82
g3556
sg75
(lp3563
g68
(g69
g70
NtRp3564
(dp3565
g73
(dp3566
g81
I3
ssg82
g3560
sg75
(lp3567
S'/test/default/index'
p3568
asbasbasbag68
(g84
g70
NtRp3569
(dp3570
g73
(dp3571
sg82
g3526
sg75
(lp3572
g68
(g89
g70
NtRp3573
(dp3574
g73
(dp3575
sg82
g3569
sg75
(lp3576
g68
(g69
g70
NtRp3577
(dp3578
g73
(dp3579
g81
I3
ssg82
g3573
sg75
(lp3580
g68
(g77
g70
NtRp3581
(dp3582
g73
(dp3583
g81
I2
ssg82
Nsg75
(lp3584
sbasbasbasbasbasbasbasbag68
(g84
g70
NtRp3585
(dp3586
g73
(dp3587
sg82
g3510
sg75
(lp3588
g68
(g89
g70
NtRp3589
(dp3590
g73
(dp3591
sg82
g3585
sg75
(lp3592
g68
(g69
g70
NtRp3593
(dp3594
g73
(dp3595
g81
I4
ssg82
g3589
sg75
(lp3596
g68
(g77
g70
NtRp3597
(dp3598
g73
(dp3599
g81
I3
ssg82
Nsg75
(lp3600
g68
(g84
g70
NtRp3601
(dp3602
g73
(dp3603
sg82
g3597
sg75
(lp3604
g68
(g89
g70
NtRp3605
(dp3606
g73
(dp3607
sg82
g3601
sg75
(lp3608
g68
(g69
g70
NtRp3609
(dp3610
g73
(dp3611
g81
I3
ssg82
g3605
sg75
(lp3612
g68
(cgluon.html
SPAN
p3613
g70
NtRp3614
(dp3615
g73
(dp3616
g93
S'color:yellow'
p3617
ssg82
Nsg75
(lp3618
g3488
asbasbasbasbag68
(g84
g70
NtRp3619
(dp3620
g73
(dp3621
sg82
g3597
sg75
(lp3622
g68
(g89
g70
NtRp3623
(dp3624
g73
(dp3625
sg82
g3619
sg75
(lp3626
g68
(g69
g70
NtRp3627
(dp3628
g73
(dp3629
g81
I3
ssg82
g3623
sg75
(lp3630
g111
asbasbasbag68
(g84
g70
NtRp3631
(dp3632
g73
(dp3633
sg82
g3597
sg75
(lp3634
g68
(g89
g70
NtRp3635
(dp3636
g73
(dp3637
sg82
g3631
sg75
(lp3638
g68
(g69
g70
NtRp3639
(dp3640
g73
(dp3641
g81
I3
ssg82
g3635
sg75
(lp3642
S'None'
p3643
asbasbasbag68
(g84
g70
NtRp3644
(dp3645
g73
(dp3646
sg82
g3597
sg75
(lp3647
g68
(g89
g70
NtRp3648
(dp3649
g73
(dp3650
sg82
g3644
sg75
(lp3651
g68
(g69
g70
NtRp3652
(dp3653
g73
(dp3654
g81
I3
ssg82
g3648
sg75
(lp3655
g68
(g77
g70
NtRp3656
(dp3657
g73
(dp3658
g81
I2
ssg82
Nsg75
(lp3659
g68
(g84
g70
NtRp3660
(dp3661
g73
(dp3662
sg82
g3656
sg75
(lp3663
g68
(g89
g70
NtRp3664
(dp3665
g73
(dp3666
sg82
g3660
sg75
(lp3667
g68
(g69
g70
NtRp3668
(dp3669
g73
(dp3670
g81
I2
ssg82
g3664
sg75
(lp3671
g68
(g77
g70
NtRp3672
(dp3673
g73
(dp3674
g81
I1
ssg82
Nsg75
(lp3675
g68
(g84
g70
NtRp3676
(dp3677
g73
(dp3678
sg82
g3672
sg75
(lp3679
g68
(g89
g70
NtRp3680
(dp3681
g73
(dp3682
sg82
g3676
sg75
(lp3683
g68
(g69
g70
NtRp3684
(dp3685
g73
(dp3686
g81
I1
ssg82
g3680
sg75
(lp3687
g3542
(S's\x08\x00\x00\x00My Sites'
tRp3688
asbasbasbag68
(g84
g70
NtRp3689
(dp3690
g73
(dp3691
sg82
g3672
sg75
(lp3692
g68
(g89
g70
NtRp3693
(dp3694
g73
(dp3695
sg82
g3689
sg75
(lp3696
g68
(g69
g70
NtRp3697
(dp3698
g73
(dp3699
g81
I1
ssg82
g3693
sg75
(lp3700
I00
asbasbasbag68
(g84
g70
NtRp3701
(dp3702
g73
(dp3703
sg82
g3672
sg75
(lp3704
g68
(g89
g70
NtRp3705
(dp3706
g73
(dp3707
sg82
g3701
sg75
(lp3708
g68
(g69
g70
NtRp3709
(dp3710
g73
(dp3711
g81
I1
ssg82
g3705
sg75
(lp3712
S'/admin/default/site'
p3713
asbasbasbasbasbasbasbag68
(g84
g70
NtRp3714
(dp3715
g73
(dp3716
sg82
g3656
sg75
(lp3717
g68
(g89
g70
NtRp3718
(dp3719
g73
(dp3720
sg82
g3714
sg75
(lp3721
g68
(g69
g70
NtRp3722
(dp3723
g73
(dp3724
g81
I2
ssg82
g3718
sg75
(lp3725
g68
(g77
g70
NtRp3726
(dp3727
g73
(dp3728
g81
I1
ssg82
Nsg75
(lp3729
g68
(g84
g70
NtRp3730
(dp3731
g73
(dp3732
sg82
g3726
sg75
(lp3733
g68
(g89
g70
NtRp3734
(dp3735
g73
(dp3736
sg82
g3730
sg75
(lp3737
g68
(g69
g70
NtRp3738
(dp3739
g73
(dp3740
g81
I1
ssg82
g3734
sg75
(lp3741
g3542
(S's\x08\x00\x00\x00This App'
tRp3742
asbasbasbag68
(g84
g70
NtRp3743
(dp3744
g73
(dp3745
sg82
g3726
sg75
(lp3746
g68
(g89
g70
NtRp3747
(dp3748
g73
(dp3749
sg82
g3743
sg75
(lp3750
g68
(g69
g70
NtRp3751
(dp3752
g73
(dp3753
g81
I1
ssg82
g3747
sg75
(lp3754
I00
asbasbasbag68
(g84
g70
NtRp3755
(dp3756
g73
(dp3757
sg82
g3726
sg75
(lp3758
g68
(g89
g70
NtRp3759
(dp3760
g73
(dp3761
sg82
g3755
sg75
(lp3762
g68
(g69
g70
NtRp3763
(dp3764
g73
(dp3765
g81
I1
ssg82
g3759
sg75
(lp3766
S'/admin/default/design/test'
p3767
asbasbasbag68
(g84
g70
NtRp3768
(dp3769
g73
(dp3770
sg82
g3726
sg75
(lp3771
g68
(g89
g70
NtRp3772
(dp3773
g73
(dp3774
sg82
g3768
sg75
(lp3775
g68
(g69
g70
NtRp3776
(dp3777
g73
(dp3778
g81
I1
ssg82
g3772
sg75
(lp3779
(lp3780
(g3542
(S's\n\x00\x00\x00Controller'
tRp3781
I00
S'/admin/default/edit/test/controllers/default.py'
tp3782
a(g3542
(S's\x04\x00\x00\x00View'
tRp3783
I00
S'/admin/default/edit/test/views/default/index.html'
tp3784
a(g3542
(S's\x06\x00\x00\x00Layout'
tRp3785
I00
S'/admin/default/edit/test/views/layout.html'
tp3786
a(g3542
(S's\n\x00\x00\x00Stylesheet'
tRp3787
I00
S'/admin/default/edit/test/static/css/web2py.css'
tp3788
a(g3542
(S's\x08\x00\x00\x00DB Model'
tRp3789
I00
S'/admin/default/edit/test/models/db.py'
tp3790
a(g3542
(S's\n\x00\x00\x00Menu Model'
tRp3791
I00
S'/admin/default/edit/test/models/menu.py'
tp3792
a(g3542
(S's\x08\x00\x00\x00Database'
tRp3793
I00
S'/test/appadmin/index'
tp3794
a(g3542
(S's\x06\x00\x00\x00Errors'
tRp3795
I00
S'/admin/default/errors/test'
tp3796
a(g3542
(S's\x05\x00\x00\x00About'
tRp3797
I00
S'/admin/default/about/test'
tp3798
aasbasbasbasbasbasbasbag68
(g84
g70
NtRp3799
(dp3800
g73
(dp3801
sg82
g3656
sg75
(lp3802
g68
(g89
g70
NtRp3803
(dp3804
g73
(dp3805
sg82
g3799
sg75
(lp3806
g68
(g69
g70
NtRp3807
(dp3808
g73
(dp3809
g81
I2
ssg82
g3803
sg75
(lp3810
g68
(g77
g70
NtRp3811
(dp3812
g73
(dp3813
g81
I1
ssg82
Nsg75
(lp3814
g68
(g84
g70
NtRp3815
(dp3816
g73
(dp3817
sg82
g3811
sg75
(lp3818
g68
(g89
g70
NtRp3819
(dp3820
g73
(dp3821
sg82
g3815
sg75
(lp3822
g68
(g69
g70
NtRp3823
(dp3824
g73
(dp3825
g81
I1
ssg82
g3819
sg75
(lp3826
S'web2py.com'
p3827
asbasbasbag68
(g84
g70
NtRp3828
(dp3829
g73
(dp3830
sg82
g3811
sg75
(lp3831
g68
(g89
g70
NtRp3832
(dp3833
g73
(dp3834
sg82
g3828
sg75
(lp3835
g68
(g69
g70
NtRp3836
(dp3837
g73
(dp3838
g81
I1
ssg82
g3832
sg75
(lp3839
I00
asbasbasbag68
(g84
g70
NtRp3840
(dp3841
g73
(dp3842
sg82
g3811
sg75
(lp3843
g68
(g89
g70
NtRp3844
(dp3845
g73
(dp3846
sg82
g3840
sg75
(lp3847
g68
(g69
g70
NtRp3848
(dp3849
g73
(dp3850
g81
I1
ssg82
g3844
sg75
(lp3851
S'http://www.web2py.com'
p3852
asbasbasbag68
(g84
g70
NtRp3853
(dp3854
g73
(dp3855
sg82
g3811
sg75
(lp3856
g68
(g89
g70
NtRp3857
(dp3858
g73
(dp3859
sg82
g3853
sg75
(lp3860
g68
(g69
g70
NtRp3861
(dp3862
g73
(dp3863
g81
I1
ssg82
g3857
sg75
(lp3864
(lp3865
(g3542
(S's\x08\x00\x00\x00Download'
tRp3866
I00
S'http://www.web2py.com/examples/default/download'
p3867
tp3868
a(g3542
(S's\x07\x00\x00\x00Support'
tRp3869
I00
S'http://www.web2py.com/examples/default/support'
p3870
tp3871
a(g3542
(S's\x04\x00\x00\x00Demo'
tRp3872
I00
S'http://web2py.com/demo_admin'
p3873
tp3874
a(g3542
(S's\x0e\x00\x00\x00Quick Examples'
tRp3875
I00
S'http://web2py.com/examples/default/examples'
p3876
tp3877
a(g3542
(S's\x03\x00\x00\x00FAQ'
tRp3878
I00
S'http://web2py.com/AlterEgo'
p3879
tp3880
a(g3542
(S's\x06\x00\x00\x00Videos'
tRp3881
I00
S'http://www.web2py.com/examples/default/videos/'
p3882
tp3883
a(g3542
(S's\x11\x00\x00\x00Free Applications'
tRp3884
I00
S'http://web2py.com/appliances'
p3885
tp3886
a(g3542
(S's\x07\x00\x00\x00Plugins'
tRp3887
I00
S'http://web2py.com/plugins'
p3888
tp3889
a(g3542
(S's\x07\x00\x00\x00Layouts'
tRp3890
I00
S'http://web2py.com/layouts'
p3891
tp3892
a(g3542
(S's\x07\x00\x00\x00Recipes'
tRp3893
I00
S'http://web2pyslices.com/'
p3894
tp3895
a(g3542
(S's\x08\x00\x00\x00Semantic'
tRp3896
I00
S'http://web2py.com/semantic'
p3897
tp3898
aasbasbasbasbasbasbasbag68
(g84
g70
NtRp3899
(dp3900
g73
(dp3901
sg82
g3656
sg75
(lp3902
g68
(g89
g70
NtRp3903
(dp3904
g73
(dp3905
sg82
g3899
sg75
(lp3906
g68
(g69
g70
NtRp3907
(dp3908
g73
(dp3909
g81
I2
ssg82
g3903
sg75
(lp3910
g68
(g77
g70
NtRp3911
(dp3912
g73
(dp3913
g81
I1
ssg82
Nsg75
(lp3914
g68
(g84
g70
NtRp3915
(dp3916
g73
(dp3917
sg82
g3911
sg75
(lp3918
g68
(g89
g70
NtRp3919
(dp3920
g73
(dp3921
sg82
g3915
sg75
(lp3922
g68
(g69
g70
NtRp3923
(dp3924
g73
(dp3925
g81
I1
ssg82
g3919
sg75
(lp3926
g3542
(S's\r\x00\x00\x00Documentation'
tRp3927
asbasbasbag68
(g84
g70
NtRp3928
(dp3929
g73
(dp3930
sg82
g3911
sg75
(lp3931
g68
(g89
g70
NtRp3932
(dp3933
g73
(dp3934
sg82
g3928
sg75
(lp3935
g68
(g69
g70
NtRp3936
(dp3937
g73
(dp3938
g81
I1
ssg82
g3932
sg75
(lp3939
I00
asbasbasbag68
(g84
g70
NtRp3940
(dp3941
g73
(dp3942
sg82
g3911
sg75
(lp3943
g68
(g89
g70
NtRp3944
(dp3945
g73
(dp3946
sg82
g3940
sg75
(lp3947
g68
(g69
g70
NtRp3948
(dp3949
g73
(dp3950
g81
I1
ssg82
g3944
sg75
(lp3951
S'http://www.web2py.com/book'
p3952
asbasbasbag68
(g84
g70
NtRp3953
(dp3954
g73
(dp3955
sg82
g3911
sg75
(lp3956
g68
(g89
g70
NtRp3957
(dp3958
g73
(dp3959
sg82
g3953
sg75
(lp3960
g68
(g69
g70
NtRp3961
(dp3962
g73
(dp3963
g81
I1
ssg82
g3957
sg75
(lp3964
(lp3965
(g3542
(S's\x07\x00\x00\x00Preface'
tRp3966
I00
S'http://www.web2py.com/book/default/chapter/00'
p3967
tp3968
a(g3542
(S's\x0c\x00\x00\x00Introduction'
tRp3969
I00
S'http://www.web2py.com/book/default/chapter/01'
p3970
tp3971
a(g3542
(S's\x06\x00\x00\x00Python'
tRp3972
I00
S'http://www.web2py.com/book/default/chapter/02'
p3973
tp3974
a(g3542
(S's\x08\x00\x00\x00Overview'
tRp3975
I00
S'http://www.web2py.com/book/default/chapter/03'
p3976
tp3977
a(g3542
(S's\x08\x00\x00\x00The Core'
tRp3978
I00
S'http://www.web2py.com/book/default/chapter/04'
p3979
tp3980
a(g3542
(S's\t\x00\x00\x00The Views'
tRp3981
I00
S'http://www.web2py.com/book/default/chapter/05'
p3982
tp3983
a(g3542
(S's\x08\x00\x00\x00Database'
tRp3984
I00
S'http://www.web2py.com/book/default/chapter/06'
p3985
tp3986
a(g3542
(S's\x14\x00\x00\x00Forms and Validators'
tRp3987
I00
S'http://www.web2py.com/book/default/chapter/07'
p3988
tp3989
a(g3542
(S's\r\x00\x00\x00Email and SMS'
tRp3990
I00
S'http://www.web2py.com/book/default/chapter/08'
p3991
tp3992
a(g3542
(S's\x0e\x00\x00\x00Access Control'
tRp3993
I00
S'http://www.web2py.com/book/default/chapter/09'
p3994
tp3995
a(g3542
(S's\x08\x00\x00\x00Services'
tRp3996
I00
S'http://www.web2py.com/book/default/chapter/10'
p3997
tp3998
a(g3542
(S's\x0c\x00\x00\x00Ajax Recipes'
tRp3999
I00
S'http://www.web2py.com/book/default/chapter/11'
p4000
tp4001
a(g3542
(S's\x16\x00\x00\x00Components and Plugins'
tRp4002
I00
S'http://www.web2py.com/book/default/chapter/12'
p4003
tp4004
a(g3542
(S's\x12\x00\x00\x00Deployment Recipes'
tRp4005
I00
S'http://www.web2py.com/book/default/chapter/13'
p4006
tp4007
a(g3542
(S's\r\x00\x00\x00Other Recipes'
tRp4008
I00
S'http://www.web2py.com/book/default/chapter/14'
p4009
tp4010
a(g3542
(S's\r\x00\x00\x00Buy this book'
tRp4011
I00
S'http://stores.lulu.com/web2py'
p4012
tp4013
aasbasbasbasbasbasbasbag68
(g84
g70
NtRp4014
(dp4015
g73
(dp4016
sg82
g3656
sg75
(lp4017
g68
(g89
g70
NtRp4018
(dp4019
g73
(dp4020
sg82
g4014
sg75
(lp4021
g68
(g69
g70
NtRp4022
(dp4023
g73
(dp4024
g81
I2
ssg82
g4018
sg75
(lp4025
g68
(g77
g70
NtRp4026
(dp4027
g73
(dp4028
g81
I1
ssg82
Nsg75
(lp4029
g68
(g84
g70
NtRp4030
(dp4031
g73
(dp4032
sg82
g4026
sg75
(lp4033
g68
(g89
g70
NtRp4034
(dp4035
g73
(dp4036
sg82
g4030
sg75
(lp4037
g68
(g69
g70
NtRp4038
(dp4039
g73
(dp4040
g81
I1
ssg82
g4034
sg75
(lp4041
g3542
(S's\t\x00\x00\x00Community'
tRp4042
asbasbasbag68
(g84
g70
NtRp4043
(dp4044
g73
(dp4045
sg82
g4026
sg75
(lp4046
g68
(g89
g70
NtRp4047
(dp4048
g73
(dp4049
sg82
g4043
sg75
(lp4050
g68
(g69
g70
NtRp4051
(dp4052
g73
(dp4053
g81
I1
ssg82
g4047
sg75
(lp4054
I00
asbasbasbag68
(g84
g70
NtRp4055
(dp4056
g73
(dp4057
sg82
g4026
sg75
(lp4058
g68
(g89
g70
NtRp4059
(dp4060
g73
(dp4061
sg82
g4055
sg75
(lp4062
g68
(g69
g70
NtRp4063
(dp4064
g73
(dp4065
g81
I1
ssg82
g4059
sg75
(lp4066
Nasbasbasbag68
(g84
g70
NtRp4067
(dp4068
g73
(dp4069
sg82
g4026
sg75
(lp4070
g68
(g89
g70
NtRp4071
(dp4072
g73
(dp4073
sg82
g4067
sg75
(lp4074
g68
(g69
g70
NtRp4075
(dp4076
g73
(dp4077
g81
I1
ssg82
g4071
sg75
(lp4078
(lp4079
(g3542
(S's\x06\x00\x00\x00Groups'
tRp4080
I00
S'http://www.web2py.com/examples/default/usergroups'
p4081
tp4082
a(g3542
(S's\x07\x00\x00\x00Twitter'
tRp4083
I00
S'http://twitter.com/web2py'
p4084
tp4085
a(g3542
(S's\t\x00\x00\x00Live Chat'
tRp4086
I00
S'http://webchat.freenode.net/?channels=web2py'
p4087
tp4088
aasbasbasbasbasbasbasbag68
(g84
g70
NtRp4089
(dp4090
g73
(dp4091
sg82
g3656
sg75
(lp4092
g68
(g89
g70
NtRp4093
(dp4094
g73
(dp4095
sg82
g4089
sg75
(lp4096
g68
(g69
g70
NtRp4097
(dp4098
g73
(dp4099
g81
I2
ssg82
g4093
sg75
(lp4100
g68
(g77
g70
NtRp4101
(dp4102
g73
(dp4103
g81
I1
ssg82
Nsg75
(lp4104
g68
(g84
g70
NtRp4105
(dp4106
g73
(dp4107
sg82
g4101
sg75
(lp4108
g68
(g89
g70
NtRp4109
(dp4110
g73
(dp4111
sg82
g4105
sg75
(lp4112
g68
(g69
g70
NtRp4113
(dp4114
g73
(dp4115
g81
I1
ssg82
g4109
sg75
(lp4116
g3542
(S's\x07\x00\x00\x00Plugins'
tRp4117
asbasbasbag68
(g84
g70
NtRp4118
(dp4119
g73
(dp4120
sg82
g4101
sg75
(lp4121
g68
(g89
g70
NtRp4122
(dp4123
g73
(dp4124
sg82
g4118
sg75
(lp4125
g68
(g69
g70
NtRp4126
(dp4127
g73
(dp4128
g81
I1
ssg82
g4122
sg75
(lp4129
I00
asbasbasbag68
(g84
g70
NtRp4130
(dp4131
g73
(dp4132
sg82
g4101
sg75
(lp4133
g68
(g89
g70
NtRp4134
(dp4135
g73
(dp4136
sg82
g4130
sg75
(lp4137
g68
(g69
g70
NtRp4138
(dp4139
g73
(dp4140
g81
I1
ssg82
g4134
sg75
(lp4141
Nasbasbasbag68
(g84
g70
NtRp4142
(dp4143
g73
(dp4144
sg82
g4101
sg75
(lp4145
g68
(g89
g70
NtRp4146
(dp4147
g73
(dp4148
sg82
g4142
sg75
(lp4149
g68
(g69
g70
NtRp4150
(dp4151
g73
(dp4152
g81
I1
ssg82
g4146
sg75
(lp4153
(lp4154
(S'plugin_wiki'
p4155
I00
S'http://web2py.com/examples/default/download'
p4156
tp4157
a(g3542
(S's\r\x00\x00\x00Other Plugins'
tRp4158
I00
g3888
tp4159
a(g3542
(S's\x0e\x00\x00\x00Layout Plugins'
tRp4160
I00
g3891
tp4161
aasbasbasbasbasbasbasbasbasbasbasbasbasbasbasbasbasbasbasbag68
(g84
g70
NtRp4162
(dp4163
g73
(dp4164
sg82
g2986
sg75
(lp4165
g68
(g89
g70
NtRp4166
(dp4167
g73
(dp4168
g93
g94
ssg82
g4162
sg75
(lp4169
S'meta'
p4170
asbag68
(g89
g70
NtRp4171
(dp4172
g73
(dp4173
g100
g101
ssg82
g4162
sg75
(lp4174
S':'
asbag68
(g89
g70
NtRp4175
(dp4176
g73
(dp4177
sg82
g4162
sg75
(lp4178
g68
(g69
g70
NtRp4179
(dp4180
g73
(dp4181
g81
I5
ssg82
g4175
sg75
(lp4182
g68
(g77
g70
NtRp4183
(dp4184
g73
(dp4185
g81
I4
ssg82
Nsg75
(lp4186
g68
(g84
g70
NtRp4187
(dp4188
g73
(dp4189
sg82
g4183
sg75
(lp4190
g68
(g89
g70
NtRp4191
(dp4192
g73
(dp4193
g93
g94
ssg82
g4187
sg75
(lp4194
S'author'
p4195
asbag68
(g89
g70
NtRp4196
(dp4197
g73
(dp4198
g100
g101
ssg82
g4187
sg75
(lp4199
S':'
asbag68
(g89
g70
NtRp4200
(dp4201
g73
(dp4202
sg82
g4187
sg75
(lp4203
g68
(g69
g70
NtRp4204
(dp4205
g73
(dp4206
g81
I4
ssg82
g4200
sg75
(lp4207
S'Your Name <you@example.com>'
p4208
asbasbasbag68
(g84
g70
NtRp4209
(dp4210
g73
(dp4211
sg82
g4183
sg75
(lp4212
g68
(g89
g70
NtRp4213
(dp4214
g73
(dp4215
g93
g94
ssg82
g4209
sg75
(lp4216
S'copyright'
p4217
asbag68
(g89
g70
NtRp4218
(dp4219
g73
(dp4220
g100
g101
ssg82
g4209
sg75
(lp4221
S':'
asbag68
(g89
g70
NtRp4222
(dp4223
g73
(dp4224
sg82
g4209
sg75
(lp4225
g68
(g69
g70
NtRp4226
(dp4227
g73
(dp4228
g81
I4
ssg82
g4222
sg75
(lp4229
S'Copyright 2011'
p4230
asbasbasbag68
(g84
g70
NtRp4231
(dp4232
g73
(dp4233
sg82
g4183
sg75
(lp4234
g68
(g89
g70
NtRp4235
(dp4236
g73
(dp4237
g93
g94
ssg82
g4231
sg75
(lp4238
S'description'
p4239
asbag68
(g89
g70
NtRp4240
(dp4241
g73
(dp4242
g100
g101
ssg82
g4231
sg75
(lp4243
S':'
asbag68
(g89
g70
NtRp4244
(dp4245
g73
(dp4246
sg82
g4231
sg75
(lp4247
g68
(g69
g70
NtRp4248
(dp4249
g73
(dp4250
g81
I4
ssg82
g4244
sg75
(lp4251
S'a cool new app'
p4252
asbasbasbag68
(g84
g70
NtRp4253
(dp4254
g73
(dp4255
sg82
g4183
sg75
(lp4256
g68
(g89
g70
NtRp4257
(dp4258
g73
(dp4259
g93
g94
ssg82
g4253
sg75
(lp4260
S'generator'
p4261
asbag68
(g89
g70
NtRp4262
(dp4263
g73
(dp4264
g100
g101
ssg82
g4253
sg75
(lp4265
S':'
asbag68
(g89
g70
NtRp4266
(dp4267
g73
(dp4268
sg82
g4253
sg75
(lp4269
g68
(g69
g70
NtRp4270
(dp4271
g73
(dp4272
g81
I4
ssg82
g4266
sg75
(lp4273
S'Web2py Web Framework'
p4274
asbasbasbag68
(g84
g70
NtRp4275
(dp4276
g73
(dp4277
sg82
g4183
sg75
(lp4278
g68
(g89
g70
NtRp4279
(dp4280
g73
(dp4281
g93
g94
ssg82
g4275
sg75
(lp4282
S'keywords'
p4283
asbag68
(g89
g70
NtRp4284
(dp4285
g73
(dp4286
g100
g101
ssg82
g4275
sg75
(lp4287
S':'
asbag68
(g89
g70
NtRp4288
(dp4289
g73
(dp4290
sg82
g4275
sg75
(lp4291
g68
(g69
g70
NtRp4292
(dp4293
g73
(dp4294
g81
I4
ssg82
g4288
sg75
(lp4295
S'web2py, python, framework'
p4296
asbasbasbasbasbasbasbag68
(g84
g70
NtRp4297
(dp4298
g73
(dp4299
sg82
g2986
sg75
(lp4300
g68
(g89
g70
NtRp4301
(dp4302
g73
(dp4303
g93
g94
ssg82
g4297
sg75
(lp4304
S'postprocessing'
p4305
asbag68
(g89
g70
NtRp4306
(dp4307
g73
(dp4308
g100
g101
ssg82
g4297
sg75
(lp4309
S':'
asbag68
(g89
g70
NtRp4310
(dp4311
g73
(dp4312
sg82
g4297
sg75
(lp4313
g68
(g69
g70
NtRp4314
(dp4315
g73
(dp4316
g81
I5
ssg82
g4310
sg75
(lp4317
g68
(g77
g70
NtRp4318
(dp4319
g73
(dp4320
g81
I4
ssg82
Nsg75
(lp4321
sbasbasbasbag68
(g84
g70
NtRp4322
(dp4323
g73
(dp4324
sg82
g2986
sg75
(lp4325
g68
(g89
g70
NtRp4326
(dp4327
g73
(dp4328
g93
g94
ssg82
g4322
sg75
(lp4329
S'session_file'
p4330
asbag68
(g89
g70
NtRp4331
(dp4332
g73
(dp4333
g100
g101
ssg82
g4322
sg75
(lp4334
S':'
asbag68
(g89
g70
NtRp4335
(dp4336
g73
(dp4337
sg82
g4322
sg75
(lp4338
g68
(g69
g70
NtRp4339
(dp4340
g73
(dp4341
g81
I5
ssg82
g4335
sg75
(lp4342
S"<open file '/home/famihug/Apps/web2py/applications/test/sessions/127.0.0.1-e5cc216d-0463-4fe8-aefc-620a5f131d3a', mode 'rb+' at 0x92b0e90>"
p4343
asbasbasbag68
(g84
g70
NtRp4344
(dp4345
g73
(dp4346
sg82
g2986
sg75
(lp4347
g68
(g89
g70
NtRp4348
(dp4349
g73
(dp4350
g93
g94
ssg82
g4344
sg75
(lp4351
S'session_filename'
p4352
asbag68
(g89
g70
NtRp4353
(dp4354
g73
(dp4355
g100
g101
ssg82
g4344
sg75
(lp4356
S':'
asbag68
(g89
g70
NtRp4357
(dp4358
g73
(dp4359
sg82
g4344
sg75
(lp4360
g68
(g69
g70
NtRp4361
(dp4362
g73
(dp4363
g81
I5
ssg82
g4357
sg75
(lp4364
S'/home/famihug/Apps/web2py/applications/test/sessions/127.0.0.1-e5cc216d-0463-4fe8-aefc-620a5f131d3a'
p4365
asbasbasbag68
(g84
g70
NtRp4366
(dp4367
g73
(dp4368
sg82
g2986
sg75
(lp4369
g68
(g89
g70
NtRp4370
(dp4371
g73
(dp4372
g93
g94
ssg82
g4366
sg75
(lp4373
S'session_id'
p4374
asbag68
(g89
g70
NtRp4375
(dp4376
g73
(dp4377
g100
g101
ssg82
g4366
sg75
(lp4378
S':'
asbag68
(g89
g70
NtRp4379
(dp4380
g73
(dp4381
sg82
g4366
sg75
(lp4382
g68
(g69
g70
NtRp4383
(dp4384
g73
(dp4385
g81
I5
ssg82
g4379
sg75
(lp4386
S'127.0.0.1-e5cc216d-0463-4fe8-aefc-620a5f131d3a'
p4387
asbasbasbag68
(g84
g70
NtRp4388
(dp4389
g73
(dp4390
sg82
g2986
sg75
(lp4391
g68
(g89
g70
NtRp4392
(dp4393
g73
(dp4394
g93
g94
ssg82
g4388
sg75
(lp4395
S'session_id_name'
p4396
asbag68
(g89
g70
NtRp4397
(dp4398
g73
(dp4399
g100
g101
ssg82
g4388
sg75
(lp4400
S':'
asbag68
(g89
g70
NtRp4401
(dp4402
g73
(dp4403
sg82
g4388
sg75
(lp4404
g68
(g69
g70
NtRp4405
(dp4406
g73
(dp4407
g81
I5
ssg82
g4401
sg75
(lp4408
g3043
asbasbasbag68
(g84
g70
NtRp4409
(dp4410
g73
(dp4411
sg82
g2986
sg75
(lp4412
g68
(g89
g70
NtRp4413
(dp4414
g73
(dp4415
g93
g94
ssg82
g4409
sg75
(lp4416
S'session_locked'
p4417
asbag68
(g89
g70
NtRp4418
(dp4419
g73
(dp4420
g100
g101
ssg82
g4409
sg75
(lp4421
S':'
asbag68
(g89
g70
NtRp4422
(dp4423
g73
(dp4424
sg82
g4409
sg75
(lp4425
g68
(g69
g70
NtRp4426
(dp4427
g73
(dp4428
g81
I5
ssg82
g4422
sg75
(lp4429
g1275
asbasbasbag68
(g84
g70
NtRp4430
(dp4431
g73
(dp4432
sg82
g2986
sg75
(lp4433
g68
(g89
g70
NtRp4434
(dp4435
g73
(dp4436
g93
g94
ssg82
g4430
sg75
(lp4437
S'session_new'
p4438
asbag68
(g89
g70
NtRp4439
(dp4440
g73
(dp4441
g100
g101
ssg82
g4430
sg75
(lp4442
S':'
asbag68
(g89
g70
NtRp4443
(dp4444
g73
(dp4445
sg82
g4430
sg75
(lp4446
g68
(g69
g70
NtRp4447
(dp4448
g73
(dp4449
g81
I5
ssg82
g4443
sg75
(lp4450
g111
asbasbasbag68
(g84
g70
NtRp4451
(dp4452
g73
(dp4453
sg82
g2986
sg75
(lp4454
g68
(g89
g70
NtRp4455
(dp4456
g73
(dp4457
g93
g94
ssg82
g4451
sg75
(lp4458
S'status'
p4459
asbag68
(g89
g70
NtRp4460
(dp4461
g73
(dp4462
g100
g101
ssg82
g4451
sg75
(lp4463
S':'
asbag68
(g89
g70
NtRp4464
(dp4465
g73
(dp4466
sg82
g4451
sg75
(lp4467
g68
(g69
g70
NtRp4468
(dp4469
g73
(dp4470
g81
I5
ssg82
g4464
sg75
(lp4471
S'200'
p4472
asbasbasbag68
(g84
g70
NtRp4473
(dp4474
g73
(dp4475
sg82
g2986
sg75
(lp4476
g68
(g89
g70
NtRp4477
(dp4478
g73
(dp4479
g93
g94
ssg82
g4473
sg75
(lp4480
S'subtitle'
p4481
asbag68
(g89
g70
NtRp4482
(dp4483
g73
(dp4484
g100
g101
ssg82
g4473
sg75
(lp4485
S':'
asbag68
(g89
g70
NtRp4486
(dp4487
g73
(dp4488
sg82
g4473
sg75
(lp4489
g68
(g69
g70
NtRp4490
(dp4491
g73
(dp4492
g81
I5
ssg82
g4486
sg75
(lp4493
g3542
(S's\r\x00\x00\x00customize me!'
tRp4494
asbasbasbag68
(g84
g70
NtRp4495
(dp4496
g73
(dp4497
sg82
g2986
sg75
(lp4498
g68
(g89
g70
NtRp4499
(dp4500
g73
(dp4501
g93
g94
ssg82
g4495
sg75
(lp4502
S'title'
p4503
asbag68
(g89
g70
NtRp4504
(dp4505
g73
(dp4506
g100
g101
ssg82
g4495
sg75
(lp4507
S':'
asbag68
(g89
g70
NtRp4508
(dp4509
g73
(dp4510
sg82
g4495
sg75
(lp4511
g68
(g69
g70
NtRp4512
(dp4513
g73
(dp4514
g81
I5
ssg82
g4508
sg75
(lp4515
S'Test'
p4516
asbasbasbag68
(g84
g70
NtRp4517
(dp4518
g73
(dp4519
sg82
g2986
sg75
(lp4520
g68
(g89
g70
NtRp4521
(dp4522
g73
(dp4523
g93
g94
ssg82
g4517
sg75
(lp4524
g1939
asbag68
(g89
g70
NtRp4525
(dp4526
g73
(dp4527
g100
g101
ssg82
g4517
sg75
(lp4528
S':'
asbag68
(g89
g70
NtRp4529
(dp4530
g73
(dp4531
sg82
g4517
sg75
(lp4532
g68
(g69
g70
NtRp4533
(dp4534
g73
(dp4535
g81
I5
ssg82
g4529
sg75
(lp4536
g1952
asbasbasbag68
(g84
g70
NtRp4537
(dp4538
g73
(dp4539
sg82
g2986
sg75
(lp4540
g68
(g89
g70
NtRp4541
(dp4542
g73
(dp4543
g93
g94
ssg82
g4537
sg75
(lp4544
S'view'
p4545
asbag68
(g89
g70
NtRp4546
(dp4547
g73
(dp4548
g100
g101
ssg82
g4537
sg75
(lp4549
S':'
asbag68
(g89
g70
NtRp4550
(dp4551
g73
(dp4552
sg82
g4537
sg75
(lp4553
g68
(g69
g70
NtRp4554
(dp4555
g73
(dp4556
g81
I5
ssg82
g4550
sg75
(lp4557
S'default/index.html'
p4558
asbasbasbasbasbsS'locals'
p4559
(dp4560
g4
S"'/home/famihug/Apps/web2py/applications/test/controllers/default.py'"
p4561
sg6
S'\'# -*- coding: utf-8 -*-\\n# this file is released ...age.db")\\n\\nresponse._vars=response._caller(index)\\n\''
p4562
sssS'traceback'
p4563
S'Traceback (most recent call last):\n  File "/home/famihug/Apps/web2py/gluon/restricted.py", line 204, in restricted\n    ccode = compile2(code,layer)\n  File "/home/famihug/Apps/web2py/gluon/restricted.py", line 189, in compile2\n    return compile(code.rstrip().replace(\'\\r\\n\',\'\\n\')+\'\\n\', layer, \'exec\')\n  File "/home/famihug/Apps/web2py/applications/test/controllers/default.py", line 18\n    tasks = db(db.tasks).select(orderby=db.tasks.priority)\n   ^\nIndentationError: unexpected indent\n'
p4564
s.