(dp1
S'output'
p2
S"<type 'exceptions.IndentationError'> unexpected indent (default.py, line 18)"
p3
sS'layer'
p4
S'/home/famihug/Apps/web2py/applications/test/controllers/default.py'
p5
sS'code'
p6
S'# -*- coding: utf-8 -*-\n# this file is released under public domain and you can use without limitations\n\n#########################################################################\n## This is a samples controller\n## - index is the default action of any application\n## - user is required for authentication and authorization\n## - download is for downloading files uploaded in the db (does streaming)\n## - call exposes all registered services (none by default)\n#########################################################################\n\ndef index():\n    """\n    example action using the internationalization operator T and flash\n    rendered by views/default/index.html or views/generic.html\n    """\n    response.flash = "Welcome to web2py!"\n\ttasks = db(db.tasks).select(orderby=db.tasks.priority)\n    return dict(tasks=tasks)\n\ndef user():\n    """\n    exposes:\n    http://..../[app]/default/user/login\n    http://..../[app]/default/user/logout\n    http://..../[app]/default/user/register\n    http://..../[app]/default/user/profile\n    http://..../[app]/default/user/retrieve_password\n    http://..../[app]/default/user/change_password\n    use @auth.requires_login()\n        @auth.requires_membership(\'group name\')\n        @auth.requires_permission(\'read\',\'table name\',record_id)\n    to decorate functions that need access control\n    """\n    return dict(form=auth())\n\n\ndef download():\n    """\n    allows downloading of uploaded files\n    http://..../[app]/default/download/[filename]\n    """\n    return response.download(request,db)\n\n\ndef call():\n    """\n    exposes services. for example:\n    http://..../[app]/default/call/jsonrpc\n    decorate with @services.jsonrpc the functions to expose\n    supports xml, json, xmlrpc, jsonrpc, amfrpc, rss, csv\n    """\n    return service()\n\n\n#@auth.requires_signature()\ndef data():\n    """\n    http://..../[app]/default/data/tables\n    http://..../[app]/default/data/create/[table]\n    http://..../[app]/default/data/read/[table]/[id]\n    http://..../[app]/default/data/update/[table]/[id]\n    http://..../[app]/default/data/delete/[table]/[id]\n    http://..../[app]/default/data/select/[table]\n    http://..../[app]/default/data/search/[table]\n    but URLs must be signed, i.e. linked with\n      A(\'table\',_href=URL(\'data/tables\',user_signature=True))\n    or with the signed load operator\n      LOAD(\'default\',\'data.load\',args=\'tables\',ajax=True,user_signature=True)\n    """\n    return dict(form=crud())\n\ndb = DAL("sqlite://storage.db")\n\nresponse._vars=response._caller(index)\n'
p7
sS'snapshot'
p8
(dp9
S'exception'
p10
(dp11
S'__getslice__'
p12
S"<method-wrapper '__getslice__' of exceptions.IndentationError object>"
p13
sS'text'
p14
S"'\\ttasks = db(db.tasks).select(orderby=db.tasks.priority)\\n'"
p15
sS'__str__'
p16
S"<method-wrapper '__str__' of exceptions.IndentationError object>"
p17
sS'__reduce__'
p18
S'<built-in method __reduce__ of exceptions.IndentationError object>'
p19
sS'__dict__'
p20
S'{}'
p21
sS'__sizeof__'
p22
S'<built-in method __sizeof__ of exceptions.IndentationError object>'
p23
sS'__init__'
p24
S"<method-wrapper '__init__' of exceptions.IndentationError object>"
p25
sS'__setattr__'
p26
S"<method-wrapper '__setattr__' of exceptions.IndentationError object>"
p27
sS'__reduce_ex__'
p28
S'<built-in method __reduce_ex__ of exceptions.IndentationError object>'
p29
sS'__new__'
p30
S'<built-in method __new__ of type object>'
p31
sS'__format__'
p32
S'<built-in method __format__ of exceptions.IndentationError object>'
p33
sS'__class__'
p34
S"<type 'exceptions.IndentationError'>"
p35
sS'filename'
p36
S"'/home/famihug/Apps/web2py/applications/test/controllers/default.py'"
p37
sS'lineno'
p38
S'18'
p39
sS'msg'
p40
S"'unexpected indent'"
p41
sS'__doc__'
p42
S"'Improper indentation.'"
p43
sS'__getitem__'
p44
S"<method-wrapper '__getitem__' of exceptions.IndentationError object>"
p45
sS'__setstate__'
p46
S'<built-in method __setstate__ of exceptions.IndentationError object>'
p47
sS'__getattribute__'
p48
S"<method-wrapper '__getattribute__' of exceptions.IndentationError object>"
p49
sS'print_file_and_line'
p50
S'None'
p51
sS'args'
p52
S"('unexpected indent', ('/home/famihug/Apps/web2py/applications/test/controllers/default.py', 18, 1, '\\ttasks = db(db.tasks).select(orderby=db.tasks.priority)\\n'))"
p53
sS'__subclasshook__'
p54
S'<built-in method __subclasshook__ of type object>'
p55
sS'offset'
p56
S'1'
sS'__unicode__'
p57
S'<built-in method __unicode__ of exceptions.IndentationError object>'
p58
sS'__delattr__'
p59
S"<method-wrapper '__delattr__' of exceptions.IndentationError object>"
p60
sS'__repr__'
p61
S"<method-wrapper '__repr__' of exceptions.IndentationError object>"
p62
sS'__hash__'
p63
S"<method-wrapper '__hash__' of exceptions.IndentationError object>"
p64
ssS'evalue'
p65
S'unexpected indent (default.py, line 18)'
p66
sS'request'
p67
ccopy_reg
_reconstructor
p68
(cgluon.html
BEAUTIFY
p69
c__builtin__
object
p70
NtRp71
(dp72
S'attributes'
p73
(dp74
sS'components'
p75
(lp76
g68
(cgluon.html
TABLE
p77
g70
NtRp78
(dp79
g73
(dp80
S'level'
p81
I5
ssS'parent'
p82
Nsg75
(lp83
g68
(cgluon.html
TR
p84
g70
NtRp85
(dp86
g73
(dp87
sg82
g78
sg75
(lp88
g68
(cgluon.html
TD
p89
g70
NtRp90
(dp91
g73
(dp92
S'_style'
p93
S'font-weight:bold;vertical-align:top'
p94
ssg82
g85
sg75
(lp95
S'ajax'
p96
asbag68
(g89
g70
NtRp97
(dp98
g73
(dp99
S'_valign'
p100
S'top'
p101
ssg82
g85
sg75
(lp102
S':'
asbag68
(g89
g70
NtRp103
(dp104
g73
(dp105
sg82
g85
sg75
(lp106
g68
(g69
g70
NtRp107
(dp108
g73
(dp109
g81
I5
ssg82
g103
sg75
(lp110
S'False'
p111
asbasbasbag68
(g84
g70
NtRp112
(dp113
g73
(dp114
sg82
g78
sg75
(lp115
g68
(g89
g70
NtRp116
(dp117
g73
(dp118
g93
g94
ssg82
g112
sg75
(lp119
S'application'
p120
asbag68
(g89
g70
NtRp121
(dp122
g73
(dp123
g100
g101
ssg82
g112
sg75
(lp124
S':'
asbag68
(g89
g70
NtRp125
(dp126
g73
(dp127
sg82
g112
sg75
(lp128
g68
(g69
g70
NtRp129
(dp130
g73
(dp131
g81
I5
ssg82
g125
sg75
(lp132
S'test'
p133
asbasbasbag68
(g84
g70
NtRp134
(dp135
g73
(dp136
sg82
g78
sg75
(lp137
g68
(g89
g70
NtRp138
(dp139
g73
(dp140
g93
g94
ssg82
g134
sg75
(lp141
g52
asbag68
(g89
g70
NtRp142
(dp143
g73
(dp144
g100
g101
ssg82
g134
sg75
(lp145
S':'
asbag68
(g89
g70
NtRp146
(dp147
g73
(dp148
sg82
g134
sg75
(lp149
g68
(g69
g70
NtRp150
(dp151
g73
(dp152
g81
I5
ssg82
g146
sg75
(lp153
g68
(g77
g70
NtRp154
(dp155
g73
(dp156
g81
I4
ssg82
Nsg75
(lp157
sbasbasbasbag68
(g84
g70
NtRp158
(dp159
g73
(dp160
sg82
g78
sg75
(lp161
g68
(g89
g70
NtRp162
(dp163
g73
(dp164
g93
g94
ssg82
g158
sg75
(lp165
S'body'
p166
asbag68
(g89
g70
NtRp167
(dp168
g73
(dp169
g100
g101
ssg82
g158
sg75
(lp170
S':'
asbag68
(g89
g70
NtRp171
(dp172
g73
(dp173
sg82
g158
sg75
(lp174
g68
(g69
g70
NtRp175
(dp176
g73
(dp177
g81
I5
ssg82
g171
sg75
(lp178
S'<cStringIO.StringO object at 0x989ed40>'
p179
asbasbasbag68
(g84
g70
NtRp180
(dp181
g73
(dp182
sg82
g78
sg75
(lp183
g68
(g89
g70
NtRp184
(dp185
g73
(dp186
g93
g94
ssg82
g180
sg75
(lp187
S'client'
p188
asbag68
(g89
g70
NtRp189
(dp190
g73
(dp191
g100
g101
ssg82
g180
sg75
(lp192
S':'
asbag68
(g89
g70
NtRp193
(dp194
g73
(dp195
sg82
g180
sg75
(lp196
g68
(g69
g70
NtRp197
(dp198
g73
(dp199
g81
I5
ssg82
g193
sg75
(lp200
S'127.0.0.1'
p201
asbasbasbag68
(g84
g70
NtRp202
(dp203
g73
(dp204
sg82
g78
sg75
(lp205
g68
(g89
g70
NtRp206
(dp207
g73
(dp208
g93
g94
ssg82
g202
sg75
(lp209
S'controller'
p210
asbag68
(g89
g70
NtRp211
(dp212
g73
(dp213
g100
g101
ssg82
g202
sg75
(lp214
S':'
asbag68
(g89
g70
NtRp215
(dp216
g73
(dp217
sg82
g202
sg75
(lp218
g68
(g69
g70
NtRp219
(dp220
g73
(dp221
g81
I5
ssg82
g215
sg75
(lp222
S'default'
p223
asbasbasbag68
(g84
g70
NtRp224
(dp225
g73
(dp226
sg82
g78
sg75
(lp227
g68
(g89
g70
NtRp228
(dp229
g73
(dp230
g93
g94
ssg82
g224
sg75
(lp231
S'cookies'
p232
asbag68
(g89
g70
NtRp233
(dp234
g73
(dp235
g100
g101
ssg82
g224
sg75
(lp236
S':'
asbag68
(g89
g70
NtRp237
(dp238
g73
(dp239
sg82
g224
sg75
(lp240
g68
(g69
g70
NtRp241
(dp242
g73
(dp243
g81
I5
ssg82
g237
sg75
(lp244
g68
(g77
g70
NtRp245
(dp246
g73
(dp247
g81
I4
ssg82
Nsg75
(lp248
g68
(g84
g70
NtRp249
(dp250
g73
(dp251
sg82
g245
sg75
(lp252
g68
(g89
g70
NtRp253
(dp254
g73
(dp255
g93
g94
ssg82
g249
sg75
(lp256
S'session_id_admin'
p257
asbag68
(g89
g70
NtRp258
(dp259
g73
(dp260
g100
g101
ssg82
g249
sg75
(lp261
S':'
asbag68
(g89
g70
NtRp262
(dp263
g73
(dp264
sg82
g249
sg75
(lp265
g68
(g69
g70
NtRp266
(dp267
g73
(dp268
g81
I4
ssg82
g262
sg75
(lp269
g68
(g77
g70
NtRp270
(dp271
g73
(dp272
g81
I3
ssg82
Nsg75
(lp273
g68
(g84
g70
NtRp274
(dp275
g73
(dp276
sg82
g270
sg75
(lp277
g68
(g89
g70
NtRp278
(dp279
g73
(dp280
g93
g94
ssg82
g274
sg75
(lp281
S'comment'
p282
asbag68
(g89
g70
NtRp283
(dp284
g73
(dp285
g100
g101
ssg82
g274
sg75
(lp286
S':'
asbag68
(g89
g70
NtRp287
(dp288
g73
(dp289
sg82
g274
sg75
(lp290
g68
(g69
g70
NtRp291
(dp292
g73
(dp293
g81
I3
ssg82
g287
sg75
(lp294
S''
asbasbasbag68
(g84
g70
NtRp295
(dp296
g73
(dp297
sg82
g270
sg75
(lp298
g68
(g89
g70
NtRp299
(dp300
g73
(dp301
g93
g94
ssg82
g295
sg75
(lp302
S'domain'
p303
asbag68
(g89
g70
NtRp304
(dp305
g73
(dp306
g100
g101
ssg82
g295
sg75
(lp307
S':'
asbag68
(g89
g70
NtRp308
(dp309
g73
(dp310
sg82
g295
sg75
(lp311
g68
(g69
g70
NtRp312
(dp313
g73
(dp314
g81
I3
ssg82
g308
sg75
(lp315
S''
asbasbasbag68
(g84
g70
NtRp316
(dp317
g73
(dp318
sg82
g270
sg75
(lp319
g68
(g89
g70
NtRp320
(dp321
g73
(dp322
g93
g94
ssg82
g316
sg75
(lp323
S'expires'
p324
asbag68
(g89
g70
NtRp325
(dp326
g73
(dp327
g100
g101
ssg82
g316
sg75
(lp328
S':'
asbag68
(g89
g70
NtRp329
(dp330
g73
(dp331
sg82
g316
sg75
(lp332
g68
(g69
g70
NtRp333
(dp334
g73
(dp335
g81
I3
ssg82
g329
sg75
(lp336
S''
asbasbasbag68
(g84
g70
NtRp337
(dp338
g73
(dp339
sg82
g270
sg75
(lp340
g68
(g89
g70
NtRp341
(dp342
g73
(dp343
g93
g94
ssg82
g337
sg75
(lp344
S'httponly'
p345
asbag68
(g89
g70
NtRp346
(dp347
g73
(dp348
g100
g101
ssg82
g337
sg75
(lp349
S':'
asbag68
(g89
g70
NtRp350
(dp351
g73
(dp352
sg82
g337
sg75
(lp353
g68
(g69
g70
NtRp354
(dp355
g73
(dp356
g81
I3
ssg82
g350
sg75
(lp357
S''
asbasbasbag68
(g84
g70
NtRp358
(dp359
g73
(dp360
sg82
g270
sg75
(lp361
g68
(g89
g70
NtRp362
(dp363
g73
(dp364
g93
g94
ssg82
g358
sg75
(lp365
S'max-age'
p366
asbag68
(g89
g70
NtRp367
(dp368
g73
(dp369
g100
g101
ssg82
g358
sg75
(lp370
S':'
asbag68
(g89
g70
NtRp371
(dp372
g73
(dp373
sg82
g358
sg75
(lp374
g68
(g69
g70
NtRp375
(dp376
g73
(dp377
g81
I3
ssg82
g371
sg75
(lp378
S''
asbasbasbag68
(g84
g70
NtRp379
(dp380
g73
(dp381
sg82
g270
sg75
(lp382
g68
(g89
g70
NtRp383
(dp384
g73
(dp385
g93
g94
ssg82
g379
sg75
(lp386
S'path'
p387
asbag68
(g89
g70
NtRp388
(dp389
g73
(dp390
g100
g101
ssg82
g379
sg75
(lp391
S':'
asbag68
(g89
g70
NtRp392
(dp393
g73
(dp394
sg82
g379
sg75
(lp395
g68
(g69
g70
NtRp396
(dp397
g73
(dp398
g81
I3
ssg82
g392
sg75
(lp399
S''
asbasbasbag68
(g84
g70
NtRp400
(dp401
g73
(dp402
sg82
g270
sg75
(lp403
g68
(g89
g70
NtRp404
(dp405
g73
(dp406
g93
g94
ssg82
g400
sg75
(lp407
S'secure'
p408
asbag68
(g89
g70
NtRp409
(dp410
g73
(dp411
g100
g101
ssg82
g400
sg75
(lp412
S':'
asbag68
(g89
g70
NtRp413
(dp414
g73
(dp415
sg82
g400
sg75
(lp416
g68
(g69
g70
NtRp417
(dp418
g73
(dp419
g81
I3
ssg82
g413
sg75
(lp420
S''
asbasbasbag68
(g84
g70
NtRp421
(dp422
g73
(dp423
sg82
g270
sg75
(lp424
g68
(g89
g70
NtRp425
(dp426
g73
(dp427
g93
g94
ssg82
g421
sg75
(lp428
S'version'
p429
asbag68
(g89
g70
NtRp430
(dp431
g73
(dp432
g100
g101
ssg82
g421
sg75
(lp433
S':'
asbag68
(g89
g70
NtRp434
(dp435
g73
(dp436
sg82
g421
sg75
(lp437
g68
(g69
g70
NtRp438
(dp439
g73
(dp440
g81
I3
ssg82
g434
sg75
(lp441
S''
asbasbasbasbasbasbasbag68
(g84
g70
NtRp442
(dp443
g73
(dp444
sg82
g245
sg75
(lp445
g68
(g89
g70
NtRp446
(dp447
g73
(dp448
g93
g94
ssg82
g442
sg75
(lp449
S'session_id_test'
p450
asbag68
(g89
g70
NtRp451
(dp452
g73
(dp453
g100
g101
ssg82
g442
sg75
(lp454
S':'
asbag68
(g89
g70
NtRp455
(dp456
g73
(dp457
sg82
g442
sg75
(lp458
g68
(g69
g70
NtRp459
(dp460
g73
(dp461
g81
I4
ssg82
g455
sg75
(lp462
g68
(g77
g70
NtRp463
(dp464
g73
(dp465
g81
I3
ssg82
Nsg75
(lp466
g68
(g84
g70
NtRp467
(dp468
g73
(dp469
sg82
g463
sg75
(lp470
g68
(g89
g70
NtRp471
(dp472
g73
(dp473
g93
g94
ssg82
g467
sg75
(lp474
g282
asbag68
(g89
g70
NtRp475
(dp476
g73
(dp477
g100
g101
ssg82
g467
sg75
(lp478
S':'
asbag68
(g89
g70
NtRp479
(dp480
g73
(dp481
sg82
g467
sg75
(lp482
g68
(g69
g70
NtRp483
(dp484
g73
(dp485
g81
I3
ssg82
g479
sg75
(lp486
S''
asbasbasbag68
(g84
g70
NtRp487
(dp488
g73
(dp489
sg82
g463
sg75
(lp490
g68
(g89
g70
NtRp491
(dp492
g73
(dp493
g93
g94
ssg82
g487
sg75
(lp494
g303
asbag68
(g89
g70
NtRp495
(dp496
g73
(dp497
g100
g101
ssg82
g487
sg75
(lp498
S':'
asbag68
(g89
g70
NtRp499
(dp500
g73
(dp501
sg82
g487
sg75
(lp502
g68
(g69
g70
NtRp503
(dp504
g73
(dp505
g81
I3
ssg82
g499
sg75
(lp506
S''
asbasbasbag68
(g84
g70
NtRp507
(dp508
g73
(dp509
sg82
g463
sg75
(lp510
g68
(g89
g70
NtRp511
(dp512
g73
(dp513
g93
g94
ssg82
g507
sg75
(lp514
g324
asbag68
(g89
g70
NtRp515
(dp516
g73
(dp517
g100
g101
ssg82
g507
sg75
(lp518
S':'
asbag68
(g89
g70
NtRp519
(dp520
g73
(dp521
sg82
g507
sg75
(lp522
g68
(g69
g70
NtRp523
(dp524
g73
(dp525
g81
I3
ssg82
g519
sg75
(lp526
S''
asbasbasbag68
(g84
g70
NtRp527
(dp528
g73
(dp529
sg82
g463
sg75
(lp530
g68
(g89
g70
NtRp531
(dp532
g73
(dp533
g93
g94
ssg82
g527
sg75
(lp534
g345
asbag68
(g89
g70
NtRp535
(dp536
g73
(dp537
g100
g101
ssg82
g527
sg75
(lp538
S':'
asbag68
(g89
g70
NtRp539
(dp540
g73
(dp541
sg82
g527
sg75
(lp542
g68
(g69
g70
NtRp543
(dp544
g73
(dp545
g81
I3
ssg82
g539
sg75
(lp546
S''
asbasbasbag68
(g84
g70
NtRp547
(dp548
g73
(dp549
sg82
g463
sg75
(lp550
g68
(g89
g70
NtRp551
(dp552
g73
(dp553
g93
g94
ssg82
g547
sg75
(lp554
g366
asbag68
(g89
g70
NtRp555
(dp556
g73
(dp557
g100
g101
ssg82
g547
sg75
(lp558
S':'
asbag68
(g89
g70
NtRp559
(dp560
g73
(dp561
sg82
g547
sg75
(lp562
g68
(g69
g70
NtRp563
(dp564
g73
(dp565
g81
I3
ssg82
g559
sg75
(lp566
S''
asbasbasbag68
(g84
g70
NtRp567
(dp568
g73
(dp569
sg82
g463
sg75
(lp570
g68
(g89
g70
NtRp571
(dp572
g73
(dp573
g93
g94
ssg82
g567
sg75
(lp574
g387
asbag68
(g89
g70
NtRp575
(dp576
g73
(dp577
g100
g101
ssg82
g567
sg75
(lp578
S':'
asbag68
(g89
g70
NtRp579
(dp580
g73
(dp581
sg82
g567
sg75
(lp582
g68
(g69
g70
NtRp583
(dp584
g73
(dp585
g81
I3
ssg82
g579
sg75
(lp586
S''
asbasbasbag68
(g84
g70
NtRp587
(dp588
g73
(dp589
sg82
g463
sg75
(lp590
g68
(g89
g70
NtRp591
(dp592
g73
(dp593
g93
g94
ssg82
g587
sg75
(lp594
g408
asbag68
(g89
g70
NtRp595
(dp596
g73
(dp597
g100
g101
ssg82
g587
sg75
(lp598
S':'
asbag68
(g89
g70
NtRp599
(dp600
g73
(dp601
sg82
g587
sg75
(lp602
g68
(g69
g70
NtRp603
(dp604
g73
(dp605
g81
I3
ssg82
g599
sg75
(lp606
S''
asbasbasbag68
(g84
g70
NtRp607
(dp608
g73
(dp609
sg82
g463
sg75
(lp610
g68
(g89
g70
NtRp611
(dp612
g73
(dp613
g93
g94
ssg82
g607
sg75
(lp614
g429
asbag68
(g89
g70
NtRp615
(dp616
g73
(dp617
g100
g101
ssg82
g607
sg75
(lp618
S':'
asbag68
(g89
g70
NtRp619
(dp620
g73
(dp621
sg82
g607
sg75
(lp622
g68
(g69
g70
NtRp623
(dp624
g73
(dp625
g81
I3
ssg82
g619
sg75
(lp626
S''
asbasbasbasbasbasbasbasbasbasbasbag68
(g84
g70
NtRp627
(dp628
g73
(dp629
sg82
g78
sg75
(lp630
g68
(g89
g70
NtRp631
(dp632
g73
(dp633
g93
g94
ssg82
g627
sg75
(lp634
S'env'
p635
asbag68
(g89
g70
NtRp636
(dp637
g73
(dp638
g100
g101
ssg82
g627
sg75
(lp639
S':'
asbag68
(g89
g70
NtRp640
(dp641
g73
(dp642
sg82
g627
sg75
(lp643
g68
(g69
g70
NtRp644
(dp645
g73
(dp646
g81
I5
ssg82
g640
sg75
(lp647
g68
(g77
g70
NtRp648
(dp649
g73
(dp650
g81
I4
ssg82
Nsg75
(lp651
g68
(g84
g70
NtRp652
(dp653
g73
(dp654
sg82
g648
sg75
(lp655
g68
(g89
g70
NtRp656
(dp657
g73
(dp658
g93
g94
ssg82
g652
sg75
(lp659
S'app_folders'
p660
asbag68
(g89
g70
NtRp661
(dp662
g73
(dp663
g100
g101
ssg82
g652
sg75
(lp664
S':'
asbag68
(g89
g70
NtRp665
(dp666
g73
(dp667
sg82
g652
sg75
(lp668
g68
(g69
g70
NtRp669
(dp670
g73
(dp671
g81
I4
ssg82
g665
sg75
(lp672
S"set(['/home/famihug/Apps/web2py/applications/welcome/', '/home/famihug/Apps/web2py/applications/test/', '/home/famihug/Apps/web2py/applications/examples/', '/home/famihug/Apps/web2py/applications/admin/'])"
p673
asbasbasbag68
(g84
g70
NtRp674
(dp675
g73
(dp676
sg82
g648
sg75
(lp677
g68
(g89
g70
NtRp678
(dp679
g73
(dp680
g93
g94
ssg82
g674
sg75
(lp681
S'applications_parent'
p682
asbag68
(g89
g70
NtRp683
(dp684
g73
(dp685
g100
g101
ssg82
g674
sg75
(lp686
S':'
asbag68
(g89
g70
NtRp687
(dp688
g73
(dp689
sg82
g674
sg75
(lp690
g68
(g69
g70
NtRp691
(dp692
g73
(dp693
g81
I4
ssg82
g687
sg75
(lp694
S'/home/famihug/Apps/web2py'
p695
asbasbasbag68
(g84
g70
NtRp696
(dp697
g73
(dp698
sg82
g648
sg75
(lp699
g68
(g89
g70
NtRp700
(dp701
g73
(dp702
g93
g94
ssg82
g696
sg75
(lp703
S'cmd_args'
p704
asbag68
(g89
g70
NtRp705
(dp706
g73
(dp707
g100
g101
ssg82
g696
sg75
(lp708
S':'
asbag68
(g89
g70
NtRp709
(dp710
g73
(dp711
sg82
g696
sg75
(lp712
g68
(g69
g70
NtRp713
(dp714
g73
(dp715
g81
I4
ssg82
g709
sg75
(lp716
g68
(g77
g70
NtRp717
(dp718
g73
(dp719
g81
I3
ssg82
Nsg75
(lp720
sbasbasbasbag68
(g84
g70
NtRp721
(dp722
g73
(dp723
sg82
g648
sg75
(lp724
g68
(g89
g70
NtRp725
(dp726
g73
(dp727
g93
g94
ssg82
g721
sg75
(lp728
S'cmd_options'
p729
asbag68
(g89
g70
NtRp730
(dp731
g73
(dp732
g100
g101
ssg82
g721
sg75
(lp733
S':'
asbag68
(g89
g70
NtRp734
(dp735
g73
(dp736
sg82
g721
sg75
(lp737
g68
(g69
g70
NtRp738
(dp739
g73
(dp740
g81
I4
ssg82
g734
sg75
(lp741
S"<Values at 0x90497ec: {'verbose': False, 'ip': '127.0.0.1', 'shutdown_timeout': 5, 'taskbar': False, 'nocron': False, 'pid_filename': 'httpserver.pid', 'maxthreads': None, 'softcron': False, 'server_name': 'hvn.vn', 'bpython': False, 'nogui': False, 'port': 8000, 'extcron': False, 'debuglevel': 30, 'test': None, 'folder': '/home/famihug/Apps/web2py', 'config': '', 'import_models': False, 'winservice': '', 'shell': None, 'run': '', 'log_filename': 'httpserver.log', 'args': [''], 'socket_timeout': 5, 'ssl_ca_certificate': None, 'scheduler': None, 'profiler_filename': None, 'ssl_private_key': '', 'password': 'hehehe', 'request_queue_size': 5, 'ssl_certificate': '', 'cronjob': False, 'numthreads': None, 'quiet': False, 'interfaces': None, 'minthreads': None, 'timeout': 10, 'plain': False, 'nobanner': False}>"
p742
asbasbasbag68
(g84
g70
NtRp743
(dp744
g73
(dp745
sg82
g648
sg75
(lp746
g68
(g89
g70
NtRp747
(dp748
g73
(dp749
g93
g94
ssg82
g743
sg75
(lp750
S'db_sessions'
p751
asbag68
(g89
g70
NtRp752
(dp753
g73
(dp754
g100
g101
ssg82
g743
sg75
(lp755
S':'
asbag68
(g89
g70
NtRp756
(dp757
g73
(dp758
sg82
g743
sg75
(lp759
g68
(g69
g70
NtRp760
(dp761
g73
(dp762
g81
I4
ssg82
g756
sg75
(lp763
S'set([])'
p764
asbasbasbag68
(g84
g70
NtRp765
(dp766
g73
(dp767
sg82
g648
sg75
(lp768
g68
(g89
g70
NtRp769
(dp770
g73
(dp771
g93
g94
ssg82
g765
sg75
(lp772
S'debugging'
p773
asbag68
(g89
g70
NtRp774
(dp775
g73
(dp776
g100
g101
ssg82
g765
sg75
(lp777
S':'
asbag68
(g89
g70
NtRp778
(dp779
g73
(dp780
sg82
g765
sg75
(lp781
g68
(g69
g70
NtRp782
(dp783
g73
(dp784
g81
I4
ssg82
g778
sg75
(lp785
g111
asbasbasbag68
(g84
g70
NtRp786
(dp787
g73
(dp788
sg82
g648
sg75
(lp789
g68
(g89
g70
NtRp790
(dp791
g73
(dp792
g93
g94
ssg82
g786
sg75
(lp793
S'gluon_parent'
p794
asbag68
(g89
g70
NtRp795
(dp796
g73
(dp797
g100
g101
ssg82
g786
sg75
(lp798
S':'
asbag68
(g89
g70
NtRp799
(dp800
g73
(dp801
sg82
g786
sg75
(lp802
g68
(g69
g70
NtRp803
(dp804
g73
(dp805
g81
I4
ssg82
g799
sg75
(lp806
S'/home/famihug/Apps/web2py'
p807
asbasbasbag68
(g84
g70
NtRp808
(dp809
g73
(dp810
sg82
g648
sg75
(lp811
g68
(g89
g70
NtRp812
(dp813
g73
(dp814
g93
g94
ssg82
g808
sg75
(lp815
S'http_accept'
p816
asbag68
(g89
g70
NtRp817
(dp818
g73
(dp819
g100
g101
ssg82
g808
sg75
(lp820
S':'
asbag68
(g89
g70
NtRp821
(dp822
g73
(dp823
sg82
g808
sg75
(lp824
g68
(g69
g70
NtRp825
(dp826
g73
(dp827
g81
I4
ssg82
g821
sg75
(lp828
S'text/html,application/xhtml+xml,application/xml;q=0.9,*/*;q=0.8'
p829
asbasbasbag68
(g84
g70
NtRp830
(dp831
g73
(dp832
sg82
g648
sg75
(lp833
g68
(g89
g70
NtRp834
(dp835
g73
(dp836
g93
g94
ssg82
g830
sg75
(lp837
S'http_accept_encoding'
p838
asbag68
(g89
g70
NtRp839
(dp840
g73
(dp841
g100
g101
ssg82
g830
sg75
(lp842
S':'
asbag68
(g89
g70
NtRp843
(dp844
g73
(dp845
sg82
g830
sg75
(lp846
g68
(g69
g70
NtRp847
(dp848
g73
(dp849
g81
I4
ssg82
g843
sg75
(lp850
S'gzip, deflate'
p851
asbasbasbag68
(g84
g70
NtRp852
(dp853
g73
(dp854
sg82
g648
sg75
(lp855
g68
(g89
g70
NtRp856
(dp857
g73
(dp858
g93
g94
ssg82
g852
sg75
(lp859
S'http_accept_language'
p860
asbag68
(g89
g70
NtRp861
(dp862
g73
(dp863
g100
g101
ssg82
g852
sg75
(lp864
S':'
asbag68
(g89
g70
NtRp865
(dp866
g73
(dp867
sg82
g852
sg75
(lp868
g68
(g69
g70
NtRp869
(dp870
g73
(dp871
g81
I4
ssg82
g865
sg75
(lp872
S'en-us,en;q=0.5'
p873
asbasbasbag68
(g84
g70
NtRp874
(dp875
g73
(dp876
sg82
g648
sg75
(lp877
g68
(g89
g70
NtRp878
(dp879
g73
(dp880
g93
g94
ssg82
g874
sg75
(lp881
S'http_connection'
p882
asbag68
(g89
g70
NtRp883
(dp884
g73
(dp885
g100
g101
ssg82
g874
sg75
(lp886
S':'
asbag68
(g89
g70
NtRp887
(dp888
g73
(dp889
sg82
g874
sg75
(lp890
g68
(g69
g70
NtRp891
(dp892
g73
(dp893
g81
I4
ssg82
g887
sg75
(lp894
S'keep-alive'
p895
asbasbasbag68
(g84
g70
NtRp896
(dp897
g73
(dp898
sg82
g648
sg75
(lp899
g68
(g89
g70
NtRp900
(dp901
g73
(dp902
g93
g94
ssg82
g896
sg75
(lp903
S'http_cookie'
p904
asbag68
(g89
g70
NtRp905
(dp906
g73
(dp907
g100
g101
ssg82
g896
sg75
(lp908
S':'
asbag68
(g89
g70
NtRp909
(dp910
g73
(dp911
sg82
g896
sg75
(lp912
g68
(g69
g70
NtRp913
(dp914
g73
(dp915
g81
I4
ssg82
g909
sg75
(lp916
S'session_id_test=127.0.0.1-e5cc216d-0463-4fe8-aefc-620a5f131d3a; session_id_admin=127.0.0.1-485fa5d0-fa0f-484e-a905-2950f61e1854'
p917
asbasbasbag68
(g84
g70
NtRp918
(dp919
g73
(dp920
sg82
g648
sg75
(lp921
g68
(g89
g70
NtRp922
(dp923
g73
(dp924
g93
g94
ssg82
g918
sg75
(lp925
S'http_host'
p926
asbag68
(g89
g70
NtRp927
(dp928
g73
(dp929
g100
g101
ssg82
g918
sg75
(lp930
S':'
asbag68
(g89
g70
NtRp931
(dp932
g73
(dp933
sg82
g918
sg75
(lp934
g68
(g69
g70
NtRp935
(dp936
g73
(dp937
g81
I4
ssg82
g931
sg75
(lp938
S'127.0.0.1:8000'
p939
asbasbasbag68
(g84
g70
NtRp940
(dp941
g73
(dp942
sg82
g648
sg75
(lp943
g68
(g89
g70
NtRp944
(dp945
g73
(dp946
g93
g94
ssg82
g940
sg75
(lp947
S'http_user_agent'
p948
asbag68
(g89
g70
NtRp949
(dp950
g73
(dp951
g100
g101
ssg82
g940
sg75
(lp952
S':'
asbag68
(g89
g70
NtRp953
(dp954
g73
(dp955
sg82
g940
sg75
(lp956
g68
(g69
g70
NtRp957
(dp958
g73
(dp959
g81
I4
ssg82
g953
sg75
(lp960
S'Mozilla/5.0 (X11; Linux i686; rv:13.0) Gecko/20100101 Firefox/13.0.1'
p961
asbasbasbag68
(g84
g70
NtRp962
(dp963
g73
(dp964
sg82
g648
sg75
(lp965
g68
(g89
g70
NtRp966
(dp967
g73
(dp968
g93
g94
ssg82
g962
sg75
(lp969
S'is_jython'
p970
asbag68
(g89
g70
NtRp971
(dp972
g73
(dp973
g100
g101
ssg82
g962
sg75
(lp974
S':'
asbag68
(g89
g70
NtRp975
(dp976
g73
(dp977
sg82
g962
sg75
(lp978
g68
(g69
g70
NtRp979
(dp980
g73
(dp981
g81
I4
ssg82
g975
sg75
(lp982
g111
asbasbasbag68
(g84
g70
NtRp983
(dp984
g73
(dp985
sg82
g648
sg75
(lp986
g68
(g89
g70
NtRp987
(dp988
g73
(dp989
g93
g94
ssg82
g983
sg75
(lp990
S'is_pypy'
p991
asbag68
(g89
g70
NtRp992
(dp993
g73
(dp994
g100
g101
ssg82
g983
sg75
(lp995
S':'
asbag68
(g89
g70
NtRp996
(dp997
g73
(dp998
sg82
g983
sg75
(lp999
g68
(g69
g70
NtRp1000
(dp1001
g73
(dp1002
g81
I4
ssg82
g996
sg75
(lp1003
g111
asbasbasbag68
(g84
g70
NtRp1004
(dp1005
g73
(dp1006
sg82
g648
sg75
(lp1007
g68
(g89
g70
NtRp1008
(dp1009
g73
(dp1010
g93
g94
ssg82
g1004
sg75
(lp1011
S'path_info'
p1012
asbag68
(g89
g70
NtRp1013
(dp1014
g73
(dp1015
g100
g101
ssg82
g1004
sg75
(lp1016
S':'
asbag68
(g89
g70
NtRp1017
(dp1018
g73
(dp1019
sg82
g1004
sg75
(lp1020
g68
(g69
g70
NtRp1021
(dp1022
g73
(dp1023
g81
I4
ssg82
g1017
sg75
(lp1024
S'/test/default/'
p1025
asbasbasbag68
(g84
g70
NtRp1026
(dp1027
g73
(dp1028
sg82
g648
sg75
(lp1029
g68
(g89
g70
NtRp1030
(dp1031
g73
(dp1032
g93
g94
ssg82
g1026
sg75
(lp1033
S'query_string'
p1034
asbag68
(g89
g70
NtRp1035
(dp1036
g73
(dp1037
g100
g101
ssg82
g1026
sg75
(lp1038
S':'
asbag68
(g89
g70
NtRp1039
(dp1040
g73
(dp1041
sg82
g1026
sg75
(lp1042
g68
(g69
g70
NtRp1043
(dp1044
g73
(dp1045
g81
I4
ssg82
g1039
sg75
(lp1046
S''
asbasbasbag68
(g84
g70
NtRp1047
(dp1048
g73
(dp1049
sg82
g648
sg75
(lp1050
g68
(g89
g70
NtRp1051
(dp1052
g73
(dp1053
g93
g94
ssg82
g1047
sg75
(lp1054
S'remote_addr'
p1055
asbag68
(g89
g70
NtRp1056
(dp1057
g73
(dp1058
g100
g101
ssg82
g1047
sg75
(lp1059
S':'
asbag68
(g89
g70
NtRp1060
(dp1061
g73
(dp1062
sg82
g1047
sg75
(lp1063
g68
(g69
g70
NtRp1064
(dp1065
g73
(dp1066
g81
I4
ssg82
g1060
sg75
(lp1067
g201
asbasbasbag68
(g84
g70
NtRp1068
(dp1069
g73
(dp1070
sg82
g648
sg75
(lp1071
g68
(g89
g70
NtRp1072
(dp1073
g73
(dp1074
g93
g94
ssg82
g1068
sg75
(lp1075
S'remote_port'
p1076
asbag68
(g89
g70
NtRp1077
(dp1078
g73
(dp1079
g100
g101
ssg82
g1068
sg75
(lp1080
S':'
asbag68
(g89
g70
NtRp1081
(dp1082
g73
(dp1083
sg82
g1068
sg75
(lp1084
g68
(g69
g70
NtRp1085
(dp1086
g73
(dp1087
g81
I4
ssg82
g1081
sg75
(lp1088
S'55989'
p1089
asbasbasbag68
(g84
g70
NtRp1090
(dp1091
g73
(dp1092
sg82
g648
sg75
(lp1093
g68
(g89
g70
NtRp1094
(dp1095
g73
(dp1096
g93
g94
ssg82
g1090
sg75
(lp1097
S'request_method'
p1098
asbag68
(g89
g70
NtRp1099
(dp1100
g73
(dp1101
g100
g101
ssg82
g1090
sg75
(lp1102
S':'
asbag68
(g89
g70
NtRp1103
(dp1104
g73
(dp1105
sg82
g1090
sg75
(lp1106
g68
(g69
g70
NtRp1107
(dp1108
g73
(dp1109
g81
I4
ssg82
g1103
sg75
(lp1110
S'GET'
p1111
asbasbasbag68
(g84
g70
NtRp1112
(dp1113
g73
(dp1114
sg82
g648
sg75
(lp1115
g68
(g89
g70
NtRp1116
(dp1117
g73
(dp1118
g93
g94
ssg82
g1112
sg75
(lp1119
S'script_name'
p1120
asbag68
(g89
g70
NtRp1121
(dp1122
g73
(dp1123
g100
g101
ssg82
g1112
sg75
(lp1124
S':'
asbag68
(g89
g70
NtRp1125
(dp1126
g73
(dp1127
sg82
g1112
sg75
(lp1128
g68
(g69
g70
NtRp1129
(dp1130
g73
(dp1131
g81
I4
ssg82
g1125
sg75
(lp1132
S''
asbasbasbag68
(g84
g70
NtRp1133
(dp1134
g73
(dp1135
sg82
g648
sg75
(lp1136
g68
(g89
g70
NtRp1137
(dp1138
g73
(dp1139
g93
g94
ssg82
g1133
sg75
(lp1140
S'server_name'
p1141
asbag68
(g89
g70
NtRp1142
(dp1143
g73
(dp1144
g100
g101
ssg82
g1133
sg75
(lp1145
S':'
asbag68
(g89
g70
NtRp1146
(dp1147
g73
(dp1148
sg82
g1133
sg75
(lp1149
g68
(g69
g70
NtRp1150
(dp1151
g73
(dp1152
g81
I4
ssg82
g1146
sg75
(lp1153
S'hvn.vn'
p1154
asbasbasbag68
(g84
g70
NtRp1155
(dp1156
g73
(dp1157
sg82
g648
sg75
(lp1158
g68
(g89
g70
NtRp1159
(dp1160
g73
(dp1161
g93
g94
ssg82
g1155
sg75
(lp1162
S'server_port'
p1163
asbag68
(g89
g70
NtRp1164
(dp1165
g73
(dp1166
g100
g101
ssg82
g1155
sg75
(lp1167
S':'
asbag68
(g89
g70
NtRp1168
(dp1169
g73
(dp1170
sg82
g1155
sg75
(lp1171
g68
(g69
g70
NtRp1172
(dp1173
g73
(dp1174
g81
I4
ssg82
g1168
sg75
(lp1175
S'8000'
p1176
asbasbasbag68
(g84
g70
NtRp1177
(dp1178
g73
(dp1179
sg82
g648
sg75
(lp1180
g68
(g89
g70
NtRp1181
(dp1182
g73
(dp1183
g93
g94
ssg82
g1177
sg75
(lp1184
S'server_protocol'
p1185
asbag68
(g89
g70
NtRp1186
(dp1187
g73
(dp1188
g100
g101
ssg82
g1177
sg75
(lp1189
S':'
asbag68
(g89
g70
NtRp1190
(dp1191
g73
(dp1192
sg82
g1177
sg75
(lp1193
g68
(g69
g70
NtRp1194
(dp1195
g73
(dp1196
g81
I4
ssg82
g1190
sg75
(lp1197
S'HTTP/1.1'
p1198
asbasbasbag68
(g84
g70
NtRp1199
(dp1200
g73
(dp1201
sg82
g648
sg75
(lp1202
g68
(g89
g70
NtRp1203
(dp1204
g73
(dp1205
g93
g94
ssg82
g1199
sg75
(lp1206
S'server_software'
p1207
asbag68
(g89
g70
NtRp1208
(dp1209
g73
(dp1210
g100
g101
ssg82
g1199
sg75
(lp1211
S':'
asbag68
(g89
g70
NtRp1212
(dp1213
g73
(dp1214
sg82
g1199
sg75
(lp1215
g68
(g69
g70
NtRp1216
(dp1217
g73
(dp1218
g81
I4
ssg82
g1212
sg75
(lp1219
S'Rocket 1.2.4'
p1220
asbasbasbag68
(g84
g70
NtRp1221
(dp1222
g73
(dp1223
sg82
g648
sg75
(lp1224
g68
(g89
g70
NtRp1225
(dp1226
g73
(dp1227
g93
g94
ssg82
g1221
sg75
(lp1228
S'web2py_crontype'
p1229
asbag68
(g89
g70
NtRp1230
(dp1231
g73
(dp1232
g100
g101
ssg82
g1221
sg75
(lp1233
S':'
asbag68
(g89
g70
NtRp1234
(dp1235
g73
(dp1236
sg82
g1221
sg75
(lp1237
g68
(g69
g70
NtRp1238
(dp1239
g73
(dp1240
g81
I4
ssg82
g1234
sg75
(lp1241
S'hard'
p1242
asbasbasbag68
(g84
g70
NtRp1243
(dp1244
g73
(dp1245
sg82
g648
sg75
(lp1246
g68
(g89
g70
NtRp1247
(dp1248
g73
(dp1249
g93
g94
ssg82
g1243
sg75
(lp1250
S'web2py_path'
p1251
asbag68
(g89
g70
NtRp1252
(dp1253
g73
(dp1254
g100
g101
ssg82
g1243
sg75
(lp1255
S':'
asbag68
(g89
g70
NtRp1256
(dp1257
g73
(dp1258
sg82
g1243
sg75
(lp1259
g68
(g69
g70
NtRp1260
(dp1261
g73
(dp1262
g81
I4
ssg82
g1256
sg75
(lp1263
g695
asbasbasbag68
(g84
g70
NtRp1264
(dp1265
g73
(dp1266
sg82
g648
sg75
(lp1267
g68
(g89
g70
NtRp1268
(dp1269
g73
(dp1270
g93
g94
ssg82
g1264
sg75
(lp1271
S'web2py_version'
p1272
asbag68
(g89
g70
NtRp1273
(dp1274
g73
(dp1275
g100
g101
ssg82
g1264
sg75
(lp1276
S':'
asbag68
(g89
g70
NtRp1277
(dp1278
g73
(dp1279
sg82
g1264
sg75
(lp1280
g68
(g69
g70
NtRp1281
(dp1282
g73
(dp1283
g81
I4
ssg82
g1277
sg75
(lp1284
g68
(g77
g70
NtRp1285
(dp1286
g73
(dp1287
g81
I3
ssg82
Nsg75
(lp1288
g68
(g84
g70
NtRp1289
(dp1290
g73
(dp1291
sg82
g1285
sg75
(lp1292
g68
(g89
g70
NtRp1293
(dp1294
g73
(dp1295
sg82
g1289
sg75
(lp1296
g68
(g69
g70
NtRp1297
(dp1298
g73
(dp1299
g81
I3
ssg82
g1293
sg75
(lp1300
S'1'
asbasbasbag68
(g84
g70
NtRp1301
(dp1302
g73
(dp1303
sg82
g1285
sg75
(lp1304
g68
(g89
g70
NtRp1305
(dp1306
g73
(dp1307
sg82
g1301
sg75
(lp1308
g68
(g69
g70
NtRp1309
(dp1310
g73
(dp1311
g81
I3
ssg82
g1305
sg75
(lp1312
S'99'
p1313
asbasbasbag68
(g84
g70
NtRp1314
(dp1315
g73
(dp1316
sg82
g1285
sg75
(lp1317
g68
(g89
g70
NtRp1318
(dp1319
g73
(dp1320
sg82
g1314
sg75
(lp1321
g68
(g69
g70
NtRp1322
(dp1323
g73
(dp1324
g81
I3
ssg82
g1318
sg75
(lp1325
S'7'
asbasbasbag68
(g84
g70
NtRp1326
(dp1327
g73
(dp1328
sg82
g1285
sg75
(lp1329
g68
(g89
g70
NtRp1330
(dp1331
g73
(dp1332
sg82
g1326
sg75
(lp1333
g68
(g69
g70
NtRp1334
(dp1335
g73
(dp1336
g81
I3
ssg82
g1330
sg75
(lp1337
S'datetime.datetime(2012, 3, 4, 22, 12, 8)'
p1338
asbasbasbag68
(g84
g70
NtRp1339
(dp1340
g73
(dp1341
sg82
g1285
sg75
(lp1342
g68
(g89
g70
NtRp1343
(dp1344
g73
(dp1345
sg82
g1339
sg75
(lp1346
g68
(g69
g70
NtRp1347
(dp1348
g73
(dp1349
g81
I3
ssg82
g1343
sg75
(lp1350
S'stable'
p1351
asbasbasbasbasbasbasbag68
(g84
g70
NtRp1352
(dp1353
g73
(dp1354
sg82
g648
sg75
(lp1355
g68
(g89
g70
NtRp1356
(dp1357
g73
(dp1358
g93
g94
ssg82
g1352
sg75
(lp1359
S'wsgi_errors'
p1360
asbag68
(g89
g70
NtRp1361
(dp1362
g73
(dp1363
g100
g101
ssg82
g1352
sg75
(lp1364
S':'
asbag68
(g89
g70
NtRp1365
(dp1366
g73
(dp1367
sg82
g1352
sg75
(lp1368
g68
(g69
g70
NtRp1369
(dp1370
g73
(dp1371
g81
I4
ssg82
g1365
sg75
(lp1372
S"<open file '<stderr>', mode 'w' at 0xb76ea0d0>"
p1373
asbasbasbag68
(g84
g70
NtRp1374
(dp1375
g73
(dp1376
sg82
g648
sg75
(lp1377
g68
(g89
g70
NtRp1378
(dp1379
g73
(dp1380
g93
g94
ssg82
g1374
sg75
(lp1381
S'wsgi_file_wrapper'
p1382
asbag68
(g89
g70
NtRp1383
(dp1384
g73
(dp1385
g100
g101
ssg82
g1374
sg75
(lp1386
S':'
asbag68
(g89
g70
NtRp1387
(dp1388
g73
(dp1389
sg82
g1374
sg75
(lp1390
g68
(g69
g70
NtRp1391
(dp1392
g73
(dp1393
g81
I4
ssg82
g1387
sg75
(lp1394
S'<class wsgiref.util.FileWrapper at 0x8ff09ec>'
p1395
asbasbasbag68
(g84
g70
NtRp1396
(dp1397
g73
(dp1398
sg82
g648
sg75
(lp1399
g68
(g89
g70
NtRp1400
(dp1401
g73
(dp1402
g93
g94
ssg82
g1396
sg75
(lp1403
S'wsgi_input'
p1404
asbag68
(g89
g70
NtRp1405
(dp1406
g73
(dp1407
g100
g101
ssg82
g1396
sg75
(lp1408
S':'
asbag68
(g89
g70
NtRp1409
(dp1410
g73
(dp1411
sg82
g1396
sg75
(lp1412
g68
(g69
g70
NtRp1413
(dp1414
g73
(dp1415
g81
I4
ssg82
g1409
sg75
(lp1416
S'<socket._fileobject object at 0x9675bac>'
p1417
asbasbasbag68
(g84
g70
NtRp1418
(dp1419
g73
(dp1420
sg82
g648
sg75
(lp1421
g68
(g89
g70
NtRp1422
(dp1423
g73
(dp1424
g93
g94
ssg82
g1418
sg75
(lp1425
S'wsgi_multiprocess'
p1426
asbag68
(g89
g70
NtRp1427
(dp1428
g73
(dp1429
g100
g101
ssg82
g1418
sg75
(lp1430
S':'
asbag68
(g89
g70
NtRp1431
(dp1432
g73
(dp1433
sg82
g1418
sg75
(lp1434
g68
(g69
g70
NtRp1435
(dp1436
g73
(dp1437
g81
I4
ssg82
g1431
sg75
(lp1438
g111
asbasbasbag68
(g84
g70
NtRp1439
(dp1440
g73
(dp1441
sg82
g648
sg75
(lp1442
g68
(g89
g70
NtRp1443
(dp1444
g73
(dp1445
g93
g94
ssg82
g1439
sg75
(lp1446
S'wsgi_multithread'
p1447
asbag68
(g89
g70
NtRp1448
(dp1449
g73
(dp1450
g100
g101
ssg82
g1439
sg75
(lp1451
S':'
asbag68
(g89
g70
NtRp1452
(dp1453
g73
(dp1454
sg82
g1439
sg75
(lp1455
g68
(g69
g70
NtRp1456
(dp1457
g73
(dp1458
g81
I4
ssg82
g1452
sg75
(lp1459
S'True'
p1460
asbasbasbag68
(g84
g70
NtRp1461
(dp1462
g73
(dp1463
sg82
g648
sg75
(lp1464
g68
(g89
g70
NtRp1465
(dp1466
g73
(dp1467
g93
g94
ssg82
g1461
sg75
(lp1468
S'wsgi_run_once'
p1469
asbag68
(g89
g70
NtRp1470
(dp1471
g73
(dp1472
g100
g101
ssg82
g1461
sg75
(lp1473
S':'
asbag68
(g89
g70
NtRp1474
(dp1475
g73
(dp1476
sg82
g1461
sg75
(lp1477
g68
(g69
g70
NtRp1478
(dp1479
g73
(dp1480
g81
I4
ssg82
g1474
sg75
(lp1481
g111
asbasbasbag68
(g84
g70
NtRp1482
(dp1483
g73
(dp1484
sg82
g648
sg75
(lp1485
g68
(g89
g70
NtRp1486
(dp1487
g73
(dp1488
g93
g94
ssg82
g1482
sg75
(lp1489
S'wsgi_url_scheme'
p1490
asbag68
(g89
g70
NtRp1491
(dp1492
g73
(dp1493
g100
g101
ssg82
g1482
sg75
(lp1494
S':'
asbag68
(g89
g70
NtRp1495
(dp1496
g73
(dp1497
sg82
g1482
sg75
(lp1498
g68
(g69
g70
NtRp1499
(dp1500
g73
(dp1501
g81
I4
ssg82
g1495
sg75
(lp1502
S'http'
p1503
asbasbasbag68
(g84
g70
NtRp1504
(dp1505
g73
(dp1506
sg82
g648
sg75
(lp1507
g68
(g89
g70
NtRp1508
(dp1509
g73
(dp1510
g93
g94
ssg82
g1504
sg75
(lp1511
S'wsgi_version'
p1512
asbag68
(g89
g70
NtRp1513
(dp1514
g73
(dp1515
g100
g101
ssg82
g1504
sg75
(lp1516
S':'
asbag68
(g89
g70
NtRp1517
(dp1518
g73
(dp1519
sg82
g1504
sg75
(lp1520
g68
(g69
g70
NtRp1521
(dp1522
g73
(dp1523
g81
I4
ssg82
g1517
sg75
(lp1524
g68
(g77
g70
NtRp1525
(dp1526
g73
(dp1527
g81
I3
ssg82
Nsg75
(lp1528
g68
(g84
g70
NtRp1529
(dp1530
g73
(dp1531
sg82
g1525
sg75
(lp1532
g68
(g89
g70
NtRp1533
(dp1534
g73
(dp1535
sg82
g1529
sg75
(lp1536
g68
(g69
g70
NtRp1537
(dp1538
g73
(dp1539
g81
I3
ssg82
g1533
sg75
(lp1540
S'1'
asbasbasbag68
(g84
g70
NtRp1541
(dp1542
g73
(dp1543
sg82
g1525
sg75
(lp1544
g68
(g89
g70
NtRp1545
(dp1546
g73
(dp1547
sg82
g1541
sg75
(lp1548
g68
(g69
g70
NtRp1549
(dp1550
g73
(dp1551
g81
I3
ssg82
g1545
sg75
(lp1552
S'0'
asbasbasbasbasbasbasbasbasbasbasbag68
(g84
g70
NtRp1553
(dp1554
g73
(dp1555
sg82
g78
sg75
(lp1556
g68
(g89
g70
NtRp1557
(dp1558
g73
(dp1559
g93
g94
ssg82
g1553
sg75
(lp1560
S'extension'
p1561
asbag68
(g89
g70
NtRp1562
(dp1563
g73
(dp1564
g100
g101
ssg82
g1553
sg75
(lp1565
S':'
asbag68
(g89
g70
NtRp1566
(dp1567
g73
(dp1568
sg82
g1553
sg75
(lp1569
g68
(g69
g70
NtRp1570
(dp1571
g73
(dp1572
g81
I5
ssg82
g1566
sg75
(lp1573
S'html'
p1574
asbasbasbag68
(g84
g70
NtRp1575
(dp1576
g73
(dp1577
sg82
g78
sg75
(lp1578
g68
(g89
g70
NtRp1579
(dp1580
g73
(dp1581
g93
g94
ssg82
g1575
sg75
(lp1582
S'folder'
p1583
asbag68
(g89
g70
NtRp1584
(dp1585
g73
(dp1586
g100
g101
ssg82
g1575
sg75
(lp1587
S':'
asbag68
(g89
g70
NtRp1588
(dp1589
g73
(dp1590
sg82
g1575
sg75
(lp1591
g68
(g69
g70
NtRp1592
(dp1593
g73
(dp1594
g81
I5
ssg82
g1588
sg75
(lp1595
S'/home/famihug/Apps/web2py/applications/test/'
p1596
asbasbasbag68
(g84
g70
NtRp1597
(dp1598
g73
(dp1599
sg82
g78
sg75
(lp1600
g68
(g89
g70
NtRp1601
(dp1602
g73
(dp1603
g93
g94
ssg82
g1597
sg75
(lp1604
S'function'
p1605
asbag68
(g89
g70
NtRp1606
(dp1607
g73
(dp1608
g100
g101
ssg82
g1597
sg75
(lp1609
S':'
asbag68
(g89
g70
NtRp1610
(dp1611
g73
(dp1612
sg82
g1597
sg75
(lp1613
g68
(g69
g70
NtRp1614
(dp1615
g73
(dp1616
g81
I5
ssg82
g1610
sg75
(lp1617
S'index'
p1618
asbasbasbag68
(g84
g70
NtRp1619
(dp1620
g73
(dp1621
sg82
g78
sg75
(lp1622
g68
(g89
g70
NtRp1623
(dp1624
g73
(dp1625
g93
g94
ssg82
g1619
sg75
(lp1626
S'get_vars'
p1627
asbag68
(g89
g70
NtRp1628
(dp1629
g73
(dp1630
g100
g101
ssg82
g1619
sg75
(lp1631
S':'
asbag68
(g89
g70
NtRp1632
(dp1633
g73
(dp1634
sg82
g1619
sg75
(lp1635
g68
(g69
g70
NtRp1636
(dp1637
g73
(dp1638
g81
I5
ssg82
g1632
sg75
(lp1639
g68
(g77
g70
NtRp1640
(dp1641
g73
(dp1642
g81
I4
ssg82
Nsg75
(lp1643
sbasbasbasbag68
(g84
g70
NtRp1644
(dp1645
g73
(dp1646
sg82
g78
sg75
(lp1647
g68
(g89
g70
NtRp1648
(dp1649
g73
(dp1650
g93
g94
ssg82
g1644
sg75
(lp1651
S'global_settings'
p1652
asbag68
(g89
g70
NtRp1653
(dp1654
g73
(dp1655
g100
g101
ssg82
g1644
sg75
(lp1656
S':'
asbag68
(g89
g70
NtRp1657
(dp1658
g73
(dp1659
sg82
g1644
sg75
(lp1660
g68
(g69
g70
NtRp1661
(dp1662
g73
(dp1663
g81
I5
ssg82
g1657
sg75
(lp1664
g68
(g77
g70
NtRp1665
(dp1666
g73
(dp1667
g81
I4
ssg82
Nsg75
(lp1668
g68
(g84
g70
NtRp1669
(dp1670
g73
(dp1671
sg82
g1665
sg75
(lp1672
g68
(g89
g70
NtRp1673
(dp1674
g73
(dp1675
g93
g94
ssg82
g1669
sg75
(lp1676
g660
asbag68
(g89
g70
NtRp1677
(dp1678
g73
(dp1679
g100
g101
ssg82
g1669
sg75
(lp1680
S':'
asbag68
(g89
g70
NtRp1681
(dp1682
g73
(dp1683
sg82
g1669
sg75
(lp1684
g68
(g69
g70
NtRp1685
(dp1686
g73
(dp1687
g81
I4
ssg82
g1681
sg75
(lp1688
S"set(['/home/famihug/Apps/web2py/applications/welcome/', '/home/famihug/Apps/web2py/applications/test/', '/home/famihug/Apps/web2py/applications/examples/', '/home/famihug/Apps/web2py/applications/admin/'])"
p1689
asbasbasbag68
(g84
g70
NtRp1690
(dp1691
g73
(dp1692
sg82
g1665
sg75
(lp1693
g68
(g89
g70
NtRp1694
(dp1695
g73
(dp1696
g93
g94
ssg82
g1690
sg75
(lp1697
g682
asbag68
(g89
g70
NtRp1698
(dp1699
g73
(dp1700
g100
g101
ssg82
g1690
sg75
(lp1701
S':'
asbag68
(g89
g70
NtRp1702
(dp1703
g73
(dp1704
sg82
g1690
sg75
(lp1705
g68
(g69
g70
NtRp1706
(dp1707
g73
(dp1708
g81
I4
ssg82
g1702
sg75
(lp1709
g695
asbasbasbag68
(g84
g70
NtRp1710
(dp1711
g73
(dp1712
sg82
g1665
sg75
(lp1713
g68
(g89
g70
NtRp1714
(dp1715
g73
(dp1716
g93
g94
ssg82
g1710
sg75
(lp1717
g704
asbag68
(g89
g70
NtRp1718
(dp1719
g73
(dp1720
g100
g101
ssg82
g1710
sg75
(lp1721
S':'
asbag68
(g89
g70
NtRp1722
(dp1723
g73
(dp1724
sg82
g1710
sg75
(lp1725
g68
(g69
g70
NtRp1726
(dp1727
g73
(dp1728
g81
I4
ssg82
g1722
sg75
(lp1729
g68
(g77
g70
NtRp1730
(dp1731
g73
(dp1732
g81
I3
ssg82
Nsg75
(lp1733
sbasbasbasbag68
(g84
g70
NtRp1734
(dp1735
g73
(dp1736
sg82
g1665
sg75
(lp1737
g68
(g89
g70
NtRp1738
(dp1739
g73
(dp1740
g93
g94
ssg82
g1734
sg75
(lp1741
g729
asbag68
(g89
g70
NtRp1742
(dp1743
g73
(dp1744
g100
g101
ssg82
g1734
sg75
(lp1745
S':'
asbag68
(g89
g70
NtRp1746
(dp1747
g73
(dp1748
sg82
g1734
sg75
(lp1749
g68
(g69
g70
NtRp1750
(dp1751
g73
(dp1752
g81
I4
ssg82
g1746
sg75
(lp1753
S"<Values at 0x90497ec: {'verbose': False, 'ip': '127.0.0.1', 'shutdown_timeout': 5, 'taskbar': False, 'nocron': False, 'pid_filename': 'httpserver.pid', 'maxthreads': None, 'softcron': False, 'server_name': 'hvn.vn', 'bpython': False, 'nogui': False, 'port': 8000, 'extcron': False, 'debuglevel': 30, 'test': None, 'folder': '/home/famihug/Apps/web2py', 'config': '', 'import_models': False, 'winservice': '', 'shell': None, 'run': '', 'log_filename': 'httpserver.log', 'args': [''], 'socket_timeout': 5, 'ssl_ca_certificate': None, 'scheduler': None, 'profiler_filename': None, 'ssl_private_key': '', 'password': 'hehehe', 'request_queue_size': 5, 'ssl_certificate': '', 'cronjob': False, 'numthreads': None, 'quiet': False, 'interfaces': None, 'minthreads': None, 'timeout': 10, 'plain': False, 'nobanner': False}>"
p1754
asbasbasbag68
(g84
g70
NtRp1755
(dp1756
g73
(dp1757
sg82
g1665
sg75
(lp1758
g68
(g89
g70
NtRp1759
(dp1760
g73
(dp1761
g93
g94
ssg82
g1755
sg75
(lp1762
g751
asbag68
(g89
g70
NtRp1763
(dp1764
g73
(dp1765
g100
g101
ssg82
g1755
sg75
(lp1766
S':'
asbag68
(g89
g70
NtRp1767
(dp1768
g73
(dp1769
sg82
g1755
sg75
(lp1770
g68
(g69
g70
NtRp1771
(dp1772
g73
(dp1773
g81
I4
ssg82
g1767
sg75
(lp1774
S'set([])'
p1775
asbasbasbag68
(g84
g70
NtRp1776
(dp1777
g73
(dp1778
sg82
g1665
sg75
(lp1779
g68
(g89
g70
NtRp1780
(dp1781
g73
(dp1782
g93
g94
ssg82
g1776
sg75
(lp1783
g773
asbag68
(g89
g70
NtRp1784
(dp1785
g73
(dp1786
g100
g101
ssg82
g1776
sg75
(lp1787
S':'
asbag68
(g89
g70
NtRp1788
(dp1789
g73
(dp1790
sg82
g1776
sg75
(lp1791
g68
(g69
g70
NtRp1792
(dp1793
g73
(dp1794
g81
I4
ssg82
g1788
sg75
(lp1795
g111
asbasbasbag68
(g84
g70
NtRp1796
(dp1797
g73
(dp1798
sg82
g1665
sg75
(lp1799
g68
(g89
g70
NtRp1800
(dp1801
g73
(dp1802
g93
g94
ssg82
g1796
sg75
(lp1803
g794
asbag68
(g89
g70
NtRp1804
(dp1805
g73
(dp1806
g100
g101
ssg82
g1796
sg75
(lp1807
S':'
asbag68
(g89
g70
NtRp1808
(dp1809
g73
(dp1810
sg82
g1796
sg75
(lp1811
g68
(g69
g70
NtRp1812
(dp1813
g73
(dp1814
g81
I4
ssg82
g1808
sg75
(lp1815
g807
asbasbasbag68
(g84
g70
NtRp1816
(dp1817
g73
(dp1818
sg82
g1665
sg75
(lp1819
g68
(g89
g70
NtRp1820
(dp1821
g73
(dp1822
g93
g94
ssg82
g1816
sg75
(lp1823
g970
asbag68
(g89
g70
NtRp1824
(dp1825
g73
(dp1826
g100
g101
ssg82
g1816
sg75
(lp1827
S':'
asbag68
(g89
g70
NtRp1828
(dp1829
g73
(dp1830
sg82
g1816
sg75
(lp1831
g68
(g69
g70
NtRp1832
(dp1833
g73
(dp1834
g81
I4
ssg82
g1828
sg75
(lp1835
g111
asbasbasbag68
(g84
g70
NtRp1836
(dp1837
g73
(dp1838
sg82
g1665
sg75
(lp1839
g68
(g89
g70
NtRp1840
(dp1841
g73
(dp1842
g93
g94
ssg82
g1836
sg75
(lp1843
g991
asbag68
(g89
g70
NtRp1844
(dp1845
g73
(dp1846
g100
g101
ssg82
g1836
sg75
(lp1847
S':'
asbag68
(g89
g70
NtRp1848
(dp1849
g73
(dp1850
sg82
g1836
sg75
(lp1851
g68
(g69
g70
NtRp1852
(dp1853
g73
(dp1854
g81
I4
ssg82
g1848
sg75
(lp1855
g111
asbasbasbag68
(g84
g70
NtRp1856
(dp1857
g73
(dp1858
sg82
g1665
sg75
(lp1859
g68
(g89
g70
NtRp1860
(dp1861
g73
(dp1862
g93
g94
ssg82
g1856
sg75
(lp1863
g1229
asbag68
(g89
g70
NtRp1864
(dp1865
g73
(dp1866
g100
g101
ssg82
g1856
sg75
(lp1867
S':'
asbag68
(g89
g70
NtRp1868
(dp1869
g73
(dp1870
sg82
g1856
sg75
(lp1871
g68
(g69
g70
NtRp1872
(dp1873
g73
(dp1874
g81
I4
ssg82
g1868
sg75
(lp1875
g1242
asbasbasbag68
(g84
g70
NtRp1876
(dp1877
g73
(dp1878
sg82
g1665
sg75
(lp1879
g68
(g89
g70
NtRp1880
(dp1881
g73
(dp1882
g93
g94
ssg82
g1876
sg75
(lp1883
g1272
asbag68
(g89
g70
NtRp1884
(dp1885
g73
(dp1886
g100
g101
ssg82
g1876
sg75
(lp1887
S':'
asbag68
(g89
g70
NtRp1888
(dp1889
g73
(dp1890
sg82
g1876
sg75
(lp1891
g68
(g69
g70
NtRp1892
(dp1893
g73
(dp1894
g81
I4
ssg82
g1888
sg75
(lp1895
g68
(g77
g70
NtRp1896
(dp1897
g73
(dp1898
g81
I3
ssg82
Nsg75
(lp1899
g68
(g84
g70
NtRp1900
(dp1901
g73
(dp1902
sg82
g1896
sg75
(lp1903
g68
(g89
g70
NtRp1904
(dp1905
g73
(dp1906
sg82
g1900
sg75
(lp1907
g68
(g69
g70
NtRp1908
(dp1909
g73
(dp1910
g81
I3
ssg82
g1904
sg75
(lp1911
S'1'
asbasbasbag68
(g84
g70
NtRp1912
(dp1913
g73
(dp1914
sg82
g1896
sg75
(lp1915
g68
(g89
g70
NtRp1916
(dp1917
g73
(dp1918
sg82
g1912
sg75
(lp1919
g68
(g69
g70
NtRp1920
(dp1921
g73
(dp1922
g81
I3
ssg82
g1916
sg75
(lp1923
S'99'
p1924
asbasbasbag68
(g84
g70
NtRp1925
(dp1926
g73
(dp1927
sg82
g1896
sg75
(lp1928
g68
(g89
g70
NtRp1929
(dp1930
g73
(dp1931
sg82
g1925
sg75
(lp1932
g68
(g69
g70
NtRp1933
(dp1934
g73
(dp1935
g81
I3
ssg82
g1929
sg75
(lp1936
S'7'
asbasbasbag68
(g84
g70
NtRp1937
(dp1938
g73
(dp1939
sg82
g1896
sg75
(lp1940
g68
(g89
g70
NtRp1941
(dp1942
g73
(dp1943
sg82
g1937
sg75
(lp1944
g68
(g69
g70
NtRp1945
(dp1946
g73
(dp1947
g81
I3
ssg82
g1941
sg75
(lp1948
S'datetime.datetime(2012, 3, 4, 22, 12, 8)'
p1949
asbasbasbag68
(g84
g70
NtRp1950
(dp1951
g73
(dp1952
sg82
g1896
sg75
(lp1953
g68
(g89
g70
NtRp1954
(dp1955
g73
(dp1956
sg82
g1950
sg75
(lp1957
g68
(g69
g70
NtRp1958
(dp1959
g73
(dp1960
g81
I3
ssg82
g1954
sg75
(lp1961
g1351
asbasbasbasbasbasbasbasbasbasbasbag68
(g84
g70
NtRp1962
(dp1963
g73
(dp1964
sg82
g78
sg75
(lp1965
g68
(g89
g70
NtRp1966
(dp1967
g73
(dp1968
g93
g94
ssg82
g1962
sg75
(lp1969
S'is_https'
p1970
asbag68
(g89
g70
NtRp1971
(dp1972
g73
(dp1973
g100
g101
ssg82
g1962
sg75
(lp1974
S':'
asbag68
(g89
g70
NtRp1975
(dp1976
g73
(dp1977
sg82
g1962
sg75
(lp1978
g68
(g69
g70
NtRp1979
(dp1980
g73
(dp1981
g81
I5
ssg82
g1975
sg75
(lp1982
g111
asbasbasbag68
(g84
g70
NtRp1983
(dp1984
g73
(dp1985
sg82
g78
sg75
(lp1986
g68
(g89
g70
NtRp1987
(dp1988
g73
(dp1989
g93
g94
ssg82
g1983
sg75
(lp1990
S'is_local'
p1991
asbag68
(g89
g70
NtRp1992
(dp1993
g73
(dp1994
g100
g101
ssg82
g1983
sg75
(lp1995
S':'
asbag68
(g89
g70
NtRp1996
(dp1997
g73
(dp1998
sg82
g1983
sg75
(lp1999
g68
(g69
g70
NtRp2000
(dp2001
g73
(dp2002
g81
I5
ssg82
g1996
sg75
(lp2003
g1460
asbasbasbag68
(g84
g70
NtRp2004
(dp2005
g73
(dp2006
sg82
g78
sg75
(lp2007
g68
(g89
g70
NtRp2008
(dp2009
g73
(dp2010
g93
g94
ssg82
g2004
sg75
(lp2011
S'is_restful'
p2012
asbag68
(g89
g70
NtRp2013
(dp2014
g73
(dp2015
g100
g101
ssg82
g2004
sg75
(lp2016
S':'
asbag68
(g89
g70
NtRp2017
(dp2018
g73
(dp2019
sg82
g2004
sg75
(lp2020
g68
(g69
g70
NtRp2021
(dp2022
g73
(dp2023
g81
I5
ssg82
g2017
sg75
(lp2024
g111
asbasbasbag68
(g84
g70
NtRp2025
(dp2026
g73
(dp2027
sg82
g78
sg75
(lp2028
g68
(g89
g70
NtRp2029
(dp2030
g73
(dp2031
g93
g94
ssg82
g2025
sg75
(lp2032
S'now'
p2033
asbag68
(g89
g70
NtRp2034
(dp2035
g73
(dp2036
g100
g101
ssg82
g2025
sg75
(lp2037
S':'
asbag68
(g89
g70
NtRp2038
(dp2039
g73
(dp2040
sg82
g2025
sg75
(lp2041
g68
(g69
g70
NtRp2042
(dp2043
g73
(dp2044
g81
I5
ssg82
g2038
sg75
(lp2045
S'datetime.datetime(2012, 7, 3, 10, 39, 53, 761186)'
p2046
asbasbasbag68
(g84
g70
NtRp2047
(dp2048
g73
(dp2049
sg82
g78
sg75
(lp2050
g68
(g89
g70
NtRp2051
(dp2052
g73
(dp2053
g93
g94
ssg82
g2047
sg75
(lp2054
S'post_vars'
p2055
asbag68
(g89
g70
NtRp2056
(dp2057
g73
(dp2058
g100
g101
ssg82
g2047
sg75
(lp2059
S':'
asbag68
(g89
g70
NtRp2060
(dp2061
g73
(dp2062
sg82
g2047
sg75
(lp2063
g68
(g69
g70
NtRp2064
(dp2065
g73
(dp2066
g81
I5
ssg82
g2060
sg75
(lp2067
g68
(g77
g70
NtRp2068
(dp2069
g73
(dp2070
g81
I4
ssg82
Nsg75
(lp2071
sbasbasbasbag68
(g84
g70
NtRp2072
(dp2073
g73
(dp2074
sg82
g78
sg75
(lp2075
g68
(g89
g70
NtRp2076
(dp2077
g73
(dp2078
g93
g94
ssg82
g2072
sg75
(lp2079
S'url'
p2080
asbag68
(g89
g70
NtRp2081
(dp2082
g73
(dp2083
g100
g101
ssg82
g2072
sg75
(lp2084
S':'
asbag68
(g89
g70
NtRp2085
(dp2086
g73
(dp2087
sg82
g2072
sg75
(lp2088
g68
(g69
g70
NtRp2089
(dp2090
g73
(dp2091
g81
I5
ssg82
g2085
sg75
(lp2092
S'/test/default/index'
p2093
asbasbasbag68
(g84
g70
NtRp2094
(dp2095
g73
(dp2096
sg82
g78
sg75
(lp2097
g68
(g89
g70
NtRp2098
(dp2099
g73
(dp2100
g93
g94
ssg82
g2094
sg75
(lp2101
S'utcnow'
p2102
asbag68
(g89
g70
NtRp2103
(dp2104
g73
(dp2105
g100
g101
ssg82
g2094
sg75
(lp2106
S':'
asbag68
(g89
g70
NtRp2107
(dp2108
g73
(dp2109
sg82
g2094
sg75
(lp2110
g68
(g69
g70
NtRp2111
(dp2112
g73
(dp2113
g81
I5
ssg82
g2107
sg75
(lp2114
S'datetime.datetime(2012, 7, 3, 3, 39, 53, 761224)'
p2115
asbasbasbag68
(g84
g70
NtRp2116
(dp2117
g73
(dp2118
sg82
g78
sg75
(lp2119
g68
(g89
g70
NtRp2120
(dp2121
g73
(dp2122
g93
g94
ssg82
g2116
sg75
(lp2123
S'uuid'
p2124
asbag68
(g89
g70
NtRp2125
(dp2126
g73
(dp2127
g100
g101
ssg82
g2116
sg75
(lp2128
S':'
asbag68
(g89
g70
NtRp2129
(dp2130
g73
(dp2131
sg82
g2116
sg75
(lp2132
g68
(g69
g70
NtRp2133
(dp2134
g73
(dp2135
g81
I5
ssg82
g2129
sg75
(lp2136
S'test/127.0.0.1.2012-07-03.10-39-53.9aa4fca0-631c-4576-bbcb-519e44e2e619'
p2137
asbasbasbag68
(g84
g70
NtRp2138
(dp2139
g73
(dp2140
sg82
g78
sg75
(lp2141
g68
(g89
g70
NtRp2142
(dp2143
g73
(dp2144
g93
g94
ssg82
g2138
sg75
(lp2145
S'vars'
p2146
asbag68
(g89
g70
NtRp2147
(dp2148
g73
(dp2149
g100
g101
ssg82
g2138
sg75
(lp2150
S':'
asbag68
(g89
g70
NtRp2151
(dp2152
g73
(dp2153
sg82
g2138
sg75
(lp2154
g68
(g69
g70
NtRp2155
(dp2156
g73
(dp2157
g81
I5
ssg82
g2151
sg75
(lp2158
g68
(g77
g70
NtRp2159
(dp2160
g73
(dp2161
g81
I4
ssg82
Nsg75
(lp2162
sbasbasbasbag68
(g84
g70
NtRp2163
(dp2164
g73
(dp2165
sg82
g78
sg75
(lp2166
g68
(g89
g70
NtRp2167
(dp2168
g73
(dp2169
g93
g94
ssg82
g2163
sg75
(lp2170
S'wsgi'
p2171
asbag68
(g89
g70
NtRp2172
(dp2173
g73
(dp2174
g100
g101
ssg82
g2163
sg75
(lp2175
S':'
asbag68
(g89
g70
NtRp2176
(dp2177
g73
(dp2178
sg82
g2163
sg75
(lp2179
g68
(g69
g70
NtRp2180
(dp2181
g73
(dp2182
g81
I5
ssg82
g2176
sg75
(lp2183
g68
(g77
g70
NtRp2184
(dp2185
g73
(dp2186
g81
I4
ssg82
Nsg75
(lp2187
g68
(g84
g70
NtRp2188
(dp2189
g73
(dp2190
sg82
g2184
sg75
(lp2191
g68
(g89
g70
NtRp2192
(dp2193
g73
(dp2194
g93
g94
ssg82
g2188
sg75
(lp2195
S'environ'
p2196
asbag68
(g89
g70
NtRp2197
(dp2198
g73
(dp2199
g100
g101
ssg82
g2188
sg75
(lp2200
S':'
asbag68
(g89
g70
NtRp2201
(dp2202
g73
(dp2203
sg82
g2188
sg75
(lp2204
g68
(g69
g70
NtRp2205
(dp2206
g73
(dp2207
g81
I4
ssg82
g2201
sg75
(lp2208
g68
(g77
g70
NtRp2209
(dp2210
g73
(dp2211
g81
I3
ssg82
Nsg75
(lp2212
g68
(g84
g70
NtRp2213
(dp2214
g73
(dp2215
sg82
g2209
sg75
(lp2216
g68
(g89
g70
NtRp2217
(dp2218
g73
(dp2219
g93
g94
ssg82
g2213
sg75
(lp2220
S'HTTP_ACCEPT'
p2221
asbag68
(g89
g70
NtRp2222
(dp2223
g73
(dp2224
g100
g101
ssg82
g2213
sg75
(lp2225
S':'
asbag68
(g89
g70
NtRp2226
(dp2227
g73
(dp2228
sg82
g2213
sg75
(lp2229
g68
(g69
g70
NtRp2230
(dp2231
g73
(dp2232
g81
I3
ssg82
g2226
sg75
(lp2233
g829
asbasbasbag68
(g84
g70
NtRp2234
(dp2235
g73
(dp2236
sg82
g2209
sg75
(lp2237
g68
(g89
g70
NtRp2238
(dp2239
g73
(dp2240
g93
g94
ssg82
g2234
sg75
(lp2241
S'HTTP_ACCEPT_ENCODING'
p2242
asbag68
(g89
g70
NtRp2243
(dp2244
g73
(dp2245
g100
g101
ssg82
g2234
sg75
(lp2246
S':'
asbag68
(g89
g70
NtRp2247
(dp2248
g73
(dp2249
sg82
g2234
sg75
(lp2250
g68
(g69
g70
NtRp2251
(dp2252
g73
(dp2253
g81
I3
ssg82
g2247
sg75
(lp2254
g851
asbasbasbag68
(g84
g70
NtRp2255
(dp2256
g73
(dp2257
sg82
g2209
sg75
(lp2258
g68
(g89
g70
NtRp2259
(dp2260
g73
(dp2261
g93
g94
ssg82
g2255
sg75
(lp2262
S'HTTP_ACCEPT_LANGUAGE'
p2263
asbag68
(g89
g70
NtRp2264
(dp2265
g73
(dp2266
g100
g101
ssg82
g2255
sg75
(lp2267
S':'
asbag68
(g89
g70
NtRp2268
(dp2269
g73
(dp2270
sg82
g2255
sg75
(lp2271
g68
(g69
g70
NtRp2272
(dp2273
g73
(dp2274
g81
I3
ssg82
g2268
sg75
(lp2275
g873
asbasbasbag68
(g84
g70
NtRp2276
(dp2277
g73
(dp2278
sg82
g2209
sg75
(lp2279
g68
(g89
g70
NtRp2280
(dp2281
g73
(dp2282
g93
g94
ssg82
g2276
sg75
(lp2283
S'HTTP_CONNECTION'
p2284
asbag68
(g89
g70
NtRp2285
(dp2286
g73
(dp2287
g100
g101
ssg82
g2276
sg75
(lp2288
S':'
asbag68
(g89
g70
NtRp2289
(dp2290
g73
(dp2291
sg82
g2276
sg75
(lp2292
g68
(g69
g70
NtRp2293
(dp2294
g73
(dp2295
g81
I3
ssg82
g2289
sg75
(lp2296
g895
asbasbasbag68
(g84
g70
NtRp2297
(dp2298
g73
(dp2299
sg82
g2209
sg75
(lp2300
g68
(g89
g70
NtRp2301
(dp2302
g73
(dp2303
g93
g94
ssg82
g2297
sg75
(lp2304
S'HTTP_COOKIE'
p2305
asbag68
(g89
g70
NtRp2306
(dp2307
g73
(dp2308
g100
g101
ssg82
g2297
sg75
(lp2309
S':'
asbag68
(g89
g70
NtRp2310
(dp2311
g73
(dp2312
sg82
g2297
sg75
(lp2313
g68
(g69
g70
NtRp2314
(dp2315
g73
(dp2316
g81
I3
ssg82
g2310
sg75
(lp2317
g917
asbasbasbag68
(g84
g70
NtRp2318
(dp2319
g73
(dp2320
sg82
g2209
sg75
(lp2321
g68
(g89
g70
NtRp2322
(dp2323
g73
(dp2324
g93
g94
ssg82
g2318
sg75
(lp2325
S'HTTP_HOST'
p2326
asbag68
(g89
g70
NtRp2327
(dp2328
g73
(dp2329
g100
g101
ssg82
g2318
sg75
(lp2330
S':'
asbag68
(g89
g70
NtRp2331
(dp2332
g73
(dp2333
sg82
g2318
sg75
(lp2334
g68
(g69
g70
NtRp2335
(dp2336
g73
(dp2337
g81
I3
ssg82
g2331
sg75
(lp2338
g939
asbasbasbag68
(g84
g70
NtRp2339
(dp2340
g73
(dp2341
sg82
g2209
sg75
(lp2342
g68
(g89
g70
NtRp2343
(dp2344
g73
(dp2345
g93
g94
ssg82
g2339
sg75
(lp2346
S'HTTP_USER_AGENT'
p2347
asbag68
(g89
g70
NtRp2348
(dp2349
g73
(dp2350
g100
g101
ssg82
g2339
sg75
(lp2351
S':'
asbag68
(g89
g70
NtRp2352
(dp2353
g73
(dp2354
sg82
g2339
sg75
(lp2355
g68
(g69
g70
NtRp2356
(dp2357
g73
(dp2358
g81
I3
ssg82
g2352
sg75
(lp2359
g961
asbasbasbag68
(g84
g70
NtRp2360
(dp2361
g73
(dp2362
sg82
g2209
sg75
(lp2363
g68
(g89
g70
NtRp2364
(dp2365
g73
(dp2366
g93
g94
ssg82
g2360
sg75
(lp2367
S'PATH_INFO'
p2368
asbag68
(g89
g70
NtRp2369
(dp2370
g73
(dp2371
g100
g101
ssg82
g2360
sg75
(lp2372
S':'
asbag68
(g89
g70
NtRp2373
(dp2374
g73
(dp2375
sg82
g2360
sg75
(lp2376
g68
(g69
g70
NtRp2377
(dp2378
g73
(dp2379
g81
I3
ssg82
g2373
sg75
(lp2380
g1025
asbasbasbag68
(g84
g70
NtRp2381
(dp2382
g73
(dp2383
sg82
g2209
sg75
(lp2384
g68
(g89
g70
NtRp2385
(dp2386
g73
(dp2387
g93
g94
ssg82
g2381
sg75
(lp2388
S'QUERY_STRING'
p2389
asbag68
(g89
g70
NtRp2390
(dp2391
g73
(dp2392
g100
g101
ssg82
g2381
sg75
(lp2393
S':'
asbag68
(g89
g70
NtRp2394
(dp2395
g73
(dp2396
sg82
g2381
sg75
(lp2397
g68
(g69
g70
NtRp2398
(dp2399
g73
(dp2400
g81
I3
ssg82
g2394
sg75
(lp2401
S''
asbasbasbag68
(g84
g70
NtRp2402
(dp2403
g73
(dp2404
sg82
g2209
sg75
(lp2405
g68
(g89
g70
NtRp2406
(dp2407
g73
(dp2408
g93
g94
ssg82
g2402
sg75
(lp2409
S'REMOTE_ADDR'
p2410
asbag68
(g89
g70
NtRp2411
(dp2412
g73
(dp2413
g100
g101
ssg82
g2402
sg75
(lp2414
S':'
asbag68
(g89
g70
NtRp2415
(dp2416
g73
(dp2417
sg82
g2402
sg75
(lp2418
g68
(g69
g70
NtRp2419
(dp2420
g73
(dp2421
g81
I3
ssg82
g2415
sg75
(lp2422
g201
asbasbasbag68
(g84
g70
NtRp2423
(dp2424
g73
(dp2425
sg82
g2209
sg75
(lp2426
g68
(g89
g70
NtRp2427
(dp2428
g73
(dp2429
g93
g94
ssg82
g2423
sg75
(lp2430
S'REMOTE_PORT'
p2431
asbag68
(g89
g70
NtRp2432
(dp2433
g73
(dp2434
g100
g101
ssg82
g2423
sg75
(lp2435
S':'
asbag68
(g89
g70
NtRp2436
(dp2437
g73
(dp2438
sg82
g2423
sg75
(lp2439
g68
(g69
g70
NtRp2440
(dp2441
g73
(dp2442
g81
I3
ssg82
g2436
sg75
(lp2443
g1089
asbasbasbag68
(g84
g70
NtRp2444
(dp2445
g73
(dp2446
sg82
g2209
sg75
(lp2447
g68
(g89
g70
NtRp2448
(dp2449
g73
(dp2450
g93
g94
ssg82
g2444
sg75
(lp2451
S'REQUEST_METHOD'
p2452
asbag68
(g89
g70
NtRp2453
(dp2454
g73
(dp2455
g100
g101
ssg82
g2444
sg75
(lp2456
S':'
asbag68
(g89
g70
NtRp2457
(dp2458
g73
(dp2459
sg82
g2444
sg75
(lp2460
g68
(g69
g70
NtRp2461
(dp2462
g73
(dp2463
g81
I3
ssg82
g2457
sg75
(lp2464
g1111
asbasbasbag68
(g84
g70
NtRp2465
(dp2466
g73
(dp2467
sg82
g2209
sg75
(lp2468
g68
(g89
g70
NtRp2469
(dp2470
g73
(dp2471
g93
g94
ssg82
g2465
sg75
(lp2472
S'SCRIPT_NAME'
p2473
asbag68
(g89
g70
NtRp2474
(dp2475
g73
(dp2476
g100
g101
ssg82
g2465
sg75
(lp2477
S':'
asbag68
(g89
g70
NtRp2478
(dp2479
g73
(dp2480
sg82
g2465
sg75
(lp2481
g68
(g69
g70
NtRp2482
(dp2483
g73
(dp2484
g81
I3
ssg82
g2478
sg75
(lp2485
S''
asbasbasbag68
(g84
g70
NtRp2486
(dp2487
g73
(dp2488
sg82
g2209
sg75
(lp2489
g68
(g89
g70
NtRp2490
(dp2491
g73
(dp2492
g93
g94
ssg82
g2486
sg75
(lp2493
S'SERVER_NAME'
p2494
asbag68
(g89
g70
NtRp2495
(dp2496
g73
(dp2497
g100
g101
ssg82
g2486
sg75
(lp2498
S':'
asbag68
(g89
g70
NtRp2499
(dp2500
g73
(dp2501
sg82
g2486
sg75
(lp2502
g68
(g69
g70
NtRp2503
(dp2504
g73
(dp2505
g81
I3
ssg82
g2499
sg75
(lp2506
g1154
asbasbasbag68
(g84
g70
NtRp2507
(dp2508
g73
(dp2509
sg82
g2209
sg75
(lp2510
g68
(g89
g70
NtRp2511
(dp2512
g73
(dp2513
g93
g94
ssg82
g2507
sg75
(lp2514
S'SERVER_PORT'
p2515
asbag68
(g89
g70
NtRp2516
(dp2517
g73
(dp2518
g100
g101
ssg82
g2507
sg75
(lp2519
S':'
asbag68
(g89
g70
NtRp2520
(dp2521
g73
(dp2522
sg82
g2507
sg75
(lp2523
g68
(g69
g70
NtRp2524
(dp2525
g73
(dp2526
g81
I3
ssg82
g2520
sg75
(lp2527
g1176
asbasbasbag68
(g84
g70
NtRp2528
(dp2529
g73
(dp2530
sg82
g2209
sg75
(lp2531
g68
(g89
g70
NtRp2532
(dp2533
g73
(dp2534
g93
g94
ssg82
g2528
sg75
(lp2535
S'SERVER_PROTOCOL'
p2536
asbag68
(g89
g70
NtRp2537
(dp2538
g73
(dp2539
g100
g101
ssg82
g2528
sg75
(lp2540
S':'
asbag68
(g89
g70
NtRp2541
(dp2542
g73
(dp2543
sg82
g2528
sg75
(lp2544
g68
(g69
g70
NtRp2545
(dp2546
g73
(dp2547
g81
I3
ssg82
g2541
sg75
(lp2548
g1198
asbasbasbag68
(g84
g70
NtRp2549
(dp2550
g73
(dp2551
sg82
g2209
sg75
(lp2552
g68
(g89
g70
NtRp2553
(dp2554
g73
(dp2555
g93
g94
ssg82
g2549
sg75
(lp2556
S'SERVER_SOFTWARE'
p2557
asbag68
(g89
g70
NtRp2558
(dp2559
g73
(dp2560
g100
g101
ssg82
g2549
sg75
(lp2561
S':'
asbag68
(g89
g70
NtRp2562
(dp2563
g73
(dp2564
sg82
g2549
sg75
(lp2565
g68
(g69
g70
NtRp2566
(dp2567
g73
(dp2568
g81
I3
ssg82
g2562
sg75
(lp2569
g1220
asbasbasbag68
(g84
g70
NtRp2570
(dp2571
g73
(dp2572
sg82
g2209
sg75
(lp2573
g68
(g89
g70
NtRp2574
(dp2575
g73
(dp2576
g93
g94
ssg82
g2570
sg75
(lp2577
S'wsgi.errors'
p2578
asbag68
(g89
g70
NtRp2579
(dp2580
g73
(dp2581
g100
g101
ssg82
g2570
sg75
(lp2582
S':'
asbag68
(g89
g70
NtRp2583
(dp2584
g73
(dp2585
sg82
g2570
sg75
(lp2586
g68
(g69
g70
NtRp2587
(dp2588
g73
(dp2589
g81
I3
ssg82
g2583
sg75
(lp2590
S"<open file '<stderr>', mode 'w' at 0xb76ea0d0>"
p2591
asbasbasbag68
(g84
g70
NtRp2592
(dp2593
g73
(dp2594
sg82
g2209
sg75
(lp2595
g68
(g89
g70
NtRp2596
(dp2597
g73
(dp2598
g93
g94
ssg82
g2592
sg75
(lp2599
S'wsgi.file_wrapper'
p2600
asbag68
(g89
g70
NtRp2601
(dp2602
g73
(dp2603
g100
g101
ssg82
g2592
sg75
(lp2604
S':'
asbag68
(g89
g70
NtRp2605
(dp2606
g73
(dp2607
sg82
g2592
sg75
(lp2608
g68
(g69
g70
NtRp2609
(dp2610
g73
(dp2611
g81
I3
ssg82
g2605
sg75
(lp2612
S'<class wsgiref.util.FileWrapper at 0x8ff09ec>'
p2613
asbasbasbag68
(g84
g70
NtRp2614
(dp2615
g73
(dp2616
sg82
g2209
sg75
(lp2617
g68
(g89
g70
NtRp2618
(dp2619
g73
(dp2620
g93
g94
ssg82
g2614
sg75
(lp2621
S'wsgi.input'
p2622
asbag68
(g89
g70
NtRp2623
(dp2624
g73
(dp2625
g100
g101
ssg82
g2614
sg75
(lp2626
S':'
asbag68
(g89
g70
NtRp2627
(dp2628
g73
(dp2629
sg82
g2614
sg75
(lp2630
g68
(g69
g70
NtRp2631
(dp2632
g73
(dp2633
g81
I3
ssg82
g2627
sg75
(lp2634
S'<cStringIO.StringO object at 0x989ed40>'
p2635
asbasbasbag68
(g84
g70
NtRp2636
(dp2637
g73
(dp2638
sg82
g2209
sg75
(lp2639
g68
(g89
g70
NtRp2640
(dp2641
g73
(dp2642
g93
g94
ssg82
g2636
sg75
(lp2643
S'wsgi.multiprocess'
p2644
asbag68
(g89
g70
NtRp2645
(dp2646
g73
(dp2647
g100
g101
ssg82
g2636
sg75
(lp2648
S':'
asbag68
(g89
g70
NtRp2649
(dp2650
g73
(dp2651
sg82
g2636
sg75
(lp2652
g68
(g69
g70
NtRp2653
(dp2654
g73
(dp2655
g81
I3
ssg82
g2649
sg75
(lp2656
g111
asbasbasbag68
(g84
g70
NtRp2657
(dp2658
g73
(dp2659
sg82
g2209
sg75
(lp2660
g68
(g89
g70
NtRp2661
(dp2662
g73
(dp2663
g93
g94
ssg82
g2657
sg75
(lp2664
S'wsgi.multithread'
p2665
asbag68
(g89
g70
NtRp2666
(dp2667
g73
(dp2668
g100
g101
ssg82
g2657
sg75
(lp2669
S':'
asbag68
(g89
g70
NtRp2670
(dp2671
g73
(dp2672
sg82
g2657
sg75
(lp2673
g68
(g69
g70
NtRp2674
(dp2675
g73
(dp2676
g81
I3
ssg82
g2670
sg75
(lp2677
g1460
asbasbasbag68
(g84
g70
NtRp2678
(dp2679
g73
(dp2680
sg82
g2209
sg75
(lp2681
g68
(g89
g70
NtRp2682
(dp2683
g73
(dp2684
g93
g94
ssg82
g2678
sg75
(lp2685
S'wsgi.run_once'
p2686
asbag68
(g89
g70
NtRp2687
(dp2688
g73
(dp2689
g100
g101
ssg82
g2678
sg75
(lp2690
S':'
asbag68
(g89
g70
NtRp2691
(dp2692
g73
(dp2693
sg82
g2678
sg75
(lp2694
g68
(g69
g70
NtRp2695
(dp2696
g73
(dp2697
g81
I3
ssg82
g2691
sg75
(lp2698
g111
asbasbasbag68
(g84
g70
NtRp2699
(dp2700
g73
(dp2701
sg82
g2209
sg75
(lp2702
g68
(g89
g70
NtRp2703
(dp2704
g73
(dp2705
g93
g94
ssg82
g2699
sg75
(lp2706
S'wsgi.url_scheme'
p2707
asbag68
(g89
g70
NtRp2708
(dp2709
g73
(dp2710
g100
g101
ssg82
g2699
sg75
(lp2711
S':'
asbag68
(g89
g70
NtRp2712
(dp2713
g73
(dp2714
sg82
g2699
sg75
(lp2715
g68
(g69
g70
NtRp2716
(dp2717
g73
(dp2718
g81
I3
ssg82
g2712
sg75
(lp2719
g1503
asbasbasbag68
(g84
g70
NtRp2720
(dp2721
g73
(dp2722
sg82
g2209
sg75
(lp2723
g68
(g89
g70
NtRp2724
(dp2725
g73
(dp2726
g93
g94
ssg82
g2720
sg75
(lp2727
S'wsgi.version'
p2728
asbag68
(g89
g70
NtRp2729
(dp2730
g73
(dp2731
g100
g101
ssg82
g2720
sg75
(lp2732
S':'
asbag68
(g89
g70
NtRp2733
(dp2734
g73
(dp2735
sg82
g2720
sg75
(lp2736
g68
(g69
g70
NtRp2737
(dp2738
g73
(dp2739
g81
I3
ssg82
g2733
sg75
(lp2740
S'1'
asbasbasbasbasbasbasbasbasbasbasbasbasbsS'frames'
p2741
(lp2742
(dp2743
S'file'
p2744
S'/home/famihug/Apps/web2py/gluon/restricted.py'
p2745
sS'dump'
p2746
(dp2747
S'code'
p2748
S'\'# -*- coding: utf-8 -*-\\n# this file is released ...age.db")\\n\\nresponse._vars=response._caller(index)\\n\''
p2749
sS'layer'
p2750
S"'/home/famihug/Apps/web2py/applications/test/controllers/default.py'"
p2751
sS'global compile2'
p2752
S'<function compile2>'
p2753
sS'ccode'
p2754
S'undefined'
p2755
ssS'lnum'
p2756
I204
sS'lines'
p2757
(dp2758
I199
S"    environment['__name__'] = '__restricted__'"
p2759
sI200
S'    try:'
p2760
sI201
S'        if type(code) == types.CodeType:'
p2761
sI202
S'            ccode = code'
p2762
sI203
S'        else:'
p2763
sI204
S'            ccode = compile2(code,layer)'
p2764
sI205
S'        exec ccode in environment'
p2765
sI206
S'    except HTTP:'
p2766
sI207
S'        raise'
p2767
sI208
S'    except RestrictedError:'
p2768
ssS'call'
p2769
S'(code=\'# -*- coding: utf-8 -*-\\n# this file is released ...age.db")\\n\\nresponse._vars=response._caller(index)\\n\', environment={\'A\': <class \'gluon.html.A\'>, \'Auth\': <class \'gluon.tools.Auth\'>, \'B\': <class \'gluon.html.B\'>, \'BEAUTIFY\': <class \'gluon.html.BEAUTIFY\'>, \'BODY\': <class \'gluon.html.BODY\'>, \'BR\': <class \'gluon.html.BR\'>, \'BUTTON\': <class \'gluon.html.BUTTON\'>, \'CAT\': <class \'gluon.html.CAT\'>, \'CENTER\': <class \'gluon.html.CENTER\'>, \'CLEANUP\': <class \'gluon.validators.CLEANUP\'>, ...}, layer=\'/home/famihug/Apps/web2py/applications/test/controllers/default.py\')'
p2770
sS'func'
p2771
S'restricted'
p2772
sa(dp2773
g2744
S'/home/famihug/Apps/web2py/gluon/restricted.py'
p2774
sg2746
(dp2775
S'builtincompile'
p2776
S'<built-in function compile>'
p2777
sS'code'
p2778
S'\'# -*- coding: utf-8 -*-\\n# this file is released ...age.db")\\n\\nresponse._vars=response._caller(index)\\n\''
p2779
sS'code.rstrip'
p2780
S'<built-in method rstrip of str object>'
p2781
sS').replace'
p2782
g2755
sS'layer'
p2783
S"'/home/famihug/Apps/web2py/applications/test/controllers/default.py'"
p2784
ssg2756
I189
sg2757
(dp2785
I192
S'    """'
p2786
sI193
S'    runs code in environment and returns the output. if an exception occurs'
p2787
sI184
S''
sI185
S'def compile2(code,layer):'
p2788
sI186
S'    """'
p2789
sI187
S"    The +'\\n' is necessary else compile fails when code ends in a comment."
p2790
sI188
S'    """'
p2791
sI189
S"    return compile(code.rstrip().replace('\\r\\n','\\n')+'\\n', layer, 'exec')"
p2792
sI190
S''
sI191
S"def restricted(code, environment=None, layer='Unknown'):"
p2793
ssg2769
S'(code=\'# -*- coding: utf-8 -*-\\n# this file is released ...age.db")\\n\\nresponse._vars=response._caller(index)\\n\', layer=\'/home/famihug/Apps/web2py/applications/test/controllers/default.py\')'
p2794
sg2771
S'compile2'
p2795
sasS'pyver'
p2796
S'Python 2.6.6: /usr/bin/python'
p2797
sS'session'
p2798
g68
(g69
g70
NtRp2799
(dp2800
g73
(dp2801
sg75
(lp2802
g68
(g77
g70
NtRp2803
(dp2804
g73
(dp2805
g81
I5
ssg82
Nsg75
(lp2806
g68
(g84
g70
NtRp2807
(dp2808
g73
(dp2809
sg82
g2803
sg75
(lp2810
g68
(g89
g70
NtRp2811
(dp2812
g73
(dp2813
g93
g94
ssg82
g2807
sg75
(lp2814
S'auth'
p2815
asbag68
(g89
g70
NtRp2816
(dp2817
g73
(dp2818
g100
g101
ssg82
g2807
sg75
(lp2819
S':'
asbag68
(g89
g70
NtRp2820
(dp2821
g73
(dp2822
sg82
g2807
sg75
(lp2823
g68
(g69
g70
NtRp2824
(dp2825
g73
(dp2826
g81
I5
ssg82
g2820
sg75
(lp2827
g68
(g77
g70
NtRp2828
(dp2829
g73
(dp2830
g81
I4
ssg82
Nsg75
(lp2831
g68
(g84
g70
NtRp2832
(dp2833
g73
(dp2834
sg82
g2828
sg75
(lp2835
g68
(g89
g70
NtRp2836
(dp2837
g73
(dp2838
g93
g94
ssg82
g2832
sg75
(lp2839
S'expiration'
p2840
asbag68
(g89
g70
NtRp2841
(dp2842
g73
(dp2843
g100
g101
ssg82
g2832
sg75
(lp2844
S':'
asbag68
(g89
g70
NtRp2845
(dp2846
g73
(dp2847
sg82
g2832
sg75
(lp2848
g68
(g69
g70
NtRp2849
(dp2850
g73
(dp2851
g81
I4
ssg82
g2845
sg75
(lp2852
S'3600'
p2853
asbasbasbag68
(g84
g70
NtRp2854
(dp2855
g73
(dp2856
sg82
g2828
sg75
(lp2857
g68
(g89
g70
NtRp2858
(dp2859
g73
(dp2860
g93
g94
ssg82
g2854
sg75
(lp2861
S'hmac_key'
p2862
asbag68
(g89
g70
NtRp2863
(dp2864
g73
(dp2865
g100
g101
ssg82
g2854
sg75
(lp2866
S':'
asbag68
(g89
g70
NtRp2867
(dp2868
g73
(dp2869
sg82
g2854
sg75
(lp2870
g68
(g69
g70
NtRp2871
(dp2872
g73
(dp2873
g81
I4
ssg82
g2867
sg75
(lp2874
S'88072444-98cf-4540-a290-d99a6a8d2715'
p2875
asbasbasbag68
(g84
g70
NtRp2876
(dp2877
g73
(dp2878
sg82
g2828
sg75
(lp2879
g68
(g89
g70
NtRp2880
(dp2881
g73
(dp2882
g93
g94
ssg82
g2876
sg75
(lp2883
S'last_visit'
p2884
asbag68
(g89
g70
NtRp2885
(dp2886
g73
(dp2887
g100
g101
ssg82
g2876
sg75
(lp2888
S':'
asbag68
(g89
g70
NtRp2889
(dp2890
g73
(dp2891
sg82
g2876
sg75
(lp2892
g68
(g69
g70
NtRp2893
(dp2894
g73
(dp2895
g81
I4
ssg82
g2889
sg75
(lp2896
S'datetime.datetime(2012, 7, 3, 10, 39, 53, 761186)'
p2897
asbasbasbag68
(g84
g70
NtRp2898
(dp2899
g73
(dp2900
sg82
g2828
sg75
(lp2901
g68
(g89
g70
NtRp2902
(dp2903
g73
(dp2904
g93
g94
ssg82
g2898
sg75
(lp2905
S'remember'
p2906
asbag68
(g89
g70
NtRp2907
(dp2908
g73
(dp2909
g100
g101
ssg82
g2898
sg75
(lp2910
S':'
asbag68
(g89
g70
NtRp2911
(dp2912
g73
(dp2913
sg82
g2898
sg75
(lp2914
g68
(g69
g70
NtRp2915
(dp2916
g73
(dp2917
g81
I4
ssg82
g2911
sg75
(lp2918
g111
asbasbasbag68
(g84
g70
NtRp2919
(dp2920
g73
(dp2921
sg82
g2828
sg75
(lp2922
g68
(g89
g70
NtRp2923
(dp2924
g73
(dp2925
g93
g94
ssg82
g2919
sg75
(lp2926
S'user'
p2927
asbag68
(g89
g70
NtRp2928
(dp2929
g73
(dp2930
g100
g101
ssg82
g2919
sg75
(lp2931
S':'
asbag68
(g89
g70
NtRp2932
(dp2933
g73
(dp2934
sg82
g2919
sg75
(lp2935
g68
(g69
g70
NtRp2936
(dp2937
g73
(dp2938
g81
I4
ssg82
g2932
sg75
(lp2939
g68
(g77
g70
NtRp2940
(dp2941
g73
(dp2942
g81
I3
ssg82
Nsg75
(lp2943
g68
(g84
g70
NtRp2944
(dp2945
g73
(dp2946
sg82
g2940
sg75
(lp2947
g68
(g89
g70
NtRp2948
(dp2949
g73
(dp2950
g93
g94
ssg82
g2944
sg75
(lp2951
S'email'
p2952
asbag68
(g89
g70
NtRp2953
(dp2954
g73
(dp2955
g100
g101
ssg82
g2944
sg75
(lp2956
S':'
asbag68
(g89
g70
NtRp2957
(dp2958
g73
(dp2959
sg82
g2944
sg75
(lp2960
g68
(g69
g70
NtRp2961
(dp2962
g73
(dp2963
g81
I3
ssg82
g2957
sg75
(lp2964
S'root@familug.org'
p2965
asbasbasbag68
(g84
g70
NtRp2966
(dp2967
g73
(dp2968
sg82
g2940
sg75
(lp2969
g68
(g89
g70
NtRp2970
(dp2971
g73
(dp2972
g93
g94
ssg82
g2966
sg75
(lp2973
S'first_name'
p2974
asbag68
(g89
g70
NtRp2975
(dp2976
g73
(dp2977
g100
g101
ssg82
g2966
sg75
(lp2978
S':'
asbag68
(g89
g70
NtRp2979
(dp2980
g73
(dp2981
sg82
g2966
sg75
(lp2982
g68
(g69
g70
NtRp2983
(dp2984
g73
(dp2985
g81
I3
ssg82
g2979
sg75
(lp2986
S'hvn'
p2987
asbasbasbag68
(g84
g70
NtRp2988
(dp2989
g73
(dp2990
sg82
g2940
sg75
(lp2991
g68
(g89
g70
NtRp2992
(dp2993
g73
(dp2994
g93
g94
ssg82
g2988
sg75
(lp2995
S'id'
p2996
asbag68
(g89
g70
NtRp2997
(dp2998
g73
(dp2999
g100
g101
ssg82
g2988
sg75
(lp3000
S':'
asbag68
(g89
g70
NtRp3001
(dp3002
g73
(dp3003
sg82
g2988
sg75
(lp3004
g68
(g69
g70
NtRp3005
(dp3006
g73
(dp3007
g81
I3
ssg82
g3001
sg75
(lp3008
S'1'
asbasbasbag68
(g84
g70
NtRp3009
(dp3010
g73
(dp3011
sg82
g2940
sg75
(lp3012
g68
(g89
g70
NtRp3013
(dp3014
g73
(dp3015
g93
g94
ssg82
g3009
sg75
(lp3016
S'last_name'
p3017
asbag68
(g89
g70
NtRp3018
(dp3019
g73
(dp3020
g100
g101
ssg82
g3009
sg75
(lp3021
S':'
asbag68
(g89
g70
NtRp3022
(dp3023
g73
(dp3024
sg82
g3009
sg75
(lp3025
g68
(g69
g70
NtRp3026
(dp3027
g73
(dp3028
g81
I3
ssg82
g3022
sg75
(lp3029
S'hvn'
p3030
asbasbasbag68
(g84
g70
NtRp3031
(dp3032
g73
(dp3033
sg82
g2940
sg75
(lp3034
g68
(g89
g70
NtRp3035
(dp3036
g73
(dp3037
g93
g94
ssg82
g3031
sg75
(lp3038
S'password'
p3039
asbag68
(g89
g70
NtRp3040
(dp3041
g73
(dp3042
g100
g101
ssg82
g3031
sg75
(lp3043
S':'
asbag68
(g89
g70
NtRp3044
(dp3045
g73
(dp3046
sg82
g3031
sg75
(lp3047
g68
(g69
g70
NtRp3048
(dp3049
g73
(dp3050
g81
I3
ssg82
g3044
sg75
(lp3051
S'8011e23b3c19b803721a534da64a96af'
p3052
asbasbasbag68
(g84
g70
NtRp3053
(dp3054
g73
(dp3055
sg82
g2940
sg75
(lp3056
g68
(g89
g70
NtRp3057
(dp3058
g73
(dp3059
g93
g94
ssg82
g3053
sg75
(lp3060
S'registration_id'
p3061
asbag68
(g89
g70
NtRp3062
(dp3063
g73
(dp3064
g100
g101
ssg82
g3053
sg75
(lp3065
S':'
asbag68
(g89
g70
NtRp3066
(dp3067
g73
(dp3068
sg82
g3053
sg75
(lp3069
g68
(g69
g70
NtRp3070
(dp3071
g73
(dp3072
g81
I3
ssg82
g3066
sg75
(lp3073
S''
asbasbasbag68
(g84
g70
NtRp3074
(dp3075
g73
(dp3076
sg82
g2940
sg75
(lp3077
g68
(g89
g70
NtRp3078
(dp3079
g73
(dp3080
g93
g94
ssg82
g3074
sg75
(lp3081
S'registration_key'
p3082
asbag68
(g89
g70
NtRp3083
(dp3084
g73
(dp3085
g100
g101
ssg82
g3074
sg75
(lp3086
S':'
asbag68
(g89
g70
NtRp3087
(dp3088
g73
(dp3089
sg82
g3074
sg75
(lp3090
g68
(g69
g70
NtRp3091
(dp3092
g73
(dp3093
g81
I3
ssg82
g3087
sg75
(lp3094
S''
asbasbasbag68
(g84
g70
NtRp3095
(dp3096
g73
(dp3097
sg82
g2940
sg75
(lp3098
g68
(g89
g70
NtRp3099
(dp3100
g73
(dp3101
g93
g94
ssg82
g3095
sg75
(lp3102
S'reset_password_key'
p3103
asbag68
(g89
g70
NtRp3104
(dp3105
g73
(dp3106
g100
g101
ssg82
g3095
sg75
(lp3107
S':'
asbag68
(g89
g70
NtRp3108
(dp3109
g73
(dp3110
sg82
g3095
sg75
(lp3111
g68
(g69
g70
NtRp3112
(dp3113
g73
(dp3114
g81
I3
ssg82
g3108
sg75
(lp3115
S''
asbasbasbasbasbasbasbag68
(g84
g70
NtRp3116
(dp3117
g73
(dp3118
sg82
g2828
sg75
(lp3119
g68
(g89
g70
NtRp3120
(dp3121
g73
(dp3122
g93
g94
ssg82
g3116
sg75
(lp3123
S'user_groups'
p3124
asbag68
(g89
g70
NtRp3125
(dp3126
g73
(dp3127
g100
g101
ssg82
g3116
sg75
(lp3128
S':'
asbag68
(g89
g70
NtRp3129
(dp3130
g73
(dp3131
sg82
g3116
sg75
(lp3132
g68
(g69
g70
NtRp3133
(dp3134
g73
(dp3135
g81
I4
ssg82
g3129
sg75
(lp3136
g68
(g77
g70
NtRp3137
(dp3138
g73
(dp3139
g81
I3
ssg82
Nsg75
(lp3140
g68
(g84
g70
NtRp3141
(dp3142
g73
(dp3143
sg82
g3137
sg75
(lp3144
g68
(g89
g70
NtRp3145
(dp3146
g73
(dp3147
g93
g94
ssg82
g3141
sg75
(lp3148
S'1'
asbag68
(g89
g70
NtRp3149
(dp3150
g73
(dp3151
g100
g101
ssg82
g3141
sg75
(lp3152
S':'
asbag68
(g89
g70
NtRp3153
(dp3154
g73
(dp3155
sg82
g3141
sg75
(lp3156
g68
(g69
g70
NtRp3157
(dp3158
g73
(dp3159
g81
I3
ssg82
g3153
sg75
(lp3160
S'user_1'
p3161
asbasbasbasbasbasbasbasbasbasbasbasbasbsS'etype'
p3162
S"<type 'exceptions.IndentationError'>"
p3163
sS'date'
p3164
S'Tue Jul  3 10:39:53 2012'
p3165
sS'response'
p3166
g68
(g69
g70
NtRp3167
(dp3168
g73
(dp3169
sg75
(lp3170
g68
(g77
g70
NtRp3171
(dp3172
g73
(dp3173
g81
I5
ssg82
Nsg75
(lp3174
g68
(g84
g70
NtRp3175
(dp3176
g73
(dp3177
sg82
g3171
sg75
(lp3178
g68
(g89
g70
NtRp3179
(dp3180
g73
(dp3181
g93
g94
ssg82
g3175
sg75
(lp3182
g166
asbag68
(g89
g70
NtRp3183
(dp3184
g73
(dp3185
g100
g101
ssg82
g3175
sg75
(lp3186
S':'
asbag68
(g89
g70
NtRp3187
(dp3188
g73
(dp3189
sg82
g3175
sg75
(lp3190
g68
(g69
g70
NtRp3191
(dp3192
g73
(dp3193
g81
I5
ssg82
g3187
sg75
(lp3194
S'<cStringIO.StringO object at 0x989e1c0>'
p3195
asbasbasbag68
(g84
g70
NtRp3196
(dp3197
g73
(dp3198
sg82
g3171
sg75
(lp3199
g68
(g89
g70
NtRp3200
(dp3201
g73
(dp3202
g93
g94
ssg82
g3196
sg75
(lp3203
g232
asbag68
(g89
g70
NtRp3204
(dp3205
g73
(dp3206
g100
g101
ssg82
g3196
sg75
(lp3207
S':'
asbag68
(g89
g70
NtRp3208
(dp3209
g73
(dp3210
sg82
g3196
sg75
(lp3211
g68
(g69
g70
NtRp3212
(dp3213
g73
(dp3214
g81
I5
ssg82
g3208
sg75
(lp3215
g68
(g77
g70
NtRp3216
(dp3217
g73
(dp3218
g81
I4
ssg82
Nsg75
(lp3219
g68
(g84
g70
NtRp3220
(dp3221
g73
(dp3222
sg82
g3216
sg75
(lp3223
g68
(g89
g70
NtRp3224
(dp3225
g73
(dp3226
g93
g94
ssg82
g3220
sg75
(lp3227
S'session_id_test'
p3228
asbag68
(g89
g70
NtRp3229
(dp3230
g73
(dp3231
g100
g101
ssg82
g3220
sg75
(lp3232
S':'
asbag68
(g89
g70
NtRp3233
(dp3234
g73
(dp3235
sg82
g3220
sg75
(lp3236
g68
(g69
g70
NtRp3237
(dp3238
g73
(dp3239
g81
I4
ssg82
g3233
sg75
(lp3240
g68
(g77
g70
NtRp3241
(dp3242
g73
(dp3243
g81
I3
ssg82
Nsg75
(lp3244
g68
(g84
g70
NtRp3245
(dp3246
g73
(dp3247
sg82
g3241
sg75
(lp3248
g68
(g89
g70
NtRp3249
(dp3250
g73
(dp3251
g93
g94
ssg82
g3245
sg75
(lp3252
g282
asbag68
(g89
g70
NtRp3253
(dp3254
g73
(dp3255
g100
g101
ssg82
g3245
sg75
(lp3256
S':'
asbag68
(g89
g70
NtRp3257
(dp3258
g73
(dp3259
sg82
g3245
sg75
(lp3260
g68
(g69
g70
NtRp3261
(dp3262
g73
(dp3263
g81
I3
ssg82
g3257
sg75
(lp3264
S''
asbasbasbag68
(g84
g70
NtRp3265
(dp3266
g73
(dp3267
sg82
g3241
sg75
(lp3268
g68
(g89
g70
NtRp3269
(dp3270
g73
(dp3271
g93
g94
ssg82
g3265
sg75
(lp3272
g303
asbag68
(g89
g70
NtRp3273
(dp3274
g73
(dp3275
g100
g101
ssg82
g3265
sg75
(lp3276
S':'
asbag68
(g89
g70
NtRp3277
(dp3278
g73
(dp3279
sg82
g3265
sg75
(lp3280
g68
(g69
g70
NtRp3281
(dp3282
g73
(dp3283
g81
I3
ssg82
g3277
sg75
(lp3284
S''
asbasbasbag68
(g84
g70
NtRp3285
(dp3286
g73
(dp3287
sg82
g3241
sg75
(lp3288
g68
(g89
g70
NtRp3289
(dp3290
g73
(dp3291
g93
g94
ssg82
g3285
sg75
(lp3292
g324
asbag68
(g89
g70
NtRp3293
(dp3294
g73
(dp3295
g100
g101
ssg82
g3285
sg75
(lp3296
S':'
asbag68
(g89
g70
NtRp3297
(dp3298
g73
(dp3299
sg82
g3285
sg75
(lp3300
g68
(g69
g70
NtRp3301
(dp3302
g73
(dp3303
g81
I3
ssg82
g3297
sg75
(lp3304
S''
asbasbasbag68
(g84
g70
NtRp3305
(dp3306
g73
(dp3307
sg82
g3241
sg75
(lp3308
g68
(g89
g70
NtRp3309
(dp3310
g73
(dp3311
g93
g94
ssg82
g3305
sg75
(lp3312
g345
asbag68
(g89
g70
NtRp3313
(dp3314
g73
(dp3315
g100
g101
ssg82
g3305
sg75
(lp3316
S':'
asbag68
(g89
g70
NtRp3317
(dp3318
g73
(dp3319
sg82
g3305
sg75
(lp3320
g68
(g69
g70
NtRp3321
(dp3322
g73
(dp3323
g81
I3
ssg82
g3317
sg75
(lp3324
S''
asbasbasbag68
(g84
g70
NtRp3325
(dp3326
g73
(dp3327
sg82
g3241
sg75
(lp3328
g68
(g89
g70
NtRp3329
(dp3330
g73
(dp3331
g93
g94
ssg82
g3325
sg75
(lp3332
g366
asbag68
(g89
g70
NtRp3333
(dp3334
g73
(dp3335
g100
g101
ssg82
g3325
sg75
(lp3336
S':'
asbag68
(g89
g70
NtRp3337
(dp3338
g73
(dp3339
sg82
g3325
sg75
(lp3340
g68
(g69
g70
NtRp3341
(dp3342
g73
(dp3343
g81
I3
ssg82
g3337
sg75
(lp3344
S''
asbasbasbag68
(g84
g70
NtRp3345
(dp3346
g73
(dp3347
sg82
g3241
sg75
(lp3348
g68
(g89
g70
NtRp3349
(dp3350
g73
(dp3351
g93
g94
ssg82
g3345
sg75
(lp3352
g387
asbag68
(g89
g70
NtRp3353
(dp3354
g73
(dp3355
g100
g101
ssg82
g3345
sg75
(lp3356
S':'
asbag68
(g89
g70
NtRp3357
(dp3358
g73
(dp3359
sg82
g3345
sg75
(lp3360
g68
(g69
g70
NtRp3361
(dp3362
g73
(dp3363
g81
I3
ssg82
g3357
sg75
(lp3364
S'/'
asbasbasbag68
(g84
g70
NtRp3365
(dp3366
g73
(dp3367
sg82
g3241
sg75
(lp3368
g68
(g89
g70
NtRp3369
(dp3370
g73
(dp3371
g93
g94
ssg82
g3365
sg75
(lp3372
g408
asbag68
(g89
g70
NtRp3373
(dp3374
g73
(dp3375
g100
g101
ssg82
g3365
sg75
(lp3376
S':'
asbag68
(g89
g70
NtRp3377
(dp3378
g73
(dp3379
sg82
g3365
sg75
(lp3380
g68
(g69
g70
NtRp3381
(dp3382
g73
(dp3383
g81
I3
ssg82
g3377
sg75
(lp3384
S''
asbasbasbag68
(g84
g70
NtRp3385
(dp3386
g73
(dp3387
sg82
g3241
sg75
(lp3388
g68
(g89
g70
NtRp3389
(dp3390
g73
(dp3391
g93
g94
ssg82
g3385
sg75
(lp3392
g429
asbag68
(g89
g70
NtRp3393
(dp3394
g73
(dp3395
g100
g101
ssg82
g3385
sg75
(lp3396
S':'
asbag68
(g89
g70
NtRp3397
(dp3398
g73
(dp3399
sg82
g3385
sg75
(lp3400
g68
(g69
g70
NtRp3401
(dp3402
g73
(dp3403
g81
I3
ssg82
g3397
sg75
(lp3404
S''
asbasbasbasbasbasbasbasbasbasbasbag68
(g84
g70
NtRp3405
(dp3406
g73
(dp3407
sg82
g3171
sg75
(lp3408
g68
(g89
g70
NtRp3409
(dp3410
g73
(dp3411
g93
g94
ssg82
g3405
sg75
(lp3412
S'delimiters'
p3413
asbag68
(g89
g70
NtRp3414
(dp3415
g73
(dp3416
g100
g101
ssg82
g3405
sg75
(lp3417
S':'
asbag68
(g89
g70
NtRp3418
(dp3419
g73
(dp3420
sg82
g3405
sg75
(lp3421
g68
(g69
g70
NtRp3422
(dp3423
g73
(dp3424
g81
I5
ssg82
g3418
sg75
(lp3425
g68
(g77
g70
NtRp3426
(dp3427
g73
(dp3428
g81
I4
ssg82
Nsg75
(lp3429
g68
(g84
g70
NtRp3430
(dp3431
g73
(dp3432
sg82
g3426
sg75
(lp3433
g68
(g89
g70
NtRp3434
(dp3435
g73
(dp3436
sg82
g3430
sg75
(lp3437
g68
(g69
g70
NtRp3438
(dp3439
g73
(dp3440
g81
I4
ssg82
g3434
sg75
(lp3441
S'{{'
p3442
asbasbasbag68
(g84
g70
NtRp3443
(dp3444
g73
(dp3445
sg82
g3426
sg75
(lp3446
g68
(g89
g70
NtRp3447
(dp3448
g73
(dp3449
sg82
g3443
sg75
(lp3450
g68
(g69
g70
NtRp3451
(dp3452
g73
(dp3453
g81
I4
ssg82
g3447
sg75
(lp3454
S'}}'
p3455
asbasbasbasbasbasbasbag68
(g84
g70
NtRp3456
(dp3457
g73
(dp3458
sg82
g3171
sg75
(lp3459
g68
(g89
g70
NtRp3460
(dp3461
g73
(dp3462
g93
g94
ssg82
g3456
sg75
(lp3463
S'files'
p3464
asbag68
(g89
g70
NtRp3465
(dp3466
g73
(dp3467
g100
g101
ssg82
g3456
sg75
(lp3468
S':'
asbag68
(g89
g70
NtRp3469
(dp3470
g73
(dp3471
sg82
g3456
sg75
(lp3472
g68
(g69
g70
NtRp3473
(dp3474
g73
(dp3475
g81
I5
ssg82
g3469
sg75
(lp3476
g68
(g77
g70
NtRp3477
(dp3478
g73
(dp3479
g81
I4
ssg82
Nsg75
(lp3480
sbasbasbasbag68
(g84
g70
NtRp3481
(dp3482
g73
(dp3483
sg82
g3171
sg75
(lp3484
g68
(g89
g70
NtRp3485
(dp3486
g73
(dp3487
g93
g94
ssg82
g3481
sg75
(lp3488
S'flash'
p3489
asbag68
(g89
g70
NtRp3490
(dp3491
g73
(dp3492
g100
g101
ssg82
g3481
sg75
(lp3493
S':'
asbag68
(g89
g70
NtRp3494
(dp3495
g73
(dp3496
sg82
g3481
sg75
(lp3497
g68
(g69
g70
NtRp3498
(dp3499
g73
(dp3500
g81
I5
ssg82
g3494
sg75
(lp3501
S''
asbasbasbag68
(g84
g70
NtRp3502
(dp3503
g73
(dp3504
sg82
g3171
sg75
(lp3505
g68
(g89
g70
NtRp3506
(dp3507
g73
(dp3508
g93
g94
ssg82
g3502
sg75
(lp3509
S'generic_patterns'
p3510
asbag68
(g89
g70
NtRp3511
(dp3512
g73
(dp3513
g100
g101
ssg82
g3502
sg75
(lp3514
S':'
asbag68
(g89
g70
NtRp3515
(dp3516
g73
(dp3517
sg82
g3502
sg75
(lp3518
g68
(g69
g70
NtRp3519
(dp3520
g73
(dp3521
g81
I5
ssg82
g3515
sg75
(lp3522
g68
(g77
g70
NtRp3523
(dp3524
g73
(dp3525
g81
I4
ssg82
Nsg75
(lp3526
g68
(g84
g70
NtRp3527
(dp3528
g73
(dp3529
sg82
g3523
sg75
(lp3530
g68
(g89
g70
NtRp3531
(dp3532
g73
(dp3533
sg82
g3527
sg75
(lp3534
g68
(g69
g70
NtRp3535
(dp3536
g73
(dp3537
g81
I4
ssg82
g3531
sg75
(lp3538
S'*'
asbasbasbasbasbasbasbag68
(g84
g70
NtRp3539
(dp3540
g73
(dp3541
sg82
g3171
sg75
(lp3542
g68
(g89
g70
NtRp3543
(dp3544
g73
(dp3545
g93
g94
ssg82
g3539
sg75
(lp3546
S'headers'
p3547
asbag68
(g89
g70
NtRp3548
(dp3549
g73
(dp3550
g100
g101
ssg82
g3539
sg75
(lp3551
S':'
asbag68
(g89
g70
NtRp3552
(dp3553
g73
(dp3554
sg82
g3539
sg75
(lp3555
g68
(g69
g70
NtRp3556
(dp3557
g73
(dp3558
g81
I5
ssg82
g3552
sg75
(lp3559
g68
(g77
g70
NtRp3560
(dp3561
g73
(dp3562
g81
I4
ssg82
Nsg75
(lp3563
g68
(g84
g70
NtRp3564
(dp3565
g73
(dp3566
sg82
g3560
sg75
(lp3567
g68
(g89
g70
NtRp3568
(dp3569
g73
(dp3570
g93
g94
ssg82
g3564
sg75
(lp3571
S'Cache-Control'
p3572
asbag68
(g89
g70
NtRp3573
(dp3574
g73
(dp3575
g100
g101
ssg82
g3564
sg75
(lp3576
S':'
asbag68
(g89
g70
NtRp3577
(dp3578
g73
(dp3579
sg82
g3564
sg75
(lp3580
g68
(g69
g70
NtRp3581
(dp3582
g73
(dp3583
g81
I4
ssg82
g3577
sg75
(lp3584
S'no-store, no-cache, must-revalidate, post-check=0, pre-check=0'
p3585
asbasbasbag68
(g84
g70
NtRp3586
(dp3587
g73
(dp3588
sg82
g3560
sg75
(lp3589
g68
(g89
g70
NtRp3590
(dp3591
g73
(dp3592
g93
g94
ssg82
g3586
sg75
(lp3593
S'Content-Type'
p3594
asbag68
(g89
g70
NtRp3595
(dp3596
g73
(dp3597
g100
g101
ssg82
g3586
sg75
(lp3598
S':'
asbag68
(g89
g70
NtRp3599
(dp3600
g73
(dp3601
sg82
g3586
sg75
(lp3602
g68
(g69
g70
NtRp3603
(dp3604
g73
(dp3605
g81
I4
ssg82
g3599
sg75
(lp3606
S'text/html; charset=utf-8'
p3607
asbasbasbag68
(g84
g70
NtRp3608
(dp3609
g73
(dp3610
sg82
g3560
sg75
(lp3611
g68
(g89
g70
NtRp3612
(dp3613
g73
(dp3614
g93
g94
ssg82
g3608
sg75
(lp3615
S'Expires'
p3616
asbag68
(g89
g70
NtRp3617
(dp3618
g73
(dp3619
g100
g101
ssg82
g3608
sg75
(lp3620
S':'
asbag68
(g89
g70
NtRp3621
(dp3622
g73
(dp3623
sg82
g3608
sg75
(lp3624
g68
(g69
g70
NtRp3625
(dp3626
g73
(dp3627
g81
I4
ssg82
g3621
sg75
(lp3628
S'Tue, 03 Jul 2012 03:39:53 GMT'
p3629
asbasbasbag68
(g84
g70
NtRp3630
(dp3631
g73
(dp3632
sg82
g3560
sg75
(lp3633
g68
(g89
g70
NtRp3634
(dp3635
g73
(dp3636
g93
g94
ssg82
g3630
sg75
(lp3637
S'Pragma'
p3638
asbag68
(g89
g70
NtRp3639
(dp3640
g73
(dp3641
g100
g101
ssg82
g3630
sg75
(lp3642
S':'
asbag68
(g89
g70
NtRp3643
(dp3644
g73
(dp3645
sg82
g3630
sg75
(lp3646
g68
(g69
g70
NtRp3647
(dp3648
g73
(dp3649
g81
I4
ssg82
g3643
sg75
(lp3650
S'no-cache'
p3651
asbasbasbag68
(g84
g70
NtRp3652
(dp3653
g73
(dp3654
sg82
g3560
sg75
(lp3655
g68
(g89
g70
NtRp3656
(dp3657
g73
(dp3658
g93
g94
ssg82
g3652
sg75
(lp3659
S'X-Powered-By'
p3660
asbag68
(g89
g70
NtRp3661
(dp3662
g73
(dp3663
g100
g101
ssg82
g3652
sg75
(lp3664
S':'
asbag68
(g89
g70
NtRp3665
(dp3666
g73
(dp3667
sg82
g3652
sg75
(lp3668
g68
(g69
g70
NtRp3669
(dp3670
g73
(dp3671
g81
I4
ssg82
g3665
sg75
(lp3672
S'web2py'
p3673
asbasbasbasbasbasbasbag68
(g84
g70
NtRp3674
(dp3675
g73
(dp3676
sg82
g3171
sg75
(lp3677
g68
(g89
g70
NtRp3678
(dp3679
g73
(dp3680
g93
g94
ssg82
g3674
sg75
(lp3681
S'menu'
p3682
asbag68
(g89
g70
NtRp3683
(dp3684
g73
(dp3685
g100
g101
ssg82
g3674
sg75
(lp3686
S':'
asbag68
(g89
g70
NtRp3687
(dp3688
g73
(dp3689
sg82
g3674
sg75
(lp3690
g68
(g69
g70
NtRp3691
(dp3692
g73
(dp3693
g81
I5
ssg82
g3687
sg75
(lp3694
g68
(g77
g70
NtRp3695
(dp3696
g73
(dp3697
g81
I4
ssg82
Nsg75
(lp3698
g68
(g84
g70
NtRp3699
(dp3700
g73
(dp3701
sg82
g3695
sg75
(lp3702
g68
(g89
g70
NtRp3703
(dp3704
g73
(dp3705
sg82
g3699
sg75
(lp3706
g68
(g69
g70
NtRp3707
(dp3708
g73
(dp3709
g81
I4
ssg82
g3703
sg75
(lp3710
g68
(g77
g70
NtRp3711
(dp3712
g73
(dp3713
g81
I3
ssg82
Nsg75
(lp3714
g68
(g84
g70
NtRp3715
(dp3716
g73
(dp3717
sg82
g3711
sg75
(lp3718
g68
(g89
g70
NtRp3719
(dp3720
g73
(dp3721
sg82
g3715
sg75
(lp3722
g68
(g69
g70
NtRp3723
(dp3724
g73
(dp3725
g81
I3
ssg82
g3719
sg75
(lp3726
cgluon.languages
lazyT_unpickle
p3727
(S's\x04\x00\x00\x00Home'
tRp3728
asbasbasbag68
(g84
g70
NtRp3729
(dp3730
g73
(dp3731
sg82
g3711
sg75
(lp3732
g68
(g89
g70
NtRp3733
(dp3734
g73
(dp3735
sg82
g3729
sg75
(lp3736
g68
(g69
g70
NtRp3737
(dp3738
g73
(dp3739
g81
I3
ssg82
g3733
sg75
(lp3740
g111
asbasbasbag68
(g84
g70
NtRp3741
(dp3742
g73
(dp3743
sg82
g3711
sg75
(lp3744
g68
(g89
g70
NtRp3745
(dp3746
g73
(dp3747
sg82
g3741
sg75
(lp3748
g68
(g69
g70
NtRp3749
(dp3750
g73
(dp3751
g81
I3
ssg82
g3745
sg75
(lp3752
S'/test/default/index'
p3753
asbasbasbag68
(g84
g70
NtRp3754
(dp3755
g73
(dp3756
sg82
g3711
sg75
(lp3757
g68
(g89
g70
NtRp3758
(dp3759
g73
(dp3760
sg82
g3754
sg75
(lp3761
g68
(g69
g70
NtRp3762
(dp3763
g73
(dp3764
g81
I3
ssg82
g3758
sg75
(lp3765
g68
(g77
g70
NtRp3766
(dp3767
g73
(dp3768
g81
I2
ssg82
Nsg75
(lp3769
sbasbasbasbasbasbasbasbag68
(g84
g70
NtRp3770
(dp3771
g73
(dp3772
sg82
g3695
sg75
(lp3773
g68
(g89
g70
NtRp3774
(dp3775
g73
(dp3776
sg82
g3770
sg75
(lp3777
g68
(g69
g70
NtRp3778
(dp3779
g73
(dp3780
g81
I4
ssg82
g3774
sg75
(lp3781
g68
(g77
g70
NtRp3782
(dp3783
g73
(dp3784
g81
I3
ssg82
Nsg75
(lp3785
g68
(g84
g70
NtRp3786
(dp3787
g73
(dp3788
sg82
g3782
sg75
(lp3789
g68
(g89
g70
NtRp3790
(dp3791
g73
(dp3792
sg82
g3786
sg75
(lp3793
g68
(g69
g70
NtRp3794
(dp3795
g73
(dp3796
g81
I3
ssg82
g3790
sg75
(lp3797
g68
(cgluon.html
SPAN
p3798
g70
NtRp3799
(dp3800
g73
(dp3801
g93
S'color:yellow'
p3802
ssg82
Nsg75
(lp3803
g3673
asbasbasbasbag68
(g84
g70
NtRp3804
(dp3805
g73
(dp3806
sg82
g3782
sg75
(lp3807
g68
(g89
g70
NtRp3808
(dp3809
g73
(dp3810
sg82
g3804
sg75
(lp3811
g68
(g69
g70
NtRp3812
(dp3813
g73
(dp3814
g81
I3
ssg82
g3808
sg75
(lp3815
g111
asbasbasbag68
(g84
g70
NtRp3816
(dp3817
g73
(dp3818
sg82
g3782
sg75
(lp3819
g68
(g89
g70
NtRp3820
(dp3821
g73
(dp3822
sg82
g3816
sg75
(lp3823
g68
(g69
g70
NtRp3824
(dp3825
g73
(dp3826
g81
I3
ssg82
g3820
sg75
(lp3827
S'None'
p3828
asbasbasbag68
(g84
g70
NtRp3829
(dp3830
g73
(dp3831
sg82
g3782
sg75
(lp3832
g68
(g89
g70
NtRp3833
(dp3834
g73
(dp3835
sg82
g3829
sg75
(lp3836
g68
(g69
g70
NtRp3837
(dp3838
g73
(dp3839
g81
I3
ssg82
g3833
sg75
(lp3840
g68
(g77
g70
NtRp3841
(dp3842
g73
(dp3843
g81
I2
ssg82
Nsg75
(lp3844
g68
(g84
g70
NtRp3845
(dp3846
g73
(dp3847
sg82
g3841
sg75
(lp3848
g68
(g89
g70
NtRp3849
(dp3850
g73
(dp3851
sg82
g3845
sg75
(lp3852
g68
(g69
g70
NtRp3853
(dp3854
g73
(dp3855
g81
I2
ssg82
g3849
sg75
(lp3856
g68
(g77
g70
NtRp3857
(dp3858
g73
(dp3859
g81
I1
ssg82
Nsg75
(lp3860
g68
(g84
g70
NtRp3861
(dp3862
g73
(dp3863
sg82
g3857
sg75
(lp3864
g68
(g89
g70
NtRp3865
(dp3866
g73
(dp3867
sg82
g3861
sg75
(lp3868
g68
(g69
g70
NtRp3869
(dp3870
g73
(dp3871
g81
I1
ssg82
g3865
sg75
(lp3872
g3727
(S's\x08\x00\x00\x00My Sites'
tRp3873
asbasbasbag68
(g84
g70
NtRp3874
(dp3875
g73
(dp3876
sg82
g3857
sg75
(lp3877
g68
(g89
g70
NtRp3878
(dp3879
g73
(dp3880
sg82
g3874
sg75
(lp3881
g68
(g69
g70
NtRp3882
(dp3883
g73
(dp3884
g81
I1
ssg82
g3878
sg75
(lp3885
I00
asbasbasbag68
(g84
g70
NtRp3886
(dp3887
g73
(dp3888
sg82
g3857
sg75
(lp3889
g68
(g89
g70
NtRp3890
(dp3891
g73
(dp3892
sg82
g3886
sg75
(lp3893
g68
(g69
g70
NtRp3894
(dp3895
g73
(dp3896
g81
I1
ssg82
g3890
sg75
(lp3897
S'/admin/default/site'
p3898
asbasbasbasbasbasbasbag68
(g84
g70
NtRp3899
(dp3900
g73
(dp3901
sg82
g3841
sg75
(lp3902
g68
(g89
g70
NtRp3903
(dp3904
g73
(dp3905
sg82
g3899
sg75
(lp3906
g68
(g69
g70
NtRp3907
(dp3908
g73
(dp3909
g81
I2
ssg82
g3903
sg75
(lp3910
g68
(g77
g70
NtRp3911
(dp3912
g73
(dp3913
g81
I1
ssg82
Nsg75
(lp3914
g68
(g84
g70
NtRp3915
(dp3916
g73
(dp3917
sg82
g3911
sg75
(lp3918
g68
(g89
g70
NtRp3919
(dp3920
g73
(dp3921
sg82
g3915
sg75
(lp3922
g68
(g69
g70
NtRp3923
(dp3924
g73
(dp3925
g81
I1
ssg82
g3919
sg75
(lp3926
g3727
(S's\x08\x00\x00\x00This App'
tRp3927
asbasbasbag68
(g84
g70
NtRp3928
(dp3929
g73
(dp3930
sg82
g3911
sg75
(lp3931
g68
(g89
g70
NtRp3932
(dp3933
g73
(dp3934
sg82
g3928
sg75
(lp3935
g68
(g69
g70
NtRp3936
(dp3937
g73
(dp3938
g81
I1
ssg82
g3932
sg75
(lp3939
I00
asbasbasbag68
(g84
g70
NtRp3940
(dp3941
g73
(dp3942
sg82
g3911
sg75
(lp3943
g68
(g89
g70
NtRp3944
(dp3945
g73
(dp3946
sg82
g3940
sg75
(lp3947
g68
(g69
g70
NtRp3948
(dp3949
g73
(dp3950
g81
I1
ssg82
g3944
sg75
(lp3951
S'/admin/default/design/test'
p3952
asbasbasbag68
(g84
g70
NtRp3953
(dp3954
g73
(dp3955
sg82
g3911
sg75
(lp3956
g68
(g89
g70
NtRp3957
(dp3958
g73
(dp3959
sg82
g3953
sg75
(lp3960
g68
(g69
g70
NtRp3961
(dp3962
g73
(dp3963
g81
I1
ssg82
g3957
sg75
(lp3964
(lp3965
(g3727
(S's\n\x00\x00\x00Controller'
tRp3966
I00
S'/admin/default/edit/test/controllers/default.py'
tp3967
a(g3727
(S's\x04\x00\x00\x00View'
tRp3968
I00
S'/admin/default/edit/test/views/default/index.html'
tp3969
a(g3727
(S's\x06\x00\x00\x00Layout'
tRp3970
I00
S'/admin/default/edit/test/views/layout.html'
tp3971
a(g3727
(S's\n\x00\x00\x00Stylesheet'
tRp3972
I00
S'/admin/default/edit/test/static/css/web2py.css'
tp3973
a(g3727
(S's\x08\x00\x00\x00DB Model'
tRp3974
I00
S'/admin/default/edit/test/models/db.py'
tp3975
a(g3727
(S's\n\x00\x00\x00Menu Model'
tRp3976
I00
S'/admin/default/edit/test/models/menu.py'
tp3977
a(g3727
(S's\x08\x00\x00\x00Database'
tRp3978
I00
S'/test/appadmin/index'
tp3979
a(g3727
(S's\x06\x00\x00\x00Errors'
tRp3980
I00
S'/admin/default/errors/test'
tp3981
a(g3727
(S's\x05\x00\x00\x00About'
tRp3982
I00
S'/admin/default/about/test'
tp3983
aasbasbasbasbasbasbasbag68
(g84
g70
NtRp3984
(dp3985
g73
(dp3986
sg82
g3841
sg75
(lp3987
g68
(g89
g70
NtRp3988
(dp3989
g73
(dp3990
sg82
g3984
sg75
(lp3991
g68
(g69
g70
NtRp3992
(dp3993
g73
(dp3994
g81
I2
ssg82
g3988
sg75
(lp3995
g68
(g77
g70
NtRp3996
(dp3997
g73
(dp3998
g81
I1
ssg82
Nsg75
(lp3999
g68
(g84
g70
NtRp4000
(dp4001
g73
(dp4002
sg82
g3996
sg75
(lp4003
g68
(g89
g70
NtRp4004
(dp4005
g73
(dp4006
sg82
g4000
sg75
(lp4007
g68
(g69
g70
NtRp4008
(dp4009
g73
(dp4010
g81
I1
ssg82
g4004
sg75
(lp4011
S'web2py.com'
p4012
asbasbasbag68
(g84
g70
NtRp4013
(dp4014
g73
(dp4015
sg82
g3996
sg75
(lp4016
g68
(g89
g70
NtRp4017
(dp4018
g73
(dp4019
sg82
g4013
sg75
(lp4020
g68
(g69
g70
NtRp4021
(dp4022
g73
(dp4023
g81
I1
ssg82
g4017
sg75
(lp4024
I00
asbasbasbag68
(g84
g70
NtRp4025
(dp4026
g73
(dp4027
sg82
g3996
sg75
(lp4028
g68
(g89
g70
NtRp4029
(dp4030
g73
(dp4031
sg82
g4025
sg75
(lp4032
g68
(g69
g70
NtRp4033
(dp4034
g73
(dp4035
g81
I1
ssg82
g4029
sg75
(lp4036
S'http://www.web2py.com'
p4037
asbasbasbag68
(g84
g70
NtRp4038
(dp4039
g73
(dp4040
sg82
g3996
sg75
(lp4041
g68
(g89
g70
NtRp4042
(dp4043
g73
(dp4044
sg82
g4038
sg75
(lp4045
g68
(g69
g70
NtRp4046
(dp4047
g73
(dp4048
g81
I1
ssg82
g4042
sg75
(lp4049
(lp4050
(g3727
(S's\x08\x00\x00\x00Download'
tRp4051
I00
S'http://www.web2py.com/examples/default/download'
p4052
tp4053
a(g3727
(S's\x07\x00\x00\x00Support'
tRp4054
I00
S'http://www.web2py.com/examples/default/support'
p4055
tp4056
a(g3727
(S's\x04\x00\x00\x00Demo'
tRp4057
I00
S'http://web2py.com/demo_admin'
p4058
tp4059
a(g3727
(S's\x0e\x00\x00\x00Quick Examples'
tRp4060
I00
S'http://web2py.com/examples/default/examples'
p4061
tp4062
a(g3727
(S's\x03\x00\x00\x00FAQ'
tRp4063
I00
S'http://web2py.com/AlterEgo'
p4064
tp4065
a(g3727
(S's\x06\x00\x00\x00Videos'
tRp4066
I00
S'http://www.web2py.com/examples/default/videos/'
p4067
tp4068
a(g3727
(S's\x11\x00\x00\x00Free Applications'
tRp4069
I00
S'http://web2py.com/appliances'
p4070
tp4071
a(g3727
(S's\x07\x00\x00\x00Plugins'
tRp4072
I00
S'http://web2py.com/plugins'
p4073
tp4074
a(g3727
(S's\x07\x00\x00\x00Layouts'
tRp4075
I00
S'http://web2py.com/layouts'
p4076
tp4077
a(g3727
(S's\x07\x00\x00\x00Recipes'
tRp4078
I00
S'http://web2pyslices.com/'
p4079
tp4080
a(g3727
(S's\x08\x00\x00\x00Semantic'
tRp4081
I00
S'http://web2py.com/semantic'
p4082
tp4083
aasbasbasbasbasbasbasbag68
(g84
g70
NtRp4084
(dp4085
g73
(dp4086
sg82
g3841
sg75
(lp4087
g68
(g89
g70
NtRp4088
(dp4089
g73
(dp4090
sg82
g4084
sg75
(lp4091
g68
(g69
g70
NtRp4092
(dp4093
g73
(dp4094
g81
I2
ssg82
g4088
sg75
(lp4095
g68
(g77
g70
NtRp4096
(dp4097
g73
(dp4098
g81
I1
ssg82
Nsg75
(lp4099
g68
(g84
g70
NtRp4100
(dp4101
g73
(dp4102
sg82
g4096
sg75
(lp4103
g68
(g89
g70
NtRp4104
(dp4105
g73
(dp4106
sg82
g4100
sg75
(lp4107
g68
(g69
g70
NtRp4108
(dp4109
g73
(dp4110
g81
I1
ssg82
g4104
sg75
(lp4111
g3727
(S's\r\x00\x00\x00Documentation'
tRp4112
asbasbasbag68
(g84
g70
NtRp4113
(dp4114
g73
(dp4115
sg82
g4096
sg75
(lp4116
g68
(g89
g70
NtRp4117
(dp4118
g73
(dp4119
sg82
g4113
sg75
(lp4120
g68
(g69
g70
NtRp4121
(dp4122
g73
(dp4123
g81
I1
ssg82
g4117
sg75
(lp4124
I00
asbasbasbag68
(g84
g70
NtRp4125
(dp4126
g73
(dp4127
sg82
g4096
sg75
(lp4128
g68
(g89
g70
NtRp4129
(dp4130
g73
(dp4131
sg82
g4125
sg75
(lp4132
g68
(g69
g70
NtRp4133
(dp4134
g73
(dp4135
g81
I1
ssg82
g4129
sg75
(lp4136
S'http://www.web2py.com/book'
p4137
asbasbasbag68
(g84
g70
NtRp4138
(dp4139
g73
(dp4140
sg82
g4096
sg75
(lp4141
g68
(g89
g70
NtRp4142
(dp4143
g73
(dp4144
sg82
g4138
sg75
(lp4145
g68
(g69
g70
NtRp4146
(dp4147
g73
(dp4148
g81
I1
ssg82
g4142
sg75
(lp4149
(lp4150
(g3727
(S's\x07\x00\x00\x00Preface'
tRp4151
I00
S'http://www.web2py.com/book/default/chapter/00'
p4152
tp4153
a(g3727
(S's\x0c\x00\x00\x00Introduction'
tRp4154
I00
S'http://www.web2py.com/book/default/chapter/01'
p4155
tp4156
a(g3727
(S's\x06\x00\x00\x00Python'
tRp4157
I00
S'http://www.web2py.com/book/default/chapter/02'
p4158
tp4159
a(g3727
(S's\x08\x00\x00\x00Overview'
tRp4160
I00
S'http://www.web2py.com/book/default/chapter/03'
p4161
tp4162
a(g3727
(S's\x08\x00\x00\x00The Core'
tRp4163
I00
S'http://www.web2py.com/book/default/chapter/04'
p4164
tp4165
a(g3727
(S's\t\x00\x00\x00The Views'
tRp4166
I00
S'http://www.web2py.com/book/default/chapter/05'
p4167
tp4168
a(g3727
(S's\x08\x00\x00\x00Database'
tRp4169
I00
S'http://www.web2py.com/book/default/chapter/06'
p4170
tp4171
a(g3727
(S's\x14\x00\x00\x00Forms and Validators'
tRp4172
I00
S'http://www.web2py.com/book/default/chapter/07'
p4173
tp4174
a(g3727
(S's\r\x00\x00\x00Email and SMS'
tRp4175
I00
S'http://www.web2py.com/book/default/chapter/08'
p4176
tp4177
a(g3727
(S's\x0e\x00\x00\x00Access Control'
tRp4178
I00
S'http://www.web2py.com/book/default/chapter/09'
p4179
tp4180
a(g3727
(S's\x08\x00\x00\x00Services'
tRp4181
I00
S'http://www.web2py.com/book/default/chapter/10'
p4182
tp4183
a(g3727
(S's\x0c\x00\x00\x00Ajax Recipes'
tRp4184
I00
S'http://www.web2py.com/book/default/chapter/11'
p4185
tp4186
a(g3727
(S's\x16\x00\x00\x00Components and Plugins'
tRp4187
I00
S'http://www.web2py.com/book/default/chapter/12'
p4188
tp4189
a(g3727
(S's\x12\x00\x00\x00Deployment Recipes'
tRp4190
I00
S'http://www.web2py.com/book/default/chapter/13'
p4191
tp4192
a(g3727
(S's\r\x00\x00\x00Other Recipes'
tRp4193
I00
S'http://www.web2py.com/book/default/chapter/14'
p4194
tp4195
a(g3727
(S's\r\x00\x00\x00Buy this book'
tRp4196
I00
S'http://stores.lulu.com/web2py'
p4197
tp4198
aasbasbasbasbasbasbasbag68
(g84
g70
NtRp4199
(dp4200
g73
(dp4201
sg82
g3841
sg75
(lp4202
g68
(g89
g70
NtRp4203
(dp4204
g73
(dp4205
sg82
g4199
sg75
(lp4206
g68
(g69
g70
NtRp4207
(dp4208
g73
(dp4209
g81
I2
ssg82
g4203
sg75
(lp4210
g68
(g77
g70
NtRp4211
(dp4212
g73
(dp4213
g81
I1
ssg82
Nsg75
(lp4214
g68
(g84
g70
NtRp4215
(dp4216
g73
(dp4217
sg82
g4211
sg75
(lp4218
g68
(g89
g70
NtRp4219
(dp4220
g73
(dp4221
sg82
g4215
sg75
(lp4222
g68
(g69
g70
NtRp4223
(dp4224
g73
(dp4225
g81
I1
ssg82
g4219
sg75
(lp4226
g3727
(S's\t\x00\x00\x00Community'
tRp4227
asbasbasbag68
(g84
g70
NtRp4228
(dp4229
g73
(dp4230
sg82
g4211
sg75
(lp4231
g68
(g89
g70
NtRp4232
(dp4233
g73
(dp4234
sg82
g4228
sg75
(lp4235
g68
(g69
g70
NtRp4236
(dp4237
g73
(dp4238
g81
I1
ssg82
g4232
sg75
(lp4239
I00
asbasbasbag68
(g84
g70
NtRp4240
(dp4241
g73
(dp4242
sg82
g4211
sg75
(lp4243
g68
(g89
g70
NtRp4244
(dp4245
g73
(dp4246
sg82
g4240
sg75
(lp4247
g68
(g69
g70
NtRp4248
(dp4249
g73
(dp4250
g81
I1
ssg82
g4244
sg75
(lp4251
Nasbasbasbag68
(g84
g70
NtRp4252
(dp4253
g73
(dp4254
sg82
g4211
sg75
(lp4255
g68
(g89
g70
NtRp4256
(dp4257
g73
(dp4258
sg82
g4252
sg75
(lp4259
g68
(g69
g70
NtRp4260
(dp4261
g73
(dp4262
g81
I1
ssg82
g4256
sg75
(lp4263
(lp4264
(g3727
(S's\x06\x00\x00\x00Groups'
tRp4265
I00
S'http://www.web2py.com/examples/default/usergroups'
p4266
tp4267
a(g3727
(S's\x07\x00\x00\x00Twitter'
tRp4268
I00
S'http://twitter.com/web2py'
p4269
tp4270
a(g3727
(S's\t\x00\x00\x00Live Chat'
tRp4271
I00
S'http://webchat.freenode.net/?channels=web2py'
p4272
tp4273
aasbasbasbasbasbasbasbag68
(g84
g70
NtRp4274
(dp4275
g73
(dp4276
sg82
g3841
sg75
(lp4277
g68
(g89
g70
NtRp4278
(dp4279
g73
(dp4280
sg82
g4274
sg75
(lp4281
g68
(g69
g70
NtRp4282
(dp4283
g73
(dp4284
g81
I2
ssg82
g4278
sg75
(lp4285
g68
(g77
g70
NtRp4286
(dp4287
g73
(dp4288
g81
I1
ssg82
Nsg75
(lp4289
g68
(g84
g70
NtRp4290
(dp4291
g73
(dp4292
sg82
g4286
sg75
(lp4293
g68
(g89
g70
NtRp4294
(dp4295
g73
(dp4296
sg82
g4290
sg75
(lp4297
g68
(g69
g70
NtRp4298
(dp4299
g73
(dp4300
g81
I1
ssg82
g4294
sg75
(lp4301
g3727
(S's\x07\x00\x00\x00Plugins'
tRp4302
asbasbasbag68
(g84
g70
NtRp4303
(dp4304
g73
(dp4305
sg82
g4286
sg75
(lp4306
g68
(g89
g70
NtRp4307
(dp4308
g73
(dp4309
sg82
g4303
sg75
(lp4310
g68
(g69
g70
NtRp4311
(dp4312
g73
(dp4313
g81
I1
ssg82
g4307
sg75
(lp4314
I00
asbasbasbag68
(g84
g70
NtRp4315
(dp4316
g73
(dp4317
sg82
g4286
sg75
(lp4318
g68
(g89
g70
NtRp4319
(dp4320
g73
(dp4321
sg82
g4315
sg75
(lp4322
g68
(g69
g70
NtRp4323
(dp4324
g73
(dp4325
g81
I1
ssg82
g4319
sg75
(lp4326
Nasbasbasbag68
(g84
g70
NtRp4327
(dp4328
g73
(dp4329
sg82
g4286
sg75
(lp4330
g68
(g89
g70
NtRp4331
(dp4332
g73
(dp4333
sg82
g4327
sg75
(lp4334
g68
(g69
g70
NtRp4335
(dp4336
g73
(dp4337
g81
I1
ssg82
g4331
sg75
(lp4338
(lp4339
(S'plugin_wiki'
p4340
I00
S'http://web2py.com/examples/default/download'
p4341
tp4342
a(g3727
(S's\r\x00\x00\x00Other Plugins'
tRp4343
I00
g4073
tp4344
a(g3727
(S's\x0e\x00\x00\x00Layout Plugins'
tRp4345
I00
g4076
tp4346
aasbasbasbasbasbasbasbasbasbasbasbasbasbasbasbasbasbasbasbag68
(g84
g70
NtRp4347
(dp4348
g73
(dp4349
sg82
g3171
sg75
(lp4350
g68
(g89
g70
NtRp4351
(dp4352
g73
(dp4353
g93
g94
ssg82
g4347
sg75
(lp4354
S'meta'
p4355
asbag68
(g89
g70
NtRp4356
(dp4357
g73
(dp4358
g100
g101
ssg82
g4347
sg75
(lp4359
S':'
asbag68
(g89
g70
NtRp4360
(dp4361
g73
(dp4362
sg82
g4347
sg75
(lp4363
g68
(g69
g70
NtRp4364
(dp4365
g73
(dp4366
g81
I5
ssg82
g4360
sg75
(lp4367
g68
(g77
g70
NtRp4368
(dp4369
g73
(dp4370
g81
I4
ssg82
Nsg75
(lp4371
g68
(g84
g70
NtRp4372
(dp4373
g73
(dp4374
sg82
g4368
sg75
(lp4375
g68
(g89
g70
NtRp4376
(dp4377
g73
(dp4378
g93
g94
ssg82
g4372
sg75
(lp4379
S'author'
p4380
asbag68
(g89
g70
NtRp4381
(dp4382
g73
(dp4383
g100
g101
ssg82
g4372
sg75
(lp4384
S':'
asbag68
(g89
g70
NtRp4385
(dp4386
g73
(dp4387
sg82
g4372
sg75
(lp4388
g68
(g69
g70
NtRp4389
(dp4390
g73
(dp4391
g81
I4
ssg82
g4385
sg75
(lp4392
S'Your Name <you@example.com>'
p4393
asbasbasbag68
(g84
g70
NtRp4394
(dp4395
g73
(dp4396
sg82
g4368
sg75
(lp4397
g68
(g89
g70
NtRp4398
(dp4399
g73
(dp4400
g93
g94
ssg82
g4394
sg75
(lp4401
S'copyright'
p4402
asbag68
(g89
g70
NtRp4403
(dp4404
g73
(dp4405
g100
g101
ssg82
g4394
sg75
(lp4406
S':'
asbag68
(g89
g70
NtRp4407
(dp4408
g73
(dp4409
sg82
g4394
sg75
(lp4410
g68
(g69
g70
NtRp4411
(dp4412
g73
(dp4413
g81
I4
ssg82
g4407
sg75
(lp4414
S'Copyright 2011'
p4415
asbasbasbag68
(g84
g70
NtRp4416
(dp4417
g73
(dp4418
sg82
g4368
sg75
(lp4419
g68
(g89
g70
NtRp4420
(dp4421
g73
(dp4422
g93
g94
ssg82
g4416
sg75
(lp4423
S'description'
p4424
asbag68
(g89
g70
NtRp4425
(dp4426
g73
(dp4427
g100
g101
ssg82
g4416
sg75
(lp4428
S':'
asbag68
(g89
g70
NtRp4429
(dp4430
g73
(dp4431
sg82
g4416
sg75
(lp4432
g68
(g69
g70
NtRp4433
(dp4434
g73
(dp4435
g81
I4
ssg82
g4429
sg75
(lp4436
S'a cool new app'
p4437
asbasbasbag68
(g84
g70
NtRp4438
(dp4439
g73
(dp4440
sg82
g4368
sg75
(lp4441
g68
(g89
g70
NtRp4442
(dp4443
g73
(dp4444
g93
g94
ssg82
g4438
sg75
(lp4445
S'generator'
p4446
asbag68
(g89
g70
NtRp4447
(dp4448
g73
(dp4449
g100
g101
ssg82
g4438
sg75
(lp4450
S':'
asbag68
(g89
g70
NtRp4451
(dp4452
g73
(dp4453
sg82
g4438
sg75
(lp4454
g68
(g69
g70
NtRp4455
(dp4456
g73
(dp4457
g81
I4
ssg82
g4451
sg75
(lp4458
S'Web2py Web Framework'
p4459
asbasbasbag68
(g84
g70
NtRp4460
(dp4461
g73
(dp4462
sg82
g4368
sg75
(lp4463
g68
(g89
g70
NtRp4464
(dp4465
g73
(dp4466
g93
g94
ssg82
g4460
sg75
(lp4467
S'keywords'
p4468
asbag68
(g89
g70
NtRp4469
(dp4470
g73
(dp4471
g100
g101
ssg82
g4460
sg75
(lp4472
S':'
asbag68
(g89
g70
NtRp4473
(dp4474
g73
(dp4475
sg82
g4460
sg75
(lp4476
g68
(g69
g70
NtRp4477
(dp4478
g73
(dp4479
g81
I4
ssg82
g4473
sg75
(lp4480
S'web2py, python, framework'
p4481
asbasbasbasbasbasbasbag68
(g84
g70
NtRp4482
(dp4483
g73
(dp4484
sg82
g3171
sg75
(lp4485
g68
(g89
g70
NtRp4486
(dp4487
g73
(dp4488
g93
g94
ssg82
g4482
sg75
(lp4489
S'postprocessing'
p4490
asbag68
(g89
g70
NtRp4491
(dp4492
g73
(dp4493
g100
g101
ssg82
g4482
sg75
(lp4494
S':'
asbag68
(g89
g70
NtRp4495
(dp4496
g73
(dp4497
sg82
g4482
sg75
(lp4498
g68
(g69
g70
NtRp4499
(dp4500
g73
(dp4501
g81
I5
ssg82
g4495
sg75
(lp4502
g68
(g77
g70
NtRp4503
(dp4504
g73
(dp4505
g81
I4
ssg82
Nsg75
(lp4506
sbasbasbasbag68
(g84
g70
NtRp4507
(dp4508
g73
(dp4509
sg82
g3171
sg75
(lp4510
g68
(g89
g70
NtRp4511
(dp4512
g73
(dp4513
g93
g94
ssg82
g4507
sg75
(lp4514
S'session_file'
p4515
asbag68
(g89
g70
NtRp4516
(dp4517
g73
(dp4518
g100
g101
ssg82
g4507
sg75
(lp4519
S':'
asbag68
(g89
g70
NtRp4520
(dp4521
g73
(dp4522
sg82
g4507
sg75
(lp4523
g68
(g69
g70
NtRp4524
(dp4525
g73
(dp4526
g81
I5
ssg82
g4520
sg75
(lp4527
S"<open file '/home/famihug/Apps/web2py/applications/test/sessions/127.0.0.1-e5cc216d-0463-4fe8-aefc-620a5f131d3a', mode 'rb+' at 0x987ef98>"
p4528
asbasbasbag68
(g84
g70
NtRp4529
(dp4530
g73
(dp4531
sg82
g3171
sg75
(lp4532
g68
(g89
g70
NtRp4533
(dp4534
g73
(dp4535
g93
g94
ssg82
g4529
sg75
(lp4536
S'session_filename'
p4537
asbag68
(g89
g70
NtRp4538
(dp4539
g73
(dp4540
g100
g101
ssg82
g4529
sg75
(lp4541
S':'
asbag68
(g89
g70
NtRp4542
(dp4543
g73
(dp4544
sg82
g4529
sg75
(lp4545
g68
(g69
g70
NtRp4546
(dp4547
g73
(dp4548
g81
I5
ssg82
g4542
sg75
(lp4549
S'/home/famihug/Apps/web2py/applications/test/sessions/127.0.0.1-e5cc216d-0463-4fe8-aefc-620a5f131d3a'
p4550
asbasbasbag68
(g84
g70
NtRp4551
(dp4552
g73
(dp4553
sg82
g3171
sg75
(lp4554
g68
(g89
g70
NtRp4555
(dp4556
g73
(dp4557
g93
g94
ssg82
g4551
sg75
(lp4558
S'session_id'
p4559
asbag68
(g89
g70
NtRp4560
(dp4561
g73
(dp4562
g100
g101
ssg82
g4551
sg75
(lp4563
S':'
asbag68
(g89
g70
NtRp4564
(dp4565
g73
(dp4566
sg82
g4551
sg75
(lp4567
g68
(g69
g70
NtRp4568
(dp4569
g73
(dp4570
g81
I5
ssg82
g4564
sg75
(lp4571
S'127.0.0.1-e5cc216d-0463-4fe8-aefc-620a5f131d3a'
p4572
asbasbasbag68
(g84
g70
NtRp4573
(dp4574
g73
(dp4575
sg82
g3171
sg75
(lp4576
g68
(g89
g70
NtRp4577
(dp4578
g73
(dp4579
g93
g94
ssg82
g4573
sg75
(lp4580
S'session_id_name'
p4581
asbag68
(g89
g70
NtRp4582
(dp4583
g73
(dp4584
g100
g101
ssg82
g4573
sg75
(lp4585
S':'
asbag68
(g89
g70
NtRp4586
(dp4587
g73
(dp4588
sg82
g4573
sg75
(lp4589
g68
(g69
g70
NtRp4590
(dp4591
g73
(dp4592
g81
I5
ssg82
g4586
sg75
(lp4593
g3228
asbasbasbag68
(g84
g70
NtRp4594
(dp4595
g73
(dp4596
sg82
g3171
sg75
(lp4597
g68
(g89
g70
NtRp4598
(dp4599
g73
(dp4600
g93
g94
ssg82
g4594
sg75
(lp4601
S'session_locked'
p4602
asbag68
(g89
g70
NtRp4603
(dp4604
g73
(dp4605
g100
g101
ssg82
g4594
sg75
(lp4606
S':'
asbag68
(g89
g70
NtRp4607
(dp4608
g73
(dp4609
sg82
g4594
sg75
(lp4610
g68
(g69
g70
NtRp4611
(dp4612
g73
(dp4613
g81
I5
ssg82
g4607
sg75
(lp4614
g1460
asbasbasbag68
(g84
g70
NtRp4615
(dp4616
g73
(dp4617
sg82
g3171
sg75
(lp4618
g68
(g89
g70
NtRp4619
(dp4620
g73
(dp4621
g93
g94
ssg82
g4615
sg75
(lp4622
S'session_new'
p4623
asbag68
(g89
g70
NtRp4624
(dp4625
g73
(dp4626
g100
g101
ssg82
g4615
sg75
(lp4627
S':'
asbag68
(g89
g70
NtRp4628
(dp4629
g73
(dp4630
sg82
g4615
sg75
(lp4631
g68
(g69
g70
NtRp4632
(dp4633
g73
(dp4634
g81
I5
ssg82
g4628
sg75
(lp4635
g111
asbasbasbag68
(g84
g70
NtRp4636
(dp4637
g73
(dp4638
sg82
g3171
sg75
(lp4639
g68
(g89
g70
NtRp4640
(dp4641
g73
(dp4642
g93
g94
ssg82
g4636
sg75
(lp4643
S'status'
p4644
asbag68
(g89
g70
NtRp4645
(dp4646
g73
(dp4647
g100
g101
ssg82
g4636
sg75
(lp4648
S':'
asbag68
(g89
g70
NtRp4649
(dp4650
g73
(dp4651
sg82
g4636
sg75
(lp4652
g68
(g69
g70
NtRp4653
(dp4654
g73
(dp4655
g81
I5
ssg82
g4649
sg75
(lp4656
S'200'
p4657
asbasbasbag68
(g84
g70
NtRp4658
(dp4659
g73
(dp4660
sg82
g3171
sg75
(lp4661
g68
(g89
g70
NtRp4662
(dp4663
g73
(dp4664
g93
g94
ssg82
g4658
sg75
(lp4665
S'subtitle'
p4666
asbag68
(g89
g70
NtRp4667
(dp4668
g73
(dp4669
g100
g101
ssg82
g4658
sg75
(lp4670
S':'
asbag68
(g89
g70
NtRp4671
(dp4672
g73
(dp4673
sg82
g4658
sg75
(lp4674
g68
(g69
g70
NtRp4675
(dp4676
g73
(dp4677
g81
I5
ssg82
g4671
sg75
(lp4678
g3727
(S's\r\x00\x00\x00customize me!'
tRp4679
asbasbasbag68
(g84
g70
NtRp4680
(dp4681
g73
(dp4682
sg82
g3171
sg75
(lp4683
g68
(g89
g70
NtRp4684
(dp4685
g73
(dp4686
g93
g94
ssg82
g4680
sg75
(lp4687
S'title'
p4688
asbag68
(g89
g70
NtRp4689
(dp4690
g73
(dp4691
g100
g101
ssg82
g4680
sg75
(lp4692
S':'
asbag68
(g89
g70
NtRp4693
(dp4694
g73
(dp4695
sg82
g4680
sg75
(lp4696
g68
(g69
g70
NtRp4697
(dp4698
g73
(dp4699
g81
I5
ssg82
g4693
sg75
(lp4700
S'Test'
p4701
asbasbasbag68
(g84
g70
NtRp4702
(dp4703
g73
(dp4704
sg82
g3171
sg75
(lp4705
g68
(g89
g70
NtRp4706
(dp4707
g73
(dp4708
g93
g94
ssg82
g4702
sg75
(lp4709
g2124
asbag68
(g89
g70
NtRp4710
(dp4711
g73
(dp4712
g100
g101
ssg82
g4702
sg75
(lp4713
S':'
asbag68
(g89
g70
NtRp4714
(dp4715
g73
(dp4716
sg82
g4702
sg75
(lp4717
g68
(g69
g70
NtRp4718
(dp4719
g73
(dp4720
g81
I5
ssg82
g4714
sg75
(lp4721
g2137
asbasbasbag68
(g84
g70
NtRp4722
(dp4723
g73
(dp4724
sg82
g3171
sg75
(lp4725
g68
(g89
g70
NtRp4726
(dp4727
g73
(dp4728
g93
g94
ssg82
g4722
sg75
(lp4729
S'view'
p4730
asbag68
(g89
g70
NtRp4731
(dp4732
g73
(dp4733
g100
g101
ssg82
g4722
sg75
(lp4734
S':'
asbag68
(g89
g70
NtRp4735
(dp4736
g73
(dp4737
sg82
g4722
sg75
(lp4738
g68
(g69
g70
NtRp4739
(dp4740
g73
(dp4741
g81
I5
ssg82
g4735
sg75
(lp4742
S'default/index.html'
p4743
asbasbasbasbasbsS'locals'
p4744
(dp4745
g4
S"'/home/famihug/Apps/web2py/applications/test/controllers/default.py'"
p4746
sg6
S'\'# -*- coding: utf-8 -*-\\n# this file is released ...age.db")\\n\\nresponse._vars=response._caller(index)\\n\''
p4747
sssS'traceback'
p4748
S'Traceback (most recent call last):\n  File "/home/famihug/Apps/web2py/gluon/restricted.py", line 204, in restricted\n    ccode = compile2(code,layer)\n  File "/home/famihug/Apps/web2py/gluon/restricted.py", line 189, in compile2\n    return compile(code.rstrip().replace(\'\\r\\n\',\'\\n\')+\'\\n\', layer, \'exec\')\n  File "/home/famihug/Apps/web2py/applications/test/controllers/default.py", line 18\n    tasks = db(db.tasks).select(orderby=db.tasks.priority)\n   ^\nIndentationError: unexpected indent\n'
p4749
s.