(dp1
S'output'
p2
S''
sS'layer'
p3
S'Framework'
p4
sS'code'
p5
S''
sS'snapshot'
p6
(dp7
sS'traceback'
p8
S'Traceback (most recent call last):\n  File "/home/famihug/Apps/web2py/gluon/main.py", line 498, in wsgibase\n    serve_controller(request, response, session)\n  File "/home/famihug/Apps/web2py/gluon/main.py", line 207, in serve_controller\n    run_view_in(response._view_environment)\n  File "/home/famihug/Apps/web2py/gluon/compileapp.py", line 643, in run_view_in\n    context=environment)\n  File "/home/famihug/Apps/web2py/gluon/template.py", line 826, in parse_template\n    return str(TemplateParser(text, context=context, path=path, lexers=lexers, delimiters=delimiters))\n  File "/home/famihug/Apps/web2py/gluon/template.py", line 332, in __str__\n    return self.to_string()\n  File "/home/famihug/Apps/web2py/gluon/template.py", line 328, in to_string\n    return self.reindent(str(self.content))\n  File "/home/famihug/Apps/web2py/gluon/template.py", line 172, in __str__\n    lines.append(self.blocks[node.name].output(self.blocks))\n  File "/home/famihug/Apps/web2py/gluon/template.py", line 136, in output\n    lines.append(blocks[node.name].output(blocks))\n  File "/home/famihug/Apps/web2py/gluon/template.py", line 136, in output\n    lines.append(blocks[node.name].output(blocks))\n  File "/home/famihug/Apps/web2py/gluon/template.py", line 136, in output\n    lines.append(blocks[node.name].output(blocks))\n  File "/home/famihug/Apps/web2py/gluon/template.py", line 136, in output\n    lines.append(blocks[node.name].output(blocks))\n  File "/home/famihug/Apps/web2py/gluon/template.py", line 136, in output\n    lines.append(blocks[node.name].output(blocks))\n  File "/home/famihug/Apps/web2py/gluon/template.py", line 136, in output\n    lines.append(blocks[node.name].output(blocks))\n  File "/home/famihug/Apps/web2py/gluon/template.py", line 136, in output\n    lines.append(blocks[node.name].output(blocks))\n  File "/home/famihug/Apps/web2py/gluon/template.py", line 136, in output\n    lines.append(blocks[node.name].output(blocks))\n  File "/home/famihug/Apps/web2py/gluon/template.py", line 136, in output\n    lines.append(blocks[node.name].output(blocks))\n  File "/home/famihug/Apps/web2py/gluon/template.py", line 136, in output\n    lines.append(blocks[node.name].output(blocks))\n  File "/home/famihug/Apps/web2py/gluon/template.py", line 136, in output\n    lines.append(blocks[node.name].output(blocks))\n  File "/home/famihug/Apps/web2py/gluon/template.py", line 136, in output\n    lines.append(blocks[node.name].output(blocks))\n  File "/home/famihug/Apps/web2py/gluon/template.py", line 136, in output\n    lines.append(blocks[node.name].output(blocks))\n  File "/home/famihug/Apps/web2py/gluon/template.py", line 136, in output\n    lines.append(blocks[node.name].output(blocks))\n  File "/home/famihug/Apps/web2py/gluon/template.py", line 136, in output\n    lines.append(blocks[node.name].output(blocks))\n  File "/home/famihug/Apps/web2py/gluon/template.py", line 136, in output\n    lines.append(blocks[node.name].output(blocks))\n  File "/home/famihug/Apps/web2py/gluon/template.py", line 136, in output\n    lines.append(blocks[node.name].output(blocks))\n  File "/home/famihug/Apps/web2py/gluon/template.py", line 136, in output\n    lines.append(blocks[node.name].output(blocks))\n  File "/home/famihug/Apps/web2py/gluon/template.py", line 136, in output\n    lines.append(blocks[node.name].output(blocks))\n  File "/home/famihug/Apps/web2py/gluon/template.py", line 136, in output\n    lines.append(blocks[node.name].output(blocks))\n  File "/home/famihug/Apps/web2py/gluon/template.py", line 136, in output\n    lines.append(blocks[node.name].output(blocks))\n  File "/home/famihug/Apps/web2py/gluon/template.py", line 136, in output\n    lines.append(blocks[node.name].output(blocks))\n  File "/home/famihug/Apps/web2py/gluon/template.py", line 136, in output\n    lines.append(blocks[node.name].output(blocks))\n  File "/home/famihug/Apps/web2py/gluon/template.py", line 136, in output\n    lines.append(blocks[node.name].output(blocks))\n  File "/home/famihug/Apps/web2py/gluon/template.py", line 136, in output\n    lines.append(blocks[node.name].output(blocks))\n  File "/home/famihug/Apps/web2py/gluon/template.py", line 136, in output\n    lines.append(blocks[node.name].output(blocks))\n  File "/home/famihug/Apps/web2py/gluon/template.py", line 136, in output\n    lines.append(blocks[node.name].output(blocks))\n  File "/home/famihug/Apps/web2py/gluon/template.py", line 136, in output\n    lines.append(blocks[node.name].output(blocks))\n  File "/home/famihug/Apps/web2py/gluon/template.py", line 136, in output\n    lines.append(blocks[node.name].output(blocks))\n  File "/home/famihug/Apps/web2py/gluon/template.py", line 136, in output\n    lines.append(blocks[node.name].output(blocks))\n  File "/home/famihug/Apps/web2py/gluon/template.py", line 136, in output\n    lines.append(blocks[node.name].output(blocks))\n  File "/home/famihug/Apps/web2py/gluon/template.py", line 136, in output\n    lines.append(blocks[node.name].output(blocks))\n  File "/home/famihug/Apps/web2py/gluon/template.py", line 136, in output\n    lines.append(blocks[node.name].output(blocks))\n  File "/home/famihug/Apps/web2py/gluon/template.py", line 136, in output\n    lines.append(blocks[node.name].output(blocks))\n  File "/home/famihug/Apps/web2py/gluon/template.py", line 136, in output\n    lines.append(blocks[node.name].output(blocks))\n  File "/home/famihug/Apps/web2py/gluon/template.py", line 136, in output\n    lines.append(blocks[node.name].output(blocks))\n  File "/home/famihug/Apps/web2py/gluon/template.py", line 136, in output\n    lines.append(blocks[node.name].output(blocks))\n  File "/home/famihug/Apps/web2py/gluon/template.py", line 136, in output\n    lines.append(blocks[node.name].output(blocks))\n  File "/home/famihug/Apps/web2py/gluon/template.py", line 136, in output\n    lines.append(blocks[node.name].output(blocks))\n  File "/home/famihug/Apps/web2py/gluon/template.py", line 136, in output\n    lines.append(blocks[node.name].output(blocks))\n  File "/home/famihug/Apps/web2py/gluon/template.py", line 136, in output\n    lines.append(blocks[node.name].output(blocks))\n  File "/home/famihug/Apps/web2py/gluon/template.py", line 136, in output\n    lines.append(blocks[node.name].output(blocks))\n  File "/home/famihug/Apps/web2py/gluon/template.py", line 136, in output\n    lines.append(blocks[node.name].output(blocks))\n  File "/home/famihug/Apps/web2py/gluon/template.py", line 136, in output\n    lines.append(blocks[node.name].output(blocks))\n  File "/home/famihug/Apps/web2py/gluon/template.py", line 136, in output\n    lines.append(blocks[node.name].output(blocks))\n  File "/home/famihug/Apps/web2py/gluon/template.py", line 136, in output\n    lines.append(blocks[node.name].output(blocks))\n  File "/home/famihug/Apps/web2py/gluon/template.py", line 136, in output\n    lines.append(blocks[node.name].output(blocks))\n  File "/home/famihug/Apps/web2py/gluon/template.py", line 136, in output\n    lines.append(blocks[node.name].output(blocks))\n  File "/home/famihug/Apps/web2py/gluon/template.py", line 136, in output\n    lines.append(blocks[node.name].output(blocks))\n  File "/home/famihug/Apps/web2py/gluon/template.py", line 136, in output\n    lines.append(blocks[node.name].output(blocks))\n  File "/home/famihug/Apps/web2py/gluon/template.py", line 136, in output\n    lines.append(blocks[node.name].output(blocks))\n  File "/home/famihug/Apps/web2py/gluon/template.py", line 136, in output\n    lines.append(blocks[node.name].output(blocks))\n  File "/home/famihug/Apps/web2py/gluon/template.py", line 136, in output\n    lines.append(blocks[node.name].output(blocks))\n  File "/home/famihug/Apps/web2py/gluon/template.py", line 136, in output\n    lines.append(blocks[node.name].output(blocks))\n  File "/home/famihug/Apps/web2py/gluon/template.py", line 136, in output\n    lines.append(blocks[node.name].output(blocks))\n  File "/home/famihug/Apps/web2py/gluon/template.py", line 136, in output\n    lines.append(blocks[node.name].output(blocks))\n  File "/home/famihug/Apps/web2py/gluon/template.py", line 136, in output\n    lines.append(blocks[node.name].output(blocks))\n  File "/home/famihug/Apps/web2py/gluon/template.py", line 136, in output\n    lines.append(blocks[node.name].output(blocks))\n  File "/home/famihug/Apps/web2py/gluon/template.py", line 136, in output\n    lines.append(blocks[node.name].output(blocks))\n  File "/home/famihug/Apps/web2py/gluon/template.py", line 136, in output\n    lines.append(blocks[node.name].output(blocks))\n  File "/home/famihug/Apps/web2py/gluon/template.py", line 136, in output\n    lines.append(blocks[node.name].output(blocks))\n  File "/home/famihug/Apps/web2py/gluon/template.py", line 136, in output\n    lines.append(blocks[node.name].output(blocks))\n  File "/home/famihug/Apps/web2py/gluon/template.py", line 136, in output\n    lines.append(blocks[node.name].output(blocks))\n  File "/home/famihug/Apps/web2py/gluon/template.py", line 136, in output\n    lines.append(blocks[node.name].output(blocks))\n  File "/home/famihug/Apps/web2py/gluon/template.py", line 136, in output\n    lines.append(blocks[node.name].output(blocks))\n  File "/home/famihug/Apps/web2py/gluon/template.py", line 136, in output\n    lines.append(blocks[node.name].output(blocks))\n  File "/home/famihug/Apps/web2py/gluon/template.py", line 136, in output\n    lines.append(blocks[node.name].output(blocks))\n  File "/home/famihug/Apps/web2py/gluon/template.py", line 136, in output\n    lines.append(blocks[node.name].output(blocks))\n  File "/home/famihug/Apps/web2py/gluon/template.py", line 136, in output\n    lines.append(blocks[node.name].output(blocks))\n  File "/home/famihug/Apps/web2py/gluon/template.py", line 136, in output\n    lines.append(blocks[node.name].output(blocks))\n  File "/home/famihug/Apps/web2py/gluon/template.py", line 136, in output\n    lines.append(blocks[node.name].output(blocks))\n  File "/home/famihug/Apps/web2py/gluon/template.py", line 136, in output\n    lines.append(blocks[node.name].output(blocks))\n  File "/home/famihug/Apps/web2py/gluon/template.py", line 136, in output\n    lines.append(blocks[node.name].output(blocks))\n  File "/home/famihug/Apps/web2py/gluon/template.py", line 136, in output\n    lines.append(blocks[node.name].output(blocks))\n  File "/home/famihug/Apps/web2py/gluon/template.py", line 136, in output\n    lines.append(blocks[node.name].output(blocks))\n  File "/home/famihug/Apps/web2py/gluon/template.py", line 136, in output\n    lines.append(blocks[node.name].output(blocks))\n  File "/home/famihug/Apps/web2py/gluon/template.py", line 136, in output\n    lines.append(blocks[node.name].output(blocks))\n  File "/home/famihug/Apps/web2py/gluon/template.py", line 136, in output\n    lines.append(blocks[node.name].output(blocks))\n  File "/home/famihug/Apps/web2py/gluon/template.py", line 136, in output\n    lines.append(blocks[node.name].output(blocks))\n  File "/home/famihug/Apps/web2py/gluon/template.py", line 136, in output\n    lines.append(blocks[node.name].output(blocks))\n  File "/home/famihug/Apps/web2py/gluon/template.py", line 136, in output\n    lines.append(blocks[node.name].output(blocks))\n  File "/home/famihug/Apps/web2py/gluon/template.py", line 136, in output\n    lines.append(blocks[node.name].output(blocks))\n  File "/home/famihug/Apps/web2py/gluon/template.py", line 136, in output\n    lines.append(blocks[node.name].output(blocks))\n  File "/home/famihug/Apps/web2py/gluon/template.py", line 136, in output\n    lines.append(blocks[node.name].output(blocks))\n  File "/home/famihug/Apps/web2py/gluon/template.py", line 136, in output\n    lines.append(blocks[node.name].output(blocks))\n  File "/home/famihug/Apps/web2py/gluon/template.py", line 136, in output\n    lines.append(blocks[node.name].output(blocks))\n  File "/home/famihug/Apps/web2py/gluon/template.py", line 136, in output\n    lines.append(blocks[node.name].output(blocks))\n  File "/home/famihug/Apps/web2py/gluon/template.py", line 136, in output\n    lines.append(blocks[node.name].output(blocks))\n  File "/home/famihug/Apps/web2py/gluon/template.py", line 136, in output\n    lines.append(blocks[node.name].output(blocks))\n  File "/home/famihug/Apps/web2py/gluon/template.py", line 136, in output\n    lines.append(blocks[node.name].output(blocks))\n  File "/home/famihug/Apps/web2py/gluon/template.py", line 136, in output\n    lines.append(blocks[node.name].output(blocks))\n  File "/home/famihug/Apps/web2py/gluon/template.py", line 136, in output\n    lines.append(blocks[node.name].output(blocks))\n  File "/home/famihug/Apps/web2py/gluon/template.py", line 136, in output\n    lines.append(blocks[node.name].output(blocks))\n  File "/home/famihug/Apps/web2py/gluon/template.py", line 136, in output\n    lines.append(blocks[node.name].output(blocks))\n  File "/home/famihug/Apps/web2py/gluon/template.py", line 136, in output\n    lines.append(blocks[node.name].output(blocks))\n  File "/home/famihug/Apps/web2py/gluon/template.py", line 136, in output\n    lines.append(blocks[node.name].output(blocks))\n  File "/home/famihug/Apps/web2py/gluon/template.py", line 136, in output\n    lines.append(blocks[node.name].output(blocks))\n  File "/home/famihug/Apps/web2py/gluon/template.py", line 136, in output\n    lines.append(blocks[node.name].output(blocks))\n  File "/home/famihug/Apps/web2py/gluon/template.py", line 136, in output\n    lines.append(blocks[node.name].output(blocks))\n  File "/home/famihug/Apps/web2py/gluon/template.py", line 136, in output\n    lines.append(blocks[node.name].output(blocks))\n  File "/home/famihug/Apps/web2py/gluon/template.py", line 136, in output\n    lines.append(blocks[node.name].output(blocks))\n  File "/home/famihug/Apps/web2py/gluon/template.py", line 136, in output\n    lines.append(blocks[node.name].output(blocks))\n  File "/home/famihug/Apps/web2py/gluon/template.py", line 136, in output\n    lines.append(blocks[node.name].output(blocks))\n  File "/home/famihug/Apps/web2py/gluon/template.py", line 136, in output\n    lines.append(blocks[node.name].output(blocks))\n  File "/home/famihug/Apps/web2py/gluon/template.py", line 136, in output\n    lines.append(blocks[node.name].output(blocks))\n  File "/home/famihug/Apps/web2py/gluon/template.py", line 136, in output\n    lines.append(blocks[node.name].output(blocks))\n  File "/home/famihug/Apps/web2py/gluon/template.py", line 136, in output\n    lines.append(blocks[node.name].output(blocks))\n  File "/home/famihug/Apps/web2py/gluon/template.py", line 136, in output\n    lines.append(blocks[node.name].output(blocks))\n  File "/home/famihug/Apps/web2py/gluon/template.py", line 136, in output\n    lines.append(blocks[node.name].output(blocks))\n  File "/home/famihug/Apps/web2py/gluon/template.py", line 136, in output\n    lines.append(blocks[node.name].output(blocks))\n  File "/home/famihug/Apps/web2py/gluon/template.py", line 136, in output\n    lines.append(blocks[node.name].output(blocks))\n  File "/home/famihug/Apps/web2py/gluon/template.py", line 136, in output\n    lines.append(blocks[node.name].output(blocks))\n  File "/home/famihug/Apps/web2py/gluon/template.py", line 136, in output\n    lines.append(blocks[node.name].output(blocks))\n  File "/home/famihug/Apps/web2py/gluon/template.py", line 136, in output\n    lines.append(blocks[node.name].output(blocks))\n  File "/home/famihug/Apps/web2py/gluon/template.py", line 136, in output\n    lines.append(blocks[node.name].output(blocks))\n  File "/home/famihug/Apps/web2py/gluon/template.py", line 136, in output\n    lines.append(blocks[node.name].output(blocks))\n  File "/home/famihug/Apps/web2py/gluon/template.py", line 136, in output\n    lines.append(blocks[node.name].output(blocks))\n  File "/home/famihug/Apps/web2py/gluon/template.py", line 136, in output\n    lines.append(blocks[node.name].output(blocks))\n  File "/home/famihug/Apps/web2py/gluon/template.py", line 136, in output\n    lines.append(blocks[node.name].output(blocks))\n  File "/home/famihug/Apps/web2py/gluon/template.py", line 136, in output\n    lines.append(blocks[node.name].output(blocks))\n  File "/home/famihug/Apps/web2py/gluon/template.py", line 136, in output\n    lines.append(blocks[node.name].output(blocks))\n  File "/home/famihug/Apps/web2py/gluon/template.py", line 136, in output\n    lines.append(blocks[node.name].output(blocks))\n  File "/home/famihug/Apps/web2py/gluon/template.py", line 136, in output\n    lines.append(blocks[node.name].output(blocks))\n  File "/home/famihug/Apps/web2py/gluon/template.py", line 136, in output\n    lines.append(blocks[node.name].output(blocks))\n  File "/home/famihug/Apps/web2py/gluon/template.py", line 136, in output\n    lines.append(blocks[node.name].output(blocks))\n  File "/home/famihug/Apps/web2py/gluon/template.py", line 136, in output\n    lines.append(blocks[node.name].output(blocks))\n  File "/home/famihug/Apps/web2py/gluon/template.py", line 136, in output\n    lines.append(blocks[node.name].output(blocks))\n  File "/home/famihug/Apps/web2py/gluon/template.py", line 136, in output\n    lines.append(blocks[node.name].output(blocks))\n  File "/home/famihug/Apps/web2py/gluon/template.py", line 136, in output\n    lines.append(blocks[node.name].output(blocks))\n  File "/home/famihug/Apps/web2py/gluon/template.py", line 136, in output\n    lines.append(blocks[node.name].output(blocks))\n  File "/home/famihug/Apps/web2py/gluon/template.py", line 136, in output\n    lines.append(blocks[node.name].output(blocks))\n  File "/home/famihug/Apps/web2py/gluon/template.py", line 136, in output\n    lines.append(blocks[node.name].output(blocks))\n  File "/home/famihug/Apps/web2py/gluon/template.py", line 136, in output\n    lines.append(blocks[node.name].output(blocks))\n  File "/home/famihug/Apps/web2py/gluon/template.py", line 136, in output\n    lines.append(blocks[node.name].output(blocks))\n  File "/home/famihug/Apps/web2py/gluon/template.py", line 136, in output\n    lines.append(blocks[node.name].output(blocks))\n  File "/home/famihug/Apps/web2py/gluon/template.py", line 136, in output\n    lines.append(blocks[node.name].output(blocks))\n  File "/home/famihug/Apps/web2py/gluon/template.py", line 136, in output\n    lines.append(blocks[node.name].output(blocks))\n  File "/home/famihug/Apps/web2py/gluon/template.py", line 136, in output\n    lines.append(blocks[node.name].output(blocks))\n  File "/home/famihug/Apps/web2py/gluon/template.py", line 136, in output\n    lines.append(blocks[node.name].output(blocks))\n  File "/home/famihug/Apps/web2py/gluon/template.py", line 136, in output\n    lines.append(blocks[node.name].output(blocks))\n  File "/home/famihug/Apps/web2py/gluon/template.py", line 136, in output\n    lines.append(blocks[node.name].output(blocks))\n  File "/home/famihug/Apps/web2py/gluon/template.py", line 136, in output\n    lines.append(blocks[node.name].output(blocks))\n  File "/home/famihug/Apps/web2py/gluon/template.py", line 136, in output\n    lines.append(blocks[node.name].output(blocks))\n  File "/home/famihug/Apps/web2py/gluon/template.py", line 136, in output\n    lines.append(blocks[node.name].output(blocks))\n  File "/home/famihug/Apps/web2py/gluon/template.py", line 136, in output\n    lines.append(blocks[node.name].output(blocks))\n  File "/home/famihug/Apps/web2py/gluon/template.py", line 136, in output\n    lines.append(blocks[node.name].output(blocks))\n  File "/home/famihug/Apps/web2py/gluon/template.py", line 136, in output\n    lines.append(blocks[node.name].output(blocks))\n  File "/home/famihug/Apps/web2py/gluon/template.py", line 136, in output\n    lines.append(blocks[node.name].output(blocks))\n  File "/home/famihug/Apps/web2py/gluon/template.py", line 136, in output\n    lines.append(blocks[node.name].output(blocks))\n  File "/home/famihug/Apps/web2py/gluon/template.py", line 136, in output\n    lines.append(blocks[node.name].output(blocks))\n  File "/home/famihug/Apps/web2py/gluon/template.py", line 136, in output\n    lines.append(blocks[node.name].output(blocks))\n  File "/home/famihug/Apps/web2py/gluon/template.py", line 136, in output\n    lines.append(blocks[node.name].output(blocks))\n  File "/home/famihug/Apps/web2py/gluon/template.py", line 136, in output\n    lines.append(blocks[node.name].output(blocks))\n  File "/home/famihug/Apps/web2py/gluon/template.py", line 136, in output\n    lines.append(blocks[node.name].output(blocks))\n  File "/home/famihug/Apps/web2py/gluon/template.py", line 136, in output\n    lines.append(blocks[node.name].output(blocks))\n  File "/home/famihug/Apps/web2py/gluon/template.py", line 136, in output\n    lines.append(blocks[node.name].output(blocks))\n  File "/home/famihug/Apps/web2py/gluon/template.py", line 136, in output\n    lines.append(blocks[node.name].output(blocks))\n  File "/home/famihug/Apps/web2py/gluon/template.py", line 136, in output\n    lines.append(blocks[node.name].output(blocks))\n  File "/home/famihug/Apps/web2py/gluon/template.py", line 136, in output\n    lines.append(blocks[node.name].output(blocks))\n  File "/home/famihug/Apps/web2py/gluon/template.py", line 136, in output\n    lines.append(blocks[node.name].output(blocks))\n  File "/home/famihug/Apps/web2py/gluon/template.py", line 136, in output\n    lines.append(blocks[node.name].output(blocks))\n  File "/home/famihug/Apps/web2py/gluon/template.py", line 136, in output\n    lines.append(blocks[node.name].output(blocks))\n  File "/home/famihug/Apps/web2py/gluon/template.py", line 136, in output\n    lines.append(blocks[node.name].output(blocks))\n  File "/home/famihug/Apps/web2py/gluon/template.py", line 136, in output\n    lines.append(blocks[node.name].output(blocks))\n  File "/home/famihug/Apps/web2py/gluon/template.py", line 136, in output\n    lines.append(blocks[node.name].output(blocks))\n  File "/home/famihug/Apps/web2py/gluon/template.py", line 136, in output\n    lines.append(blocks[node.name].output(blocks))\n  File "/home/famihug/Apps/web2py/gluon/template.py", line 136, in output\n    lines.append(blocks[node.name].output(blocks))\n  File "/home/famihug/Apps/web2py/gluon/template.py", line 136, in output\n    lines.append(blocks[node.name].output(blocks))\n  File "/home/famihug/Apps/web2py/gluon/template.py", line 136, in output\n    lines.append(blocks[node.name].output(blocks))\n  File "/home/famihug/Apps/web2py/gluon/template.py", line 136, in output\n    lines.append(blocks[node.name].output(blocks))\n  File "/home/famihug/Apps/web2py/gluon/template.py", line 136, in output\n    lines.append(blocks[node.name].output(blocks))\n  File "/home/famihug/Apps/web2py/gluon/template.py", line 136, in output\n    lines.append(blocks[node.name].output(blocks))\n  File "/home/famihug/Apps/web2py/gluon/template.py", line 136, in output\n    lines.append(blocks[node.name].output(blocks))\n  File "/home/famihug/Apps/web2py/gluon/template.py", line 136, in output\n    lines.append(blocks[node.name].output(blocks))\n  File "/home/famihug/Apps/web2py/gluon/template.py", line 136, in output\n    lines.append(blocks[node.name].output(blocks))\n  File "/home/famihug/Apps/web2py/gluon/template.py", line 136, in output\n    lines.append(blocks[node.name].output(blocks))\n  File "/home/famihug/Apps/web2py/gluon/template.py", line 136, in output\n    lines.append(blocks[node.name].output(blocks))\n  File "/home/famihug/Apps/web2py/gluon/template.py", line 136, in output\n    lines.append(blocks[node.name].output(blocks))\n  File "/home/famihug/Apps/web2py/gluon/template.py", line 136, in output\n    lines.append(blocks[node.name].output(blocks))\n  File "/home/famihug/Apps/web2py/gluon/template.py", line 136, in output\n    lines.append(blocks[node.name].output(blocks))\n  File "/home/famihug/Apps/web2py/gluon/template.py", line 136, in output\n    lines.append(blocks[node.name].output(blocks))\n  File "/home/famihug/Apps/web2py/gluon/template.py", line 136, in output\n    lines.append(blocks[node.name].output(blocks))\n  File "/home/famihug/Apps/web2py/gluon/template.py", line 136, in output\n    lines.append(blocks[node.name].output(blocks))\n  File "/home/famihug/Apps/web2py/gluon/template.py", line 136, in output\n    lines.append(blocks[node.name].output(blocks))\n  File "/home/famihug/Apps/web2py/gluon/template.py", line 136, in output\n    lines.append(blocks[node.name].output(blocks))\n  File "/home/famihug/Apps/web2py/gluon/template.py", line 136, in output\n    lines.append(blocks[node.name].output(blocks))\n  File "/home/famihug/Apps/web2py/gluon/template.py", line 136, in output\n    lines.append(blocks[node.name].output(blocks))\n  File "/home/famihug/Apps/web2py/gluon/template.py", line 136, in output\n    lines.append(blocks[node.name].output(blocks))\n  File "/home/famihug/Apps/web2py/gluon/template.py", line 136, in output\n    lines.append(blocks[node.name].output(blocks))\n  File "/home/famihug/Apps/web2py/gluon/template.py", line 136, in output\n    lines.append(blocks[node.name].output(blocks))\n  File "/home/famihug/Apps/web2py/gluon/template.py", line 136, in output\n    lines.append(blocks[node.name].output(blocks))\n  File "/home/famihug/Apps/web2py/gluon/template.py", line 136, in output\n    lines.append(blocks[node.name].output(blocks))\n  File "/home/famihug/Apps/web2py/gluon/template.py", line 136, in output\n    lines.append(blocks[node.name].output(blocks))\n  File "/home/famihug/Apps/web2py/gluon/template.py", line 136, in output\n    lines.append(blocks[node.name].output(blocks))\n  File "/home/famihug/Apps/web2py/gluon/template.py", line 136, in output\n    lines.append(blocks[node.name].output(blocks))\n  File "/home/famihug/Apps/web2py/gluon/template.py", line 136, in output\n    lines.append(blocks[node.name].output(blocks))\n  File "/home/famihug/Apps/web2py/gluon/template.py", line 136, in output\n    lines.append(blocks[node.name].output(blocks))\n  File "/home/famihug/Apps/web2py/gluon/template.py", line 136, in output\n    lines.append(blocks[node.name].output(blocks))\n  File "/home/famihug/Apps/web2py/gluon/template.py", line 136, in output\n    lines.append(blocks[node.name].output(blocks))\n  File "/home/famihug/Apps/web2py/gluon/template.py", line 136, in output\n    lines.append(blocks[node.name].output(blocks))\n  File "/home/famihug/Apps/web2py/gluon/template.py", line 136, in output\n    lines.append(blocks[node.name].output(blocks))\n  File "/home/famihug/Apps/web2py/gluon/template.py", line 136, in output\n    lines.append(blocks[node.name].output(blocks))\n  File "/home/famihug/Apps/web2py/gluon/template.py", line 136, in output\n    lines.append(blocks[node.name].output(blocks))\n  File "/home/famihug/Apps/web2py/gluon/template.py", line 136, in output\n    lines.append(blocks[node.name].output(blocks))\n  File "/home/famihug/Apps/web2py/gluon/template.py", line 136, in output\n    lines.append(blocks[node.name].output(blocks))\n  File "/home/famihug/Apps/web2py/gluon/template.py", line 136, in output\n    lines.append(blocks[node.name].output(blocks))\n  File "/home/famihug/Apps/web2py/gluon/template.py", line 136, in output\n    lines.append(blocks[node.name].output(blocks))\n  File "/home/famihug/Apps/web2py/gluon/template.py", line 136, in output\n    lines.append(blocks[node.name].output(blocks))\n  File "/home/famihug/Apps/web2py/gluon/template.py", line 136, in output\n    lines.append(blocks[node.name].output(blocks))\n  File "/home/famihug/Apps/web2py/gluon/template.py", line 136, in output\n    lines.append(blocks[node.name].output(blocks))\n  File "/home/famihug/Apps/web2py/gluon/template.py", line 136, in output\n    lines.append(blocks[node.name].output(blocks))\n  File "/home/famihug/Apps/web2py/gluon/template.py", line 136, in output\n    lines.append(blocks[node.name].output(blocks))\n  File "/home/famihug/Apps/web2py/gluon/template.py", line 136, in output\n    lines.append(blocks[node.name].output(blocks))\n  File "/home/famihug/Apps/web2py/gluon/template.py", line 136, in output\n    lines.append(blocks[node.name].output(blocks))\n  File "/home/famihug/Apps/web2py/gluon/template.py", line 136, in output\n    lines.append(blocks[node.name].output(blocks))\n  File "/home/famihug/Apps/web2py/gluon/template.py", line 136, in output\n    lines.append(blocks[node.name].output(blocks))\n  File "/home/famihug/Apps/web2py/gluon/template.py", line 136, in output\n    lines.append(blocks[node.name].output(blocks))\n  File "/home/famihug/Apps/web2py/gluon/template.py", line 136, in output\n    lines.append(blocks[node.name].output(blocks))\n  File "/home/famihug/Apps/web2py/gluon/template.py", line 136, in output\n    lines.append(blocks[node.name].output(blocks))\n  File "/home/famihug/Apps/web2py/gluon/template.py", line 136, in output\n    lines.append(blocks[node.name].output(blocks))\n  File "/home/famihug/Apps/web2py/gluon/template.py", line 136, in output\n    lines.append(blocks[node.name].output(blocks))\n  File "/home/famihug/Apps/web2py/gluon/template.py", line 136, in output\n    lines.append(blocks[node.name].output(blocks))\n  File "/home/famihug/Apps/web2py/gluon/template.py", line 136, in output\n    lines.append(blocks[node.name].output(blocks))\n  File "/home/famihug/Apps/web2py/gluon/template.py", line 136, in output\n    lines.append(blocks[node.name].output(blocks))\n  File "/home/famihug/Apps/web2py/gluon/template.py", line 136, in output\n    lines.append(blocks[node.name].output(blocks))\n  File "/home/famihug/Apps/web2py/gluon/template.py", line 136, in output\n    lines.append(blocks[node.name].output(blocks))\n  File "/home/famihug/Apps/web2py/gluon/template.py", line 136, in output\n    lines.append(blocks[node.name].output(blocks))\n  File "/home/famihug/Apps/web2py/gluon/template.py", line 136, in output\n    lines.append(blocks[node.name].output(blocks))\n  File "/home/famihug/Apps/web2py/gluon/template.py", line 136, in output\n    lines.append(blocks[node.name].output(blocks))\n  File "/home/famihug/Apps/web2py/gluon/template.py", line 136, in output\n    lines.append(blocks[node.name].output(blocks))\n  File "/home/famihug/Apps/web2py/gluon/template.py", line 136, in output\n    lines.append(blocks[node.name].output(blocks))\n  File "/home/famihug/Apps/web2py/gluon/template.py", line 136, in output\n    lines.append(blocks[node.name].output(blocks))\n  File "/home/famihug/Apps/web2py/gluon/template.py", line 136, in output\n    lines.append(blocks[node.name].output(blocks))\n  File "/home/famihug/Apps/web2py/gluon/template.py", line 136, in output\n    lines.append(blocks[node.name].output(blocks))\n  File "/home/famihug/Apps/web2py/gluon/template.py", line 136, in output\n    lines.append(blocks[node.name].output(blocks))\n  File "/home/famihug/Apps/web2py/gluon/template.py", line 136, in output\n    lines.append(blocks[node.name].output(blocks))\n  File "/home/famihug/Apps/web2py/gluon/template.py", line 136, in output\n    lines.append(blocks[node.name].output(blocks))\n  File "/home/famihug/Apps/web2py/gluon/template.py", line 136, in output\n    lines.append(blocks[node.name].output(blocks))\n  File "/home/famihug/Apps/web2py/gluon/template.py", line 136, in output\n    lines.append(blocks[node.name].output(blocks))\n  File "/home/famihug/Apps/web2py/gluon/template.py", line 136, in output\n    lines.append(blocks[node.name].output(blocks))\n  File "/home/famihug/Apps/web2py/gluon/template.py", line 136, in output\n    lines.append(blocks[node.name].output(blocks))\n  File "/home/famihug/Apps/web2py/gluon/template.py", line 136, in output\n    lines.append(blocks[node.name].output(blocks))\n  File "/home/famihug/Apps/web2py/gluon/template.py", line 136, in output\n    lines.append(blocks[node.name].output(blocks))\n  File "/home/famihug/Apps/web2py/gluon/template.py", line 136, in output\n    lines.append(blocks[node.name].output(blocks))\n  File "/home/famihug/Apps/web2py/gluon/template.py", line 136, in output\n    lines.append(blocks[node.name].output(blocks))\n  File "/home/famihug/Apps/web2py/gluon/template.py", line 136, in output\n    lines.append(blocks[node.name].output(blocks))\n  File "/home/famihug/Apps/web2py/gluon/template.py", line 136, in output\n    lines.append(blocks[node.name].output(blocks))\n  File "/home/famihug/Apps/web2py/gluon/template.py", line 136, in output\n    lines.append(blocks[node.name].output(blocks))\n  File "/home/famihug/Apps/web2py/gluon/template.py", line 136, in output\n    lines.append(blocks[node.name].output(blocks))\n  File "/home/famihug/Apps/web2py/gluon/template.py", line 136, in output\n    lines.append(blocks[node.name].output(blocks))\n  File "/home/famihug/Apps/web2py/gluon/template.py", line 136, in output\n    lines.append(blocks[node.name].output(blocks))\n  File "/home/famihug/Apps/web2py/gluon/template.py", line 136, in output\n    lines.append(blocks[node.name].output(blocks))\n  File "/home/famihug/Apps/web2py/gluon/template.py", line 136, in output\n    lines.append(blocks[node.name].output(blocks))\n  File "/home/famihug/Apps/web2py/gluon/template.py", line 136, in output\n    lines.append(blocks[node.name].output(blocks))\n  File "/home/famihug/Apps/web2py/gluon/template.py", line 136, in output\n    lines.append(blocks[node.name].output(blocks))\n  File "/home/famihug/Apps/web2py/gluon/template.py", line 136, in output\n    lines.append(blocks[node.name].output(blocks))\n  File "/home/famihug/Apps/web2py/gluon/template.py", line 136, in output\n    lines.append(blocks[node.name].output(blocks))\n  File "/home/famihug/Apps/web2py/gluon/template.py", line 136, in output\n    lines.append(blocks[node.name].output(blocks))\n  File "/home/famihug/Apps/web2py/gluon/template.py", line 136, in output\n    lines.append(blocks[node.name].output(blocks))\n  File "/home/famihug/Apps/web2py/gluon/template.py", line 136, in output\n    lines.append(blocks[node.name].output(blocks))\n  File "/home/famihug/Apps/web2py/gluon/template.py", line 136, in output\n    lines.append(blocks[node.name].output(blocks))\n  File "/home/famihug/Apps/web2py/gluon/template.py", line 136, in output\n    lines.append(blocks[node.name].output(blocks))\n  File "/home/famihug/Apps/web2py/gluon/template.py", line 136, in output\n    lines.append(blocks[node.name].output(blocks))\n  File "/home/famihug/Apps/web2py/gluon/template.py", line 136, in output\n    lines.append(blocks[node.name].output(blocks))\n  File "/home/famihug/Apps/web2py/gluon/template.py", line 136, in output\n    lines.append(blocks[node.name].output(blocks))\n  File "/home/famihug/Apps/web2py/gluon/template.py", line 136, in output\n    lines.append(blocks[node.name].output(blocks))\n  File "/home/famihug/Apps/web2py/gluon/template.py", line 136, in output\n    lines.append(blocks[node.name].output(blocks))\n  File "/home/famihug/Apps/web2py/gluon/template.py", line 136, in output\n    lines.append(blocks[node.name].output(blocks))\n  File "/home/famihug/Apps/web2py/gluon/template.py", line 136, in output\n    lines.append(blocks[node.name].output(blocks))\n  File "/home/famihug/Apps/web2py/gluon/template.py", line 136, in output\n    lines.append(blocks[node.name].output(blocks))\n  File "/home/famihug/Apps/web2py/gluon/template.py", line 136, in output\n    lines.append(blocks[node.name].output(blocks))\n  File "/home/famihug/Apps/web2py/gluon/template.py", line 136, in output\n    lines.append(blocks[node.name].output(blocks))\n  File "/home/famihug/Apps/web2py/gluon/template.py", line 136, in output\n    lines.append(blocks[node.name].output(blocks))\n  File "/home/famihug/Apps/web2py/gluon/template.py", line 136, in output\n    lines.append(blocks[node.name].output(blocks))\n  File "/home/famihug/Apps/web2py/gluon/template.py", line 136, in output\n    lines.append(blocks[node.name].output(blocks))\n  File "/home/famihug/Apps/web2py/gluon/template.py", line 136, in output\n    lines.append(blocks[node.name].output(blocks))\n  File "/home/famihug/Apps/web2py/gluon/template.py", line 136, in output\n    lines.append(blocks[node.name].output(blocks))\n  File "/home/famihug/Apps/web2py/gluon/template.py", line 136, in output\n    lines.append(blocks[node.name].output(blocks))\n  File "/home/famihug/Apps/web2py/gluon/template.py", line 136, in output\n    lines.append(blocks[node.name].output(blocks))\n  File "/home/famihug/Apps/web2py/gluon/template.py", line 136, in output\n    lines.append(blocks[node.name].output(blocks))\n  File "/home/famihug/Apps/web2py/gluon/template.py", line 136, in output\n    lines.append(blocks[node.name].output(blocks))\n  File "/home/famihug/Apps/web2py/gluon/template.py", line 136, in output\n    lines.append(blocks[node.name].output(blocks))\n  File "/home/famihug/Apps/web2py/gluon/template.py", line 136, in output\n    lines.append(blocks[node.name].output(blocks))\n  File "/home/famihug/Apps/web2py/gluon/template.py", line 136, in output\n    lines.append(blocks[node.name].output(blocks))\n  File "/home/famihug/Apps/web2py/gluon/template.py", line 136, in output\n    lines.append(blocks[node.name].output(blocks))\n  File "/home/famihug/Apps/web2py/gluon/template.py", line 136, in output\n    lines.append(blocks[node.name].output(blocks))\n  File "/home/famihug/Apps/web2py/gluon/template.py", line 136, in output\n    lines.append(blocks[node.name].output(blocks))\n  File "/home/famihug/Apps/web2py/gluon/template.py", line 136, in output\n    lines.append(blocks[node.name].output(blocks))\n  File "/home/famihug/Apps/web2py/gluon/template.py", line 136, in output\n    lines.append(blocks[node.name].output(blocks))\n  File "/home/famihug/Apps/web2py/gluon/template.py", line 136, in output\n    lines.append(blocks[node.name].output(blocks))\n  File "/home/famihug/Apps/web2py/gluon/template.py", line 136, in output\n    lines.append(blocks[node.name].output(blocks))\n  File "/home/famihug/Apps/web2py/gluon/template.py", line 136, in output\n    lines.append(blocks[node.name].output(blocks))\n  File "/home/famihug/Apps/web2py/gluon/template.py", line 136, in output\n    lines.append(blocks[node.name].output(blocks))\n  File "/home/famihug/Apps/web2py/gluon/template.py", line 136, in output\n    lines.append(blocks[node.name].output(blocks))\n  File "/home/famihug/Apps/web2py/gluon/template.py", line 136, in output\n    lines.append(blocks[node.name].output(blocks))\n  File "/home/famihug/Apps/web2py/gluon/template.py", line 136, in output\n    lines.append(blocks[node.name].output(blocks))\n  File "/home/famihug/Apps/web2py/gluon/template.py", line 136, in output\n    lines.append(blocks[node.name].output(blocks))\n  File "/home/famihug/Apps/web2py/gluon/template.py", line 136, in output\n    lines.append(blocks[node.name].output(blocks))\n  File "/home/famihug/Apps/web2py/gluon/template.py", line 136, in output\n    lines.append(blocks[node.name].output(blocks))\n  File "/home/famihug/Apps/web2py/gluon/template.py", line 136, in output\n    lines.append(blocks[node.name].output(blocks))\n  File "/home/famihug/Apps/web2py/gluon/template.py", line 136, in output\n    lines.append(blocks[node.name].output(blocks))\n  File "/home/famihug/Apps/web2py/gluon/template.py", line 136, in output\n    lines.append(blocks[node.name].output(blocks))\n  File "/home/famihug/Apps/web2py/gluon/template.py", line 136, in output\n    lines.append(blocks[node.name].output(blocks))\n  File "/home/famihug/Apps/web2py/gluon/template.py", line 136, in output\n    lines.append(blocks[node.name].output(blocks))\n  File "/home/famihug/Apps/web2py/gluon/template.py", line 136, in output\n    lines.append(blocks[node.name].output(blocks))\n  File "/home/famihug/Apps/web2py/gluon/template.py", line 136, in output\n    lines.append(blocks[node.name].output(blocks))\n  File "/home/famihug/Apps/web2py/gluon/template.py", line 136, in output\n    lines.append(blocks[node.name].output(blocks))\n  File "/home/famihug/Apps/web2py/gluon/template.py", line 136, in output\n    lines.append(blocks[node.name].output(blocks))\n  File "/home/famihug/Apps/web2py/gluon/template.py", line 136, in output\n    lines.append(blocks[node.name].output(blocks))\n  File "/home/famihug/Apps/web2py/gluon/template.py", line 136, in output\n    lines.append(blocks[node.name].output(blocks))\n  File "/home/famihug/Apps/web2py/gluon/template.py", line 136, in output\n    lines.append(blocks[node.name].output(blocks))\n  File "/home/famihug/Apps/web2py/gluon/template.py", line 136, in output\n    lines.append(blocks[node.name].output(blocks))\n  File "/home/famihug/Apps/web2py/gluon/template.py", line 136, in output\n    lines.append(blocks[node.name].output(blocks))\n  File "/home/famihug/Apps/web2py/gluon/template.py", line 136, in output\n    lines.append(blocks[node.name].output(blocks))\n  File "/home/famihug/Apps/web2py/gluon/template.py", line 136, in output\n    lines.append(blocks[node.name].output(blocks))\n  File "/home/famihug/Apps/web2py/gluon/template.py", line 136, in output\n    lines.append(blocks[node.name].output(blocks))\n  File "/home/famihug/Apps/web2py/gluon/template.py", line 136, in output\n    lines.append(blocks[node.name].output(blocks))\n  File "/home/famihug/Apps/web2py/gluon/template.py", line 136, in output\n    lines.append(blocks[node.name].output(blocks))\n  File "/home/famihug/Apps/web2py/gluon/template.py", line 136, in output\n    lines.append(blocks[node.name].output(blocks))\n  File "/home/famihug/Apps/web2py/gluon/template.py", line 136, in output\n    lines.append(blocks[node.name].output(blocks))\n  File "/home/famihug/Apps/web2py/gluon/template.py", line 136, in output\n    lines.append(blocks[node.name].output(blocks))\n  File "/home/famihug/Apps/web2py/gluon/template.py", line 136, in output\n    lines.append(blocks[node.name].output(blocks))\n  File "/home/famihug/Apps/web2py/gluon/template.py", line 136, in output\n    lines.append(blocks[node.name].output(blocks))\n  File "/home/famihug/Apps/web2py/gluon/template.py", line 136, in output\n    lines.append(blocks[node.name].output(blocks))\n  File "/home/famihug/Apps/web2py/gluon/template.py", line 136, in output\n    lines.append(blocks[node.name].output(blocks))\n  File "/home/famihug/Apps/web2py/gluon/template.py", line 136, in output\n    lines.append(blocks[node.name].output(blocks))\n  File "/home/famihug/Apps/web2py/gluon/template.py", line 136, in output\n    lines.append(blocks[node.name].output(blocks))\n  File "/home/famihug/Apps/web2py/gluon/template.py", line 136, in output\n    lines.append(blocks[node.name].output(blocks))\n  File "/home/famihug/Apps/web2py/gluon/template.py", line 136, in output\n    lines.append(blocks[node.name].output(blocks))\n  File "/home/famihug/Apps/web2py/gluon/template.py", line 136, in output\n    lines.append(blocks[node.name].output(blocks))\n  File "/home/famihug/Apps/web2py/gluon/template.py", line 136, in output\n    lines.append(blocks[node.name].output(blocks))\n  File "/home/famihug/Apps/web2py/gluon/template.py", line 136, in output\n    lines.append(blocks[node.name].output(blocks))\n  File "/home/famihug/Apps/web2py/gluon/template.py", line 136, in output\n    lines.append(blocks[node.name].output(blocks))\n  File "/home/famihug/Apps/web2py/gluon/template.py", line 136, in output\n    lines.append(blocks[node.name].output(blocks))\n  File "/home/famihug/Apps/web2py/gluon/template.py", line 136, in output\n    lines.append(blocks[node.name].output(blocks))\n  File "/home/famihug/Apps/web2py/gluon/template.py", line 136, in output\n    lines.append(blocks[node.name].output(blocks))\n  File "/home/famihug/Apps/web2py/gluon/template.py", line 136, in output\n    lines.append(blocks[node.name].output(blocks))\n  File "/home/famihug/Apps/web2py/gluon/template.py", line 136, in output\n    lines.append(blocks[node.name].output(blocks))\n  File "/home/famihug/Apps/web2py/gluon/template.py", line 136, in output\n    lines.append(blocks[node.name].output(blocks))\n  File "/home/famihug/Apps/web2py/gluon/template.py", line 136, in output\n    lines.append(blocks[node.name].output(blocks))\n  File "/home/famihug/Apps/web2py/gluon/template.py", line 136, in output\n    lines.append(blocks[node.name].output(blocks))\n  File "/home/famihug/Apps/web2py/gluon/template.py", line 136, in output\n    lines.append(blocks[node.name].output(blocks))\n  File "/home/famihug/Apps/web2py/gluon/template.py", line 136, in output\n    lines.append(blocks[node.name].output(blocks))\n  File "/home/famihug/Apps/web2py/gluon/template.py", line 136, in output\n    lines.append(blocks[node.name].output(blocks))\n  File "/home/famihug/Apps/web2py/gluon/template.py", line 136, in output\n    lines.append(blocks[node.name].output(blocks))\n  File "/home/famihug/Apps/web2py/gluon/template.py", line 136, in output\n    lines.append(blocks[node.name].output(blocks))\n  File "/home/famihug/Apps/web2py/gluon/template.py", line 136, in output\n    lines.append(blocks[node.name].output(blocks))\n  File "/home/famihug/Apps/web2py/gluon/template.py", line 136, in output\n    lines.append(blocks[node.name].output(blocks))\n  File "/home/famihug/Apps/web2py/gluon/template.py", line 136, in output\n    lines.append(blocks[node.name].output(blocks))\n  File "/home/famihug/Apps/web2py/gluon/template.py", line 136, in output\n    lines.append(blocks[node.name].output(blocks))\n  File "/home/famihug/Apps/web2py/gluon/template.py", line 136, in output\n    lines.append(blocks[node.name].output(blocks))\n  File "/home/famihug/Apps/web2py/gluon/template.py", line 136, in output\n    lines.append(blocks[node.name].output(blocks))\n  File "/home/famihug/Apps/web2py/gluon/template.py", line 136, in output\n    lines.append(blocks[node.name].output(blocks))\n  File "/home/famihug/Apps/web2py/gluon/template.py", line 136, in output\n    lines.append(blocks[node.name].output(blocks))\n  File "/home/famihug/Apps/web2py/gluon/template.py", line 136, in output\n    lines.append(blocks[node.name].output(blocks))\n  File "/home/famihug/Apps/web2py/gluon/template.py", line 136, in output\n    lines.append(blocks[node.name].output(blocks))\n  File "/home/famihug/Apps/web2py/gluon/template.py", line 136, in output\n    lines.append(blocks[node.name].output(blocks))\n  File "/home/famihug/Apps/web2py/gluon/template.py", line 136, in output\n    lines.append(blocks[node.name].output(blocks))\n  File "/home/famihug/Apps/web2py/gluon/template.py", line 136, in output\n    lines.append(blocks[node.name].output(blocks))\n  File "/home/famihug/Apps/web2py/gluon/template.py", line 136, in output\n    lines.append(blocks[node.name].output(blocks))\n  File "/home/famihug/Apps/web2py/gluon/template.py", line 136, in output\n    lines.append(blocks[node.name].output(blocks))\n  File "/home/famihug/Apps/web2py/gluon/template.py", line 136, in output\n    lines.append(blocks[node.name].output(blocks))\n  File "/home/famihug/Apps/web2py/gluon/template.py", line 136, in output\n    lines.append(blocks[node.name].output(blocks))\n  File "/home/famihug/Apps/web2py/gluon/template.py", line 136, in output\n    lines.append(blocks[node.name].output(blocks))\n  File "/home/famihug/Apps/web2py/gluon/template.py", line 136, in output\n    lines.append(blocks[node.name].output(blocks))\n  File "/home/famihug/Apps/web2py/gluon/template.py", line 136, in output\n    lines.append(blocks[node.name].output(blocks))\n  File "/home/famihug/Apps/web2py/gluon/template.py", line 136, in output\n    lines.append(blocks[node.name].output(blocks))\n  File "/home/famihug/Apps/web2py/gluon/template.py", line 136, in output\n    lines.append(blocks[node.name].output(blocks))\n  File "/home/famihug/Apps/web2py/gluon/template.py", line 136, in output\n    lines.append(blocks[node.name].output(blocks))\n  File "/home/famihug/Apps/web2py/gluon/template.py", line 136, in output\n    lines.append(blocks[node.name].output(blocks))\n  File "/home/famihug/Apps/web2py/gluon/template.py", line 136, in output\n    lines.append(blocks[node.name].output(blocks))\n  File "/home/famihug/Apps/web2py/gluon/template.py", line 136, in output\n    lines.append(blocks[node.name].output(blocks))\n  File "/home/famihug/Apps/web2py/gluon/template.py", line 136, in output\n    lines.append(blocks[node.name].output(blocks))\n  File "/home/famihug/Apps/web2py/gluon/template.py", line 136, in output\n    lines.append(blocks[node.name].output(blocks))\n  File "/home/famihug/Apps/web2py/gluon/template.py", line 136, in output\n    lines.append(blocks[node.name].output(blocks))\n  File "/home/famihug/Apps/web2py/gluon/template.py", line 136, in output\n    lines.append(blocks[node.name].output(blocks))\n  File "/home/famihug/Apps/web2py/gluon/template.py", line 136, in output\n    lines.append(blocks[node.name].output(blocks))\n  File "/home/famihug/Apps/web2py/gluon/template.py", line 136, in output\n    lines.append(blocks[node.name].output(blocks))\n  File "/home/famihug/Apps/web2py/gluon/template.py", line 136, in output\n    lines.append(blocks[node.name].output(blocks))\n  File "/home/famihug/Apps/web2py/gluon/template.py", line 136, in output\n    lines.append(blocks[node.name].output(blocks))\n  File "/home/famihug/Apps/web2py/gluon/template.py", line 136, in output\n    lines.append(blocks[node.name].output(blocks))\n  File "/home/famihug/Apps/web2py/gluon/template.py", line 136, in output\n    lines.append(blocks[node.name].output(blocks))\n  File "/home/famihug/Apps/web2py/gluon/template.py", line 136, in output\n    lines.append(blocks[node.name].output(blocks))\n  File "/home/famihug/Apps/web2py/gluon/template.py", line 136, in output\n    lines.append(blocks[node.name].output(blocks))\n  File "/home/famihug/Apps/web2py/gluon/template.py", line 136, in output\n    lines.append(blocks[node.name].output(blocks))\n  File "/home/famihug/Apps/web2py/gluon/template.py", line 136, in output\n    lines.append(blocks[node.name].output(blocks))\n  File "/home/famihug/Apps/web2py/gluon/template.py", line 136, in output\n    lines.append(blocks[node.name].output(blocks))\n  File "/home/famihug/Apps/web2py/gluon/template.py", line 136, in output\n    lines.append(blocks[node.name].output(blocks))\n  File "/home/famihug/Apps/web2py/gluon/template.py", line 136, in output\n    lines.append(blocks[node.name].output(blocks))\n  File "/home/famihug/Apps/web2py/gluon/template.py", line 136, in output\n    lines.append(blocks[node.name].output(blocks))\n  File "/home/famihug/Apps/web2py/gluon/template.py", line 136, in output\n    lines.append(blocks[node.name].output(blocks))\n  File "/home/famihug/Apps/web2py/gluon/template.py", line 136, in output\n    lines.append(blocks[node.name].output(blocks))\n  File "/home/famihug/Apps/web2py/gluon/template.py", line 136, in output\n    lines.append(blocks[node.name].output(blocks))\n  File "/home/famihug/Apps/web2py/gluon/template.py", line 136, in output\n    lines.append(blocks[node.name].output(blocks))\n  File "/home/famihug/Apps/web2py/gluon/template.py", line 136, in output\n    lines.append(blocks[node.name].output(blocks))\n  File "/home/famihug/Apps/web2py/gluon/template.py", line 136, in output\n    lines.append(blocks[node.name].output(blocks))\n  File "/home/famihug/Apps/web2py/gluon/template.py", line 136, in output\n    lines.append(blocks[node.name].output(blocks))\n  File "/home/famihug/Apps/web2py/gluon/template.py", line 136, in output\n    lines.append(blocks[node.name].output(blocks))\n  File "/home/famihug/Apps/web2py/gluon/template.py", line 136, in output\n    lines.append(blocks[node.name].output(blocks))\n  File "/home/famihug/Apps/web2py/gluon/template.py", line 136, in output\n    lines.append(blocks[node.name].output(blocks))\n  File "/home/famihug/Apps/web2py/gluon/template.py", line 136, in output\n    lines.append(blocks[node.name].output(blocks))\n  File "/home/famihug/Apps/web2py/gluon/template.py", line 136, in output\n    lines.append(blocks[node.name].output(blocks))\n  File "/home/famihug/Apps/web2py/gluon/template.py", line 136, in output\n    lines.append(blocks[node.name].output(blocks))\n  File "/home/famihug/Apps/web2py/gluon/template.py", line 136, in output\n    lines.append(blocks[node.name].output(blocks))\n  File "/home/famihug/Apps/web2py/gluon/template.py", line 136, in output\n    lines.append(blocks[node.name].output(blocks))\n  File "/home/famihug/Apps/web2py/gluon/template.py", line 136, in output\n    lines.append(blocks[node.name].output(blocks))\n  File "/home/famihug/Apps/web2py/gluon/template.py", line 136, in output\n    lines.append(blocks[node.name].output(blocks))\n  File "/home/famihug/Apps/web2py/gluon/template.py", line 136, in output\n    lines.append(blocks[node.name].output(blocks))\n  File "/home/famihug/Apps/web2py/gluon/template.py", line 136, in output\n    lines.append(blocks[node.name].output(blocks))\n  File "/home/famihug/Apps/web2py/gluon/template.py", line 136, in output\n    lines.append(blocks[node.name].output(blocks))\n  File "/home/famihug/Apps/web2py/gluon/template.py", line 136, in output\n    lines.append(blocks[node.name].output(blocks))\n  File "/home/famihug/Apps/web2py/gluon/template.py", line 136, in output\n    lines.append(blocks[node.name].output(blocks))\n  File "/home/famihug/Apps/web2py/gluon/template.py", line 136, in output\n    lines.append(blocks[node.name].output(blocks))\n  File "/home/famihug/Apps/web2py/gluon/template.py", line 136, in output\n    lines.append(blocks[node.name].output(blocks))\n  File "/home/famihug/Apps/web2py/gluon/template.py", line 136, in output\n    lines.append(blocks[node.name].output(blocks))\n  File "/home/famihug/Apps/web2py/gluon/template.py", line 136, in output\n    lines.append(blocks[node.name].output(blocks))\n  File "/home/famihug/Apps/web2py/gluon/template.py", line 136, in output\n    lines.append(blocks[node.name].output(blocks))\n  File "/home/famihug/Apps/web2py/gluon/template.py", line 136, in output\n    lines.append(blocks[node.name].output(blocks))\n  File "/home/famihug/Apps/web2py/gluon/template.py", line 136, in output\n    lines.append(blocks[node.name].output(blocks))\n  File "/home/famihug/Apps/web2py/gluon/template.py", line 136, in output\n    lines.append(blocks[node.name].output(blocks))\n  File "/home/famihug/Apps/web2py/gluon/template.py", line 136, in output\n    lines.append(blocks[node.name].output(blocks))\n  File "/home/famihug/Apps/web2py/gluon/template.py", line 136, in output\n    lines.append(blocks[node.name].output(blocks))\n  File "/home/famihug/Apps/web2py/gluon/template.py", line 136, in output\n    lines.append(blocks[node.name].output(blocks))\n  File "/home/famihug/Apps/web2py/gluon/template.py", line 136, in output\n    lines.append(blocks[node.name].output(blocks))\n  File "/home/famihug/Apps/web2py/gluon/template.py", line 136, in output\n    lines.append(blocks[node.name].output(blocks))\n  File "/home/famihug/Apps/web2py/gluon/template.py", line 136, in output\n    lines.append(blocks[node.name].output(blocks))\n  File "/home/famihug/Apps/web2py/gluon/template.py", line 136, in output\n    lines.append(blocks[node.name].output(blocks))\n  File "/home/famihug/Apps/web2py/gluon/template.py", line 136, in output\n    lines.append(blocks[node.name].output(blocks))\n  File "/home/famihug/Apps/web2py/gluon/template.py", line 136, in output\n    lines.append(blocks[node.name].output(blocks))\n  File "/home/famihug/Apps/web2py/gluon/template.py", line 136, in output\n    lines.append(blocks[node.name].output(blocks))\n  File "/home/famihug/Apps/web2py/gluon/template.py", line 136, in output\n    lines.append(blocks[node.name].output(blocks))\n  File "/home/famihug/Apps/web2py/gluon/template.py", line 136, in output\n    lines.append(blocks[node.name].output(blocks))\n  File "/home/famihug/Apps/web2py/gluon/template.py", line 136, in output\n    lines.append(blocks[node.name].output(blocks))\n  File "/home/famihug/Apps/web2py/gluon/template.py", line 136, in output\n    lines.append(blocks[node.name].output(blocks))\n  File "/home/famihug/Apps/web2py/gluon/template.py", line 136, in output\n    lines.append(blocks[node.name].output(blocks))\n  File "/home/famihug/Apps/web2py/gluon/template.py", line 136, in output\n    lines.append(blocks[node.name].output(blocks))\n  File "/home/famihug/Apps/web2py/gluon/template.py", line 136, in output\n    lines.append(blocks[node.name].output(blocks))\n  File "/home/famihug/Apps/web2py/gluon/template.py", line 136, in output\n    lines.append(blocks[node.name].output(blocks))\n  File "/home/famihug/Apps/web2py/gluon/template.py", line 136, in output\n    lines.append(blocks[node.name].output(blocks))\n  File "/home/famihug/Apps/web2py/gluon/template.py", line 136, in output\n    lines.append(blocks[node.name].output(blocks))\n  File "/home/famihug/Apps/web2py/gluon/template.py", line 136, in output\n    lines.append(blocks[node.name].output(blocks))\n  File "/home/famihug/Apps/web2py/gluon/template.py", line 136, in output\n    lines.append(blocks[node.name].output(blocks))\n  File "/home/famihug/Apps/web2py/gluon/template.py", line 136, in output\n    lines.append(blocks[node.name].output(blocks))\n  File "/home/famihug/Apps/web2py/gluon/template.py", line 136, in output\n    lines.append(blocks[node.name].output(blocks))\n  File "/home/famihug/Apps/web2py/gluon/template.py", line 136, in output\n    lines.append(blocks[node.name].output(blocks))\n  File "/home/famihug/Apps/web2py/gluon/template.py", line 136, in output\n    lines.append(blocks[node.name].output(blocks))\n  File "/home/famihug/Apps/web2py/gluon/template.py", line 136, in output\n    lines.append(blocks[node.name].output(blocks))\n  File "/home/famihug/Apps/web2py/gluon/template.py", line 136, in output\n    lines.append(blocks[node.name].output(blocks))\n  File "/home/famihug/Apps/web2py/gluon/template.py", line 136, in output\n    lines.append(blocks[node.name].output(blocks))\n  File "/home/famihug/Apps/web2py/gluon/template.py", line 136, in output\n    lines.append(blocks[node.name].output(blocks))\n  File "/home/famihug/Apps/web2py/gluon/template.py", line 136, in output\n    lines.append(blocks[node.name].output(blocks))\n  File "/home/famihug/Apps/web2py/gluon/template.py", line 136, in output\n    lines.append(blocks[node.name].output(blocks))\n  File "/home/famihug/Apps/web2py/gluon/template.py", line 136, in output\n    lines.append(blocks[node.name].output(blocks))\n  File "/home/famihug/Apps/web2py/gluon/template.py", line 136, in output\n    lines.append(blocks[node.name].output(blocks))\n  File "/home/famihug/Apps/web2py/gluon/template.py", line 136, in output\n    lines.append(blocks[node.name].output(blocks))\n  File "/home/famihug/Apps/web2py/gluon/template.py", line 136, in output\n    lines.append(blocks[node.name].output(blocks))\n  File "/home/famihug/Apps/web2py/gluon/template.py", line 136, in output\n    lines.append(blocks[node.name].output(blocks))\n  File "/home/famihug/Apps/web2py/gluon/template.py", line 136, in output\n    lines.append(blocks[node.name].output(blocks))\n  File "/home/famihug/Apps/web2py/gluon/template.py", line 136, in output\n    lines.append(blocks[node.name].output(blocks))\n  File "/home/famihug/Apps/web2py/gluon/template.py", line 136, in output\n    lines.append(blocks[node.name].output(blocks))\n  File "/home/famihug/Apps/web2py/gluon/template.py", line 136, in output\n    lines.append(blocks[node.name].output(blocks))\n  File "/home/famihug/Apps/web2py/gluon/template.py", line 136, in output\n    lines.append(blocks[node.name].output(blocks))\n  File "/home/famihug/Apps/web2py/gluon/template.py", line 136, in output\n    lines.append(blocks[node.name].output(blocks))\n  File "/home/famihug/Apps/web2py/gluon/template.py", line 136, in output\n    lines.append(blocks[node.name].output(blocks))\n  File "/home/famihug/Apps/web2py/gluon/template.py", line 136, in output\n    lines.append(blocks[node.name].output(blocks))\n  File "/home/famihug/Apps/web2py/gluon/template.py", line 136, in output\n    lines.append(blocks[node.name].output(blocks))\n  File "/home/famihug/Apps/web2py/gluon/template.py", line 136, in output\n    lines.append(blocks[node.name].output(blocks))\n  File "/home/famihug/Apps/web2py/gluon/template.py", line 136, in output\n    lines.append(blocks[node.name].output(blocks))\n  File "/home/famihug/Apps/web2py/gluon/template.py", line 136, in output\n    lines.append(blocks[node.name].output(blocks))\n  File "/home/famihug/Apps/web2py/gluon/template.py", line 136, in output\n    lines.append(blocks[node.name].output(blocks))\n  File "/home/famihug/Apps/web2py/gluon/template.py", line 136, in output\n    lines.append(blocks[node.name].output(blocks))\n  File "/home/famihug/Apps/web2py/gluon/template.py", line 136, in output\n    lines.append(blocks[node.name].output(blocks))\n  File "/home/famihug/Apps/web2py/gluon/template.py", line 136, in output\n    lines.append(blocks[node.name].output(blocks))\n  File "/home/famihug/Apps/web2py/gluon/template.py", line 136, in output\n    lines.append(blocks[node.name].output(blocks))\n  File "/home/famihug/Apps/web2py/gluon/template.py", line 136, in output\n    lines.append(blocks[node.name].output(blocks))\n  File "/home/famihug/Apps/web2py/gluon/template.py", line 136, in output\n    lines.append(blocks[node.name].output(blocks))\n  File "/home/famihug/Apps/web2py/gluon/template.py", line 136, in output\n    lines.append(blocks[node.name].output(blocks))\n  File "/home/famihug/Apps/web2py/gluon/template.py", line 136, in output\n    lines.append(blocks[node.name].output(blocks))\n  File "/home/famihug/Apps/web2py/gluon/template.py", line 136, in output\n    lines.append(blocks[node.name].output(blocks))\n  File "/home/famihug/Apps/web2py/gluon/template.py", line 136, in output\n    lines.append(blocks[node.name].output(blocks))\n  File "/home/famihug/Apps/web2py/gluon/template.py", line 136, in output\n    lines.append(blocks[node.name].output(blocks))\n  File "/home/famihug/Apps/web2py/gluon/template.py", line 136, in output\n    lines.append(blocks[node.name].output(blocks))\n  File "/home/famihug/Apps/web2py/gluon/template.py", line 136, in output\n    lines.append(blocks[node.name].output(blocks))\n  File "/home/famihug/Apps/web2py/gluon/template.py", line 136, in output\n    lines.append(blocks[node.name].output(blocks))\n  File "/home/famihug/Apps/web2py/gluon/template.py", line 136, in output\n    lines.append(blocks[node.name].output(blocks))\n  File "/home/famihug/Apps/web2py/gluon/template.py", line 136, in output\n    lines.append(blocks[node.name].output(blocks))\n  File "/home/famihug/Apps/web2py/gluon/template.py", line 136, in output\n    lines.append(blocks[node.name].output(blocks))\n  File "/home/famihug/Apps/web2py/gluon/template.py", line 136, in output\n    lines.append(blocks[node.name].output(blocks))\n  File "/home/famihug/Apps/web2py/gluon/template.py", line 136, in output\n    lines.append(blocks[node.name].output(blocks))\n  File "/home/famihug/Apps/web2py/gluon/template.py", line 136, in output\n    lines.append(blocks[node.name].output(blocks))\n  File "/home/famihug/Apps/web2py/gluon/template.py", line 136, in output\n    lines.append(blocks[node.name].output(blocks))\n  File "/home/famihug/Apps/web2py/gluon/template.py", line 136, in output\n    lines.append(blocks[node.name].output(blocks))\n  File "/home/famihug/Apps/web2py/gluon/template.py", line 136, in output\n    lines.append(blocks[node.name].output(blocks))\n  File "/home/famihug/Apps/web2py/gluon/template.py", line 136, in output\n    lines.append(blocks[node.name].output(blocks))\n  File "/home/famihug/Apps/web2py/gluon/template.py", line 136, in output\n    lines.append(blocks[node.name].output(blocks))\n  File "/home/famihug/Apps/web2py/gluon/template.py", line 136, in output\n    lines.append(blocks[node.name].output(blocks))\n  File "/home/famihug/Apps/web2py/gluon/template.py", line 136, in output\n    lines.append(blocks[node.name].output(blocks))\n  File "/home/famihug/Apps/web2py/gluon/template.py", line 136, in output\n    lines.append(blocks[node.name].output(blocks))\n  File "/home/famihug/Apps/web2py/gluon/template.py", line 136, in output\n    lines.append(blocks[node.name].output(blocks))\n  File "/home/famihug/Apps/web2py/gluon/template.py", line 136, in output\n    lines.append(blocks[node.name].output(blocks))\n  File "/home/famihug/Apps/web2py/gluon/template.py", line 136, in output\n    lines.append(blocks[node.name].output(blocks))\n  File "/home/famihug/Apps/web2py/gluon/template.py", line 136, in output\n    lines.append(blocks[node.name].output(blocks))\n  File "/home/famihug/Apps/web2py/gluon/template.py", line 136, in output\n    lines.append(blocks[node.name].output(blocks))\n  File "/home/famihug/Apps/web2py/gluon/template.py", line 136, in output\n    lines.append(blocks[node.name].output(blocks))\n  File "/home/famihug/Apps/web2py/gluon/template.py", line 136, in output\n    lines.append(blocks[node.name].output(blocks))\n  File "/home/famihug/Apps/web2py/gluon/template.py", line 136, in output\n    lines.append(blocks[node.name].output(blocks))\n  File "/home/famihug/Apps/web2py/gluon/template.py", line 136, in output\n    lines.append(blocks[node.name].output(blocks))\n  File "/home/famihug/Apps/web2py/gluon/template.py", line 136, in output\n    lines.append(blocks[node.name].output(blocks))\n  File "/home/famihug/Apps/web2py/gluon/template.py", line 136, in output\n    lines.append(blocks[node.name].output(blocks))\n  File "/home/famihug/Apps/web2py/gluon/template.py", line 136, in output\n    lines.append(blocks[node.name].output(blocks))\n  File "/home/famihug/Apps/web2py/gluon/template.py", line 136, in output\n    lines.append(blocks[node.name].output(blocks))\n  File "/home/famihug/Apps/web2py/gluon/template.py", line 136, in output\n    lines.append(blocks[node.name].output(blocks))\n  File "/home/famihug/Apps/web2py/gluon/template.py", line 136, in output\n    lines.append(blocks[node.name].output(blocks))\n  File "/home/famihug/Apps/web2py/gluon/template.py", line 136, in output\n    lines.append(blocks[node.name].output(blocks))\n  File "/home/famihug/Apps/web2py/gluon/template.py", line 136, in output\n    lines.append(blocks[node.name].output(blocks))\n  File "/home/famihug/Apps/web2py/gluon/template.py", line 136, in output\n    lines.append(blocks[node.name].output(blocks))\n  File "/home/famihug/Apps/web2py/gluon/template.py", line 136, in output\n    lines.append(blocks[node.name].output(blocks))\n  File "/home/famihug/Apps/web2py/gluon/template.py", line 136, in output\n    lines.append(blocks[node.name].output(blocks))\n  File "/home/famihug/Apps/web2py/gluon/template.py", line 136, in output\n    lines.append(blocks[node.name].output(blocks))\n  File "/home/famihug/Apps/web2py/gluon/template.py", line 136, in output\n    lines.append(blocks[node.name].output(blocks))\n  File "/home/famihug/Apps/web2py/gluon/template.py", line 136, in output\n    lines.append(blocks[node.name].output(blocks))\n  File "/home/famihug/Apps/web2py/gluon/template.py", line 136, in output\n    lines.append(blocks[node.name].output(blocks))\n  File "/home/famihug/Apps/web2py/gluon/template.py", line 136, in output\n    lines.append(blocks[node.name].output(blocks))\n  File "/home/famihug/Apps/web2py/gluon/template.py", line 136, in output\n    lines.append(blocks[node.name].output(blocks))\n  File "/home/famihug/Apps/web2py/gluon/template.py", line 136, in output\n    lines.append(blocks[node.name].output(blocks))\n  File "/home/famihug/Apps/web2py/gluon/template.py", line 136, in output\n    lines.append(blocks[node.name].output(blocks))\n  File "/home/famihug/Apps/web2py/gluon/template.py", line 136, in output\n    lines.append(blocks[node.name].output(blocks))\n  File "/home/famihug/Apps/web2py/gluon/template.py", line 136, in output\n    lines.append(blocks[node.name].output(blocks))\n  File "/home/famihug/Apps/web2py/gluon/template.py", line 136, in output\n    lines.append(blocks[node.name].output(blocks))\n  File "/home/famihug/Apps/web2py/gluon/template.py", line 136, in output\n    lines.append(blocks[node.name].output(blocks))\n  File "/home/famihug/Apps/web2py/gluon/template.py", line 136, in output\n    lines.append(blocks[node.name].output(blocks))\n  File "/home/famihug/Apps/web2py/gluon/template.py", line 136, in output\n    lines.append(blocks[node.name].output(blocks))\n  File "/home/famihug/Apps/web2py/gluon/template.py", line 136, in output\n    lines.append(blocks[node.name].output(blocks))\n  File "/home/famihug/Apps/web2py/gluon/template.py", line 136, in output\n    lines.append(blocks[node.name].output(blocks))\n  File "/home/famihug/Apps/web2py/gluon/template.py", line 136, in output\n    lines.append(blocks[node.name].output(blocks))\n  File "/home/famihug/Apps/web2py/gluon/template.py", line 136, in output\n    lines.append(blocks[node.name].output(blocks))\n  File "/home/famihug/Apps/web2py/gluon/template.py", line 136, in output\n    lines.append(blocks[node.name].output(blocks))\n  File "/home/famihug/Apps/web2py/gluon/template.py", line 136, in output\n    lines.append(blocks[node.name].output(blocks))\n  File "/home/famihug/Apps/web2py/gluon/template.py", line 136, in output\n    lines.append(blocks[node.name].output(blocks))\n  File "/home/famihug/Apps/web2py/gluon/template.py", line 136, in output\n    lines.append(blocks[node.name].output(blocks))\n  File "/home/famihug/Apps/web2py/gluon/template.py", line 136, in output\n    lines.append(blocks[node.name].output(blocks))\n  File "/home/famihug/Apps/web2py/gluon/template.py", line 136, in output\n    lines.append(blocks[node.name].output(blocks))\n  File "/home/famihug/Apps/web2py/gluon/template.py", line 136, in output\n    lines.append(blocks[node.name].output(blocks))\n  File "/home/famihug/Apps/web2py/gluon/template.py", line 136, in output\n    lines.append(blocks[node.name].output(blocks))\n  File "/home/famihug/Apps/web2py/gluon/template.py", line 136, in output\n    lines.append(blocks[node.name].output(blocks))\n  File "/home/famihug/Apps/web2py/gluon/template.py", line 136, in output\n    lines.append(blocks[node.name].output(blocks))\n  File "/home/famihug/Apps/web2py/gluon/template.py", line 136, in output\n    lines.append(blocks[node.name].output(blocks))\n  File "/home/famihug/Apps/web2py/gluon/template.py", line 136, in output\n    lines.append(blocks[node.name].output(blocks))\n  File "/home/famihug/Apps/web2py/gluon/template.py", line 136, in output\n    lines.append(blocks[node.name].output(blocks))\n  File "/home/famihug/Apps/web2py/gluon/template.py", line 136, in output\n    lines.append(blocks[node.name].output(blocks))\n  File "/home/famihug/Apps/web2py/gluon/template.py", line 136, in output\n    lines.append(blocks[node.name].output(blocks))\n  File "/home/famihug/Apps/web2py/gluon/template.py", line 136, in output\n    lines.append(blocks[node.name].output(blocks))\n  File "/home/famihug/Apps/web2py/gluon/template.py", line 136, in output\n    lines.append(blocks[node.name].output(blocks))\n  File "/home/famihug/Apps/web2py/gluon/template.py", line 136, in output\n    lines.append(blocks[node.name].output(blocks))\n  File "/home/famihug/Apps/web2py/gluon/template.py", line 136, in output\n    lines.append(blocks[node.name].output(blocks))\n  File "/home/famihug/Apps/web2py/gluon/template.py", line 136, in output\n    lines.append(blocks[node.name].output(blocks))\n  File "/home/famihug/Apps/web2py/gluon/template.py", line 136, in output\n    lines.append(blocks[node.name].output(blocks))\n  File "/home/famihug/Apps/web2py/gluon/template.py", line 136, in output\n    lines.append(blocks[node.name].output(blocks))\n  File "/home/famihug/Apps/web2py/gluon/template.py", line 136, in output\n    lines.append(blocks[node.name].output(blocks))\n  File "/home/famihug/Apps/web2py/gluon/template.py", line 136, in output\n    lines.append(blocks[node.name].output(blocks))\n  File "/home/famihug/Apps/web2py/gluon/template.py", line 136, in output\n    lines.append(blocks[node.name].output(blocks))\n  File "/home/famihug/Apps/web2py/gluon/template.py", line 136, in output\n    lines.append(blocks[node.name].output(blocks))\n  File "/home/famihug/Apps/web2py/gluon/template.py", line 136, in output\n    lines.append(blocks[node.name].output(blocks))\n  File "/home/famihug/Apps/web2py/gluon/template.py", line 136, in output\n    lines.append(blocks[node.name].output(blocks))\n  File "/home/famihug/Apps/web2py/gluon/template.py", line 136, in output\n    lines.append(blocks[node.name].output(blocks))\n  File "/home/famihug/Apps/web2py/gluon/template.py", line 136, in output\n    lines.append(blocks[node.name].output(blocks))\n  File "/home/famihug/Apps/web2py/gluon/template.py", line 136, in output\n    lines.append(blocks[node.name].output(blocks))\n  File "/home/famihug/Apps/web2py/gluon/template.py", line 136, in output\n    lines.append(blocks[node.name].output(blocks))\n  File "/home/famihug/Apps/web2py/gluon/template.py", line 136, in output\n    lines.append(blocks[node.name].output(blocks))\n  File "/home/famihug/Apps/web2py/gluon/template.py", line 136, in output\n    lines.append(blocks[node.name].output(blocks))\n  File "/home/famihug/Apps/web2py/gluon/template.py", line 136, in output\n    lines.append(blocks[node.name].output(blocks))\n  File "/home/famihug/Apps/web2py/gluon/template.py", line 136, in output\n    lines.append(blocks[node.name].output(blocks))\n  File "/home/famihug/Apps/web2py/gluon/template.py", line 136, in output\n    lines.append(blocks[node.name].output(blocks))\n  File "/home/famihug/Apps/web2py/gluon/template.py", line 136, in output\n    lines.append(blocks[node.name].output(blocks))\n  File "/home/famihug/Apps/web2py/gluon/template.py", line 136, in output\n    lines.append(blocks[node.name].output(blocks))\n  File "/home/famihug/Apps/web2py/gluon/template.py", line 136, in output\n    lines.append(blocks[node.name].output(blocks))\n  File "/home/famihug/Apps/web2py/gluon/template.py", line 136, in output\n    lines.append(blocks[node.name].output(blocks))\n  File "/home/famihug/Apps/web2py/gluon/template.py", line 136, in output\n    lines.append(blocks[node.name].output(blocks))\n  File "/home/famihug/Apps/web2py/gluon/template.py", line 136, in output\n    lines.append(blocks[node.name].output(blocks))\n  File "/home/famihug/Apps/web2py/gluon/template.py", line 136, in output\n    lines.append(blocks[node.name].output(blocks))\n  File "/home/famihug/Apps/web2py/gluon/template.py", line 136, in output\n    lines.append(blocks[node.name].output(blocks))\n  File "/home/famihug/Apps/web2py/gluon/template.py", line 136, in output\n    lines.append(blocks[node.name].output(blocks))\n  File "/home/famihug/Apps/web2py/gluon/template.py", line 136, in output\n    lines.append(blocks[node.name].output(blocks))\n  File "/home/famihug/Apps/web2py/gluon/template.py", line 136, in output\n    lines.append(blocks[node.name].output(blocks))\n  File "/home/famihug/Apps/web2py/gluon/template.py", line 136, in output\n    lines.append(blocks[node.name].output(blocks))\n  File "/home/famihug/Apps/web2py/gluon/template.py", line 136, in output\n    lines.append(blocks[node.name].output(blocks))\n  File "/home/famihug/Apps/web2py/gluon/template.py", line 136, in output\n    lines.append(blocks[node.name].output(blocks))\n  File "/home/famihug/Apps/web2py/gluon/template.py", line 136, in output\n    lines.append(blocks[node.name].output(blocks))\n  File "/home/famihug/Apps/web2py/gluon/template.py", line 136, in output\n    lines.append(blocks[node.name].output(blocks))\n  File "/home/famihug/Apps/web2py/gluon/template.py", line 136, in output\n    lines.append(blocks[node.name].output(blocks))\n  File "/home/famihug/Apps/web2py/gluon/template.py", line 136, in output\n    lines.append(blocks[node.name].output(blocks))\n  File "/home/famihug/Apps/web2py/gluon/template.py", line 136, in output\n    lines.append(blocks[node.name].output(blocks))\n  File "/home/famihug/Apps/web2py/gluon/template.py", line 136, in output\n    lines.append(blocks[node.name].output(blocks))\n  File "/home/famihug/Apps/web2py/gluon/template.py", line 136, in output\n    lines.append(blocks[node.name].output(blocks))\n  File "/home/famihug/Apps/web2py/gluon/template.py", line 136, in output\n    lines.append(blocks[node.name].output(blocks))\n  File "/home/famihug/Apps/web2py/gluon/template.py", line 136, in output\n    lines.append(blocks[node.name].output(blocks))\n  File "/home/famihug/Apps/web2py/gluon/template.py", line 136, in output\n    lines.append(blocks[node.name].output(blocks))\n  File "/home/famihug/Apps/web2py/gluon/template.py", line 136, in output\n    lines.append(blocks[node.name].output(blocks))\n  File "/home/famihug/Apps/web2py/gluon/template.py", line 136, in output\n    lines.append(blocks[node.name].output(blocks))\n  File "/home/famihug/Apps/web2py/gluon/template.py", line 136, in output\n    lines.append(blocks[node.name].output(blocks))\n  File "/home/famihug/Apps/web2py/gluon/template.py", line 136, in output\n    lines.append(blocks[node.name].output(blocks))\n  File "/home/famihug/Apps/web2py/gluon/template.py", line 136, in output\n    lines.append(blocks[node.name].output(blocks))\n  File "/home/famihug/Apps/web2py/gluon/template.py", line 136, in output\n    lines.append(blocks[node.name].output(blocks))\n  File "/home/famihug/Apps/web2py/gluon/template.py", line 136, in output\n    lines.append(blocks[node.name].output(blocks))\n  File "/home/famihug/Apps/web2py/gluon/template.py", line 136, in output\n    lines.append(blocks[node.name].output(blocks))\n  File "/home/famihug/Apps/web2py/gluon/template.py", line 136, in output\n    lines.append(blocks[node.name].output(blocks))\n  File "/home/famihug/Apps/web2py/gluon/template.py", line 136, in output\n    lines.append(blocks[node.name].output(blocks))\n  File "/home/famihug/Apps/web2py/gluon/template.py", line 136, in output\n    lines.append(blocks[node.name].output(blocks))\n  File "/home/famihug/Apps/web2py/gluon/template.py", line 136, in output\n    lines.append(blocks[node.name].output(blocks))\n  File "/home/famihug/Apps/web2py/gluon/template.py", line 136, in output\n    lines.append(blocks[node.name].output(blocks))\n  File "/home/famihug/Apps/web2py/gluon/template.py", line 136, in output\n    lines.append(blocks[node.name].output(blocks))\n  File "/home/famihug/Apps/web2py/gluon/template.py", line 136, in output\n    lines.append(blocks[node.name].output(blocks))\n  File "/home/famihug/Apps/web2py/gluon/template.py", line 136, in output\n    lines.append(blocks[node.name].output(blocks))\n  File "/home/famihug/Apps/web2py/gluon/template.py", line 136, in output\n    lines.append(blocks[node.name].output(blocks))\n  File "/home/famihug/Apps/web2py/gluon/template.py", line 136, in output\n    lines.append(blocks[node.name].output(blocks))\n  File "/home/famihug/Apps/web2py/gluon/template.py", line 136, in output\n    lines.append(blocks[node.name].output(blocks))\n  File "/home/famihug/Apps/web2py/gluon/template.py", line 136, in output\n    lines.append(blocks[node.name].output(blocks))\n  File "/home/famihug/Apps/web2py/gluon/template.py", line 136, in output\n    lines.append(blocks[node.name].output(blocks))\n  File "/home/famihug/Apps/web2py/gluon/template.py", line 136, in output\n    lines.append(blocks[node.name].output(blocks))\n  File "/home/famihug/Apps/web2py/gluon/template.py", line 136, in output\n    lines.append(blocks[node.name].output(blocks))\n  File "/home/famihug/Apps/web2py/gluon/template.py", line 136, in output\n    lines.append(blocks[node.name].output(blocks))\n  File "/home/famihug/Apps/web2py/gluon/template.py", line 136, in output\n    lines.append(blocks[node.name].output(blocks))\n  File "/home/famihug/Apps/web2py/gluon/template.py", line 136, in output\n    lines.append(blocks[node.name].output(blocks))\n  File "/home/famihug/Apps/web2py/gluon/template.py", line 136, in output\n    lines.append(blocks[node.name].output(blocks))\n  File "/home/famihug/Apps/web2py/gluon/template.py", line 136, in output\n    lines.append(blocks[node.name].output(blocks))\n  File "/home/famihug/Apps/web2py/gluon/template.py", line 136, in output\n    lines.append(blocks[node.name].output(blocks))\n  File "/home/famihug/Apps/web2py/gluon/template.py", line 136, in output\n    lines.append(blocks[node.name].output(blocks))\n  File "/home/famihug/Apps/web2py/gluon/template.py", line 136, in output\n    lines.append(blocks[node.name].output(blocks))\n  File "/home/famihug/Apps/web2py/gluon/template.py", line 136, in output\n    lines.append(blocks[node.name].output(blocks))\n  File "/home/famihug/Apps/web2py/gluon/template.py", line 136, in output\n    lines.append(blocks[node.name].output(blocks))\n  File "/home/famihug/Apps/web2py/gluon/template.py", line 136, in output\n    lines.append(blocks[node.name].output(blocks))\n  File "/home/famihug/Apps/web2py/gluon/template.py", line 136, in output\n    lines.append(blocks[node.name].output(blocks))\n  File "/home/famihug/Apps/web2py/gluon/template.py", line 136, in output\n    lines.append(blocks[node.name].output(blocks))\n  File "/home/famihug/Apps/web2py/gluon/template.py", line 136, in output\n    lines.append(blocks[node.name].output(blocks))\n  File "/home/famihug/Apps/web2py/gluon/template.py", line 136, in output\n    lines.append(blocks[node.name].output(blocks))\n  File "/home/famihug/Apps/web2py/gluon/template.py", line 136, in output\n    lines.append(blocks[node.name].output(blocks))\n  File "/home/famihug/Apps/web2py/gluon/template.py", line 136, in output\n    lines.append(blocks[node.name].output(blocks))\n  File "/home/famihug/Apps/web2py/gluon/template.py", line 136, in output\n    lines.append(blocks[node.name].output(blocks))\n  File "/home/famihug/Apps/web2py/gluon/template.py", line 136, in output\n    lines.append(blocks[node.name].output(blocks))\n  File "/home/famihug/Apps/web2py/gluon/template.py", line 136, in output\n    lines.append(blocks[node.name].output(blocks))\n  File "/home/famihug/Apps/web2py/gluon/template.py", line 136, in output\n    lines.append(blocks[node.name].output(blocks))\n  File "/home/famihug/Apps/web2py/gluon/template.py", line 136, in output\n    lines.append(blocks[node.name].output(blocks))\n  File "/home/famihug/Apps/web2py/gluon/template.py", line 136, in output\n    lines.append(blocks[node.name].output(blocks))\n  File "/home/famihug/Apps/web2py/gluon/template.py", line 136, in output\n    lines.append(blocks[node.name].output(blocks))\n  File "/home/famihug/Apps/web2py/gluon/template.py", line 136, in output\n    lines.append(blocks[node.name].output(blocks))\n  File "/home/famihug/Apps/web2py/gluon/template.py", line 136, in output\n    lines.append(blocks[node.name].output(blocks))\n  File "/home/famihug/Apps/web2py/gluon/template.py", line 136, in output\n    lines.append(blocks[node.name].output(blocks))\n  File "/home/famihug/Apps/web2py/gluon/template.py", line 136, in output\n    lines.append(blocks[node.name].output(blocks))\n  File "/home/famihug/Apps/web2py/gluon/template.py", line 136, in output\n    lines.append(blocks[node.name].output(blocks))\n  File "/home/famihug/Apps/web2py/gluon/template.py", line 136, in output\n    lines.append(blocks[node.name].output(blocks))\n  File "/home/famihug/Apps/web2py/gluon/template.py", line 136, in output\n    lines.append(blocks[node.name].output(blocks))\n  File "/home/famihug/Apps/web2py/gluon/template.py", line 136, in output\n    lines.append(blocks[node.name].output(blocks))\n  File "/home/famihug/Apps/web2py/gluon/template.py", line 136, in output\n    lines.append(blocks[node.name].output(blocks))\n  File "/home/famihug/Apps/web2py/gluon/template.py", line 136, in output\n    lines.append(blocks[node.name].output(blocks))\n  File "/home/famihug/Apps/web2py/gluon/template.py", line 136, in output\n    lines.append(blocks[node.name].output(blocks))\n  File "/home/famihug/Apps/web2py/gluon/template.py", line 136, in output\n    lines.append(blocks[node.name].output(blocks))\n  File "/home/famihug/Apps/web2py/gluon/template.py", line 136, in output\n    lines.append(blocks[node.name].output(blocks))\n  File "/home/famihug/Apps/web2py/gluon/template.py", line 136, in output\n    lines.append(blocks[node.name].output(blocks))\n  File "/home/famihug/Apps/web2py/gluon/template.py", line 136, in output\n    lines.append(blocks[node.name].output(blocks))\n  File "/home/famihug/Apps/web2py/gluon/template.py", line 136, in output\n    lines.append(blocks[node.name].output(blocks))\n  File "/home/famihug/Apps/web2py/gluon/template.py", line 136, in output\n    lines.append(blocks[node.name].output(blocks))\n  File "/home/famihug/Apps/web2py/gluon/template.py", line 136, in output\n    lines.append(blocks[node.name].output(blocks))\n  File "/home/famihug/Apps/web2py/gluon/template.py", line 136, in output\n    lines.append(blocks[node.name].output(blocks))\n  File "/home/famihug/Apps/web2py/gluon/template.py", line 136, in output\n    lines.append(blocks[node.name].output(blocks))\n  File "/home/famihug/Apps/web2py/gluon/template.py", line 136, in output\n    lines.append(blocks[node.name].output(blocks))\n  File "/home/famihug/Apps/web2py/gluon/template.py", line 136, in output\n    lines.append(blocks[node.name].output(blocks))\n  File "/home/famihug/Apps/web2py/gluon/template.py", line 136, in output\n    lines.append(blocks[node.name].output(blocks))\n  File "/home/famihug/Apps/web2py/gluon/template.py", line 136, in output\n    lines.append(blocks[node.name].output(blocks))\n  File "/home/famihug/Apps/web2py/gluon/template.py", line 136, in output\n    lines.append(blocks[node.name].output(blocks))\n  File "/home/famihug/Apps/web2py/gluon/template.py", line 136, in output\n    lines.append(blocks[node.name].output(blocks))\n  File "/home/famihug/Apps/web2py/gluon/template.py", line 136, in output\n    lines.append(blocks[node.name].output(blocks))\n  File "/home/famihug/Apps/web2py/gluon/template.py", line 136, in output\n    lines.append(blocks[node.name].output(blocks))\n  File "/home/famihug/Apps/web2py/gluon/template.py", line 136, in output\n    lines.append(blocks[node.name].output(blocks))\n  File "/home/famihug/Apps/web2py/gluon/template.py", line 136, in output\n    lines.append(blocks[node.name].output(blocks))\n  File "/home/famihug/Apps/web2py/gluon/template.py", line 136, in output\n    lines.append(blocks[node.name].output(blocks))\n  File "/home/famihug/Apps/web2py/gluon/template.py", line 136, in output\n    lines.append(blocks[node.name].output(blocks))\n  File "/home/famihug/Apps/web2py/gluon/template.py", line 136, in output\n    lines.append(blocks[node.name].output(blocks))\n  File "/home/famihug/Apps/web2py/gluon/template.py", line 136, in output\n    lines.append(blocks[node.name].output(blocks))\n  File "/home/famihug/Apps/web2py/gluon/template.py", line 136, in output\n    lines.append(blocks[node.name].output(blocks))\n  File "/home/famihug/Apps/web2py/gluon/template.py", line 136, in output\n    lines.append(blocks[node.name].output(blocks))\n  File "/home/famihug/Apps/web2py/gluon/template.py", line 136, in output\n    lines.append(blocks[node.name].output(blocks))\n  File "/home/famihug/Apps/web2py/gluon/template.py", line 136, in output\n    lines.append(blocks[node.name].output(blocks))\n  File "/home/famihug/Apps/web2py/gluon/template.py", line 136, in output\n    lines.append(blocks[node.name].output(blocks))\n  File "/home/famihug/Apps/web2py/gluon/template.py", line 136, in output\n    lines.append(blocks[node.name].output(blocks))\n  File "/home/famihug/Apps/web2py/gluon/template.py", line 136, in output\n    lines.append(blocks[node.name].output(blocks))\n  File "/home/famihug/Apps/web2py/gluon/template.py", line 136, in output\n    lines.append(blocks[node.name].output(blocks))\n  File "/home/famihug/Apps/web2py/gluon/template.py", line 136, in output\n    lines.append(blocks[node.name].output(blocks))\n  File "/home/famihug/Apps/web2py/gluon/template.py", line 136, in output\n    lines.append(blocks[node.name].output(blocks))\n  File "/home/famihug/Apps/web2py/gluon/template.py", line 136, in output\n    lines.append(blocks[node.name].output(blocks))\n  File "/home/famihug/Apps/web2py/gluon/template.py", line 136, in output\n    lines.append(blocks[node.name].output(blocks))\n  File "/home/famihug/Apps/web2py/gluon/template.py", line 136, in output\n    lines.append(blocks[node.name].output(blocks))\n  File "/home/famihug/Apps/web2py/gluon/template.py", line 136, in output\n    lines.append(blocks[node.name].output(blocks))\n  File "/home/famihug/Apps/web2py/gluon/template.py", line 136, in output\n    lines.append(blocks[node.name].output(blocks))\n  File "/home/famihug/Apps/web2py/gluon/template.py", line 136, in output\n    lines.append(blocks[node.name].output(blocks))\n  File "/home/famihug/Apps/web2py/gluon/template.py", line 136, in output\n    lines.append(blocks[node.name].output(blocks))\n  File "/home/famihug/Apps/web2py/gluon/template.py", line 136, in output\n    lines.append(blocks[node.name].output(blocks))\n  File "/home/famihug/Apps/web2py/gluon/template.py", line 136, in output\n    lines.append(blocks[node.name].output(blocks))\n  File "/home/famihug/Apps/web2py/gluon/template.py", line 136, in output\n    lines.append(blocks[node.name].output(blocks))\n  File "/home/famihug/Apps/web2py/gluon/template.py", line 136, in output\n    lines.append(blocks[node.name].output(blocks))\n  File "/home/famihug/Apps/web2py/gluon/template.py", line 136, in output\n    lines.append(blocks[node.name].output(blocks))\n  File "/home/famihug/Apps/web2py/gluon/template.py", line 136, in output\n    lines.append(blocks[node.name].output(blocks))\n  File "/home/famihug/Apps/web2py/gluon/template.py", line 136, in output\n    lines.append(blocks[node.name].output(blocks))\n  File "/home/famihug/Apps/web2py/gluon/template.py", line 136, in output\n    lines.append(blocks[node.name].output(blocks))\n  File "/home/famihug/Apps/web2py/gluon/template.py", line 136, in output\n    lines.append(blocks[node.name].output(blocks))\n  File "/home/famihug/Apps/web2py/gluon/template.py", line 136, in output\n    lines.append(blocks[node.name].output(blocks))\n  File "/home/famihug/Apps/web2py/gluon/template.py", line 136, in output\n    lines.append(blocks[node.name].output(blocks))\n  File "/home/famihug/Apps/web2py/gluon/template.py", line 136, in output\n    lines.append(blocks[node.name].output(blocks))\n  File "/home/famihug/Apps/web2py/gluon/template.py", line 136, in output\n    lines.append(blocks[node.name].output(blocks))\n  File "/home/famihug/Apps/web2py/gluon/template.py", line 136, in output\n    lines.append(blocks[node.name].output(blocks))\n  File "/home/famihug/Apps/web2py/gluon/template.py", line 136, in output\n    lines.append(blocks[node.name].output(blocks))\n  File "/home/famihug/Apps/web2py/gluon/template.py", line 136, in output\n    lines.append(blocks[node.name].output(blocks))\n  File "/home/famihug/Apps/web2py/gluon/template.py", line 136, in output\n    lines.append(blocks[node.name].output(blocks))\n  File "/home/famihug/Apps/web2py/gluon/template.py", line 136, in output\n    lines.append(blocks[node.name].output(blocks))\n  File "/home/famihug/Apps/web2py/gluon/template.py", line 136, in output\n    lines.append(blocks[node.name].output(blocks))\n  File "/home/famihug/Apps/web2py/gluon/template.py", line 136, in output\n    lines.append(blocks[node.name].output(blocks))\n  File "/home/famihug/Apps/web2py/gluon/template.py", line 136, in output\n    lines.append(blocks[node.name].output(blocks))\n  File "/home/famihug/Apps/web2py/gluon/template.py", line 136, in output\n    lines.append(blocks[node.name].output(blocks))\n  File "/home/famihug/Apps/web2py/gluon/template.py", line 136, in output\n    lines.append(blocks[node.name].output(blocks))\n  File "/home/famihug/Apps/web2py/gluon/template.py", line 136, in output\n    lines.append(blocks[node.name].output(blocks))\n  File "/home/famihug/Apps/web2py/gluon/template.py", line 136, in output\n    lines.append(blocks[node.name].output(blocks))\n  File "/home/famihug/Apps/web2py/gluon/template.py", line 136, in output\n    lines.append(blocks[node.name].output(blocks))\n  File "/home/famihug/Apps/web2py/gluon/template.py", line 136, in output\n    lines.append(blocks[node.name].output(blocks))\n  File "/home/famihug/Apps/web2py/gluon/template.py", line 136, in output\n    lines.append(blocks[node.name].output(blocks))\n  File "/home/famihug/Apps/web2py/gluon/template.py", line 136, in output\n    lines.append(blocks[node.name].output(blocks))\n  File "/home/famihug/Apps/web2py/gluon/template.py", line 136, in output\n    lines.append(blocks[node.name].output(blocks))\n  File "/home/famihug/Apps/web2py/gluon/template.py", line 136, in output\n    lines.append(blocks[node.name].output(blocks))\n  File "/home/famihug/Apps/web2py/gluon/template.py", line 136, in output\n    lines.append(blocks[node.name].output(blocks))\n  File "/home/famihug/Apps/web2py/gluon/template.py", line 136, in output\n    lines.append(blocks[node.name].output(blocks))\n  File "/home/famihug/Apps/web2py/gluon/template.py", line 136, in output\n    lines.append(blocks[node.name].output(blocks))\n  File "/home/famihug/Apps/web2py/gluon/template.py", line 136, in output\n    lines.append(blocks[node.name].output(blocks))\n  File "/home/famihug/Apps/web2py/gluon/template.py", line 136, in output\n    lines.append(blocks[node.name].output(blocks))\n  File "/home/famihug/Apps/web2py/gluon/template.py", line 136, in output\n    lines.append(blocks[node.name].output(blocks))\n  File "/home/famihug/Apps/web2py/gluon/template.py", line 136, in output\n    lines.append(blocks[node.name].output(blocks))\n  File "/home/famihug/Apps/web2py/gluon/template.py", line 136, in output\n    lines.append(blocks[node.name].output(blocks))\n  File "/home/famihug/Apps/web2py/gluon/template.py", line 136, in output\n    lines.append(blocks[node.name].output(blocks))\n  File "/home/famihug/Apps/web2py/gluon/template.py", line 136, in output\n    lines.append(blocks[node.name].output(blocks))\n  File "/home/famihug/Apps/web2py/gluon/template.py", line 136, in output\n    lines.append(blocks[node.name].output(blocks))\n  File "/home/famihug/Apps/web2py/gluon/template.py", line 136, in output\n    lines.append(blocks[node.name].output(blocks))\n  File "/home/famihug/Apps/web2py/gluon/template.py", line 136, in output\n    lines.append(blocks[node.name].output(blocks))\n  File "/home/famihug/Apps/web2py/gluon/template.py", line 136, in output\n    lines.append(blocks[node.name].output(blocks))\n  File "/home/famihug/Apps/web2py/gluon/template.py", line 136, in output\n    lines.append(blocks[node.name].output(blocks))\n  File "/home/famihug/Apps/web2py/gluon/template.py", line 136, in output\n    lines.append(blocks[node.name].output(blocks))\n  File "/home/famihug/Apps/web2py/gluon/template.py", line 136, in output\n    lines.append(blocks[node.name].output(blocks))\n  File "/home/famihug/Apps/web2py/gluon/template.py", line 136, in output\n    lines.append(blocks[node.name].output(blocks))\n  File "/home/famihug/Apps/web2py/gluon/template.py", line 136, in output\n    lines.append(blocks[node.name].output(blocks))\n  File "/home/famihug/Apps/web2py/gluon/template.py", line 136, in output\n    lines.append(blocks[node.name].output(blocks))\n  File "/home/famihug/Apps/web2py/gluon/template.py", line 136, in output\n    lines.append(blocks[node.name].output(blocks))\n  File "/home/famihug/Apps/web2py/gluon/template.py", line 136, in output\n    lines.append(blocks[node.name].output(blocks))\n  File "/home/famihug/Apps/web2py/gluon/template.py", line 136, in output\n    lines.append(blocks[node.name].output(blocks))\n  File "/home/famihug/Apps/web2py/gluon/template.py", line 136, in output\n    lines.append(blocks[node.name].output(blocks))\n  File "/home/famihug/Apps/web2py/gluon/template.py", line 136, in output\n    lines.append(blocks[node.name].output(blocks))\n  File "/home/famihug/Apps/web2py/gluon/template.py", line 136, in output\n    lines.append(blocks[node.name].output(blocks))\n  File "/home/famihug/Apps/web2py/gluon/template.py", line 136, in output\n    lines.append(blocks[node.name].output(blocks))\n  File "/home/famihug/Apps/web2py/gluon/template.py", line 136, in output\n    lines.append(blocks[node.name].output(blocks))\n  File "/home/famihug/Apps/web2py/gluon/template.py", line 136, in output\n    lines.append(blocks[node.name].output(blocks))\n  File "/home/famihug/Apps/web2py/gluon/template.py", line 136, in output\n    lines.append(blocks[node.name].output(blocks))\n  File "/home/famihug/Apps/web2py/gluon/template.py", line 136, in output\n    lines.append(blocks[node.name].output(blocks))\n  File "/home/famihug/Apps/web2py/gluon/template.py", line 136, in output\n    lines.append(blocks[node.name].output(blocks))\n  File "/home/famihug/Apps/web2py/gluon/template.py", line 136, in output\n    lines.append(blocks[node.name].output(blocks))\n  File "/home/famihug/Apps/web2py/gluon/template.py", line 136, in output\n    lines.append(blocks[node.name].output(blocks))\n  File "/home/famihug/Apps/web2py/gluon/template.py", line 136, in output\n    lines.append(blocks[node.name].output(blocks))\n  File "/home/famihug/Apps/web2py/gluon/template.py", line 136, in output\n    lines.append(blocks[node.name].output(blocks))\n  File "/home/famihug/Apps/web2py/gluon/template.py", line 136, in output\n    lines.append(blocks[node.name].output(blocks))\n  File "/home/famihug/Apps/web2py/gluon/template.py", line 136, in output\n    lines.append(blocks[node.name].output(blocks))\n  File "/home/famihug/Apps/web2py/gluon/template.py", line 136, in output\n    lines.append(blocks[node.name].output(blocks))\n  File "/home/famihug/Apps/web2py/gluon/template.py", line 136, in output\n    lines.append(blocks[node.name].output(blocks))\n  File "/home/famihug/Apps/web2py/gluon/template.py", line 136, in output\n    lines.append(blocks[node.name].output(blocks))\n  File "/home/famihug/Apps/web2py/gluon/template.py", line 136, in output\n    lines.append(blocks[node.name].output(blocks))\n  File "/home/famihug/Apps/web2py/gluon/template.py", line 136, in output\n    lines.append(blocks[node.name].output(blocks))\n  File "/home/famihug/Apps/web2py/gluon/template.py", line 136, in output\n    lines.append(blocks[node.name].output(blocks))\n  File "/home/famihug/Apps/web2py/gluon/template.py", line 136, in output\n    lines.append(blocks[node.name].output(blocks))\n  File "/home/famihug/Apps/web2py/gluon/template.py", line 136, in output\n    lines.append(blocks[node.name].output(blocks))\n  File "/home/famihug/Apps/web2py/gluon/template.py", line 136, in output\n    lines.append(blocks[node.name].output(blocks))\n  File "/home/famihug/Apps/web2py/gluon/template.py", line 136, in output\n    lines.append(blocks[node.name].output(blocks))\n  File "/home/famihug/Apps/web2py/gluon/template.py", line 136, in output\n    lines.append(blocks[node.name].output(blocks))\n  File "/home/famihug/Apps/web2py/gluon/template.py", line 136, in output\n    lines.append(blocks[node.name].output(blocks))\n  File "/home/famihug/Apps/web2py/gluon/template.py", line 136, in output\n    lines.append(blocks[node.name].output(blocks))\n  File "/home/famihug/Apps/web2py/gluon/template.py", line 136, in output\n    lines.append(blocks[node.name].output(blocks))\n  File "/home/famihug/Apps/web2py/gluon/template.py", line 136, in output\n    lines.append(blocks[node.name].output(blocks))\n  File "/home/famihug/Apps/web2py/gluon/template.py", line 136, in output\n    lines.append(blocks[node.name].output(blocks))\n  File "/home/famihug/Apps/web2py/gluon/template.py", line 136, in output\n    lines.append(blocks[node.name].output(blocks))\n  File "/home/famihug/Apps/web2py/gluon/template.py", line 136, in output\n    lines.append(blocks[node.name].output(blocks))\n  File "/home/famihug/Apps/web2py/gluon/template.py", line 136, in output\n    lines.append(blocks[node.name].output(blocks))\n  File "/home/famihug/Apps/web2py/gluon/template.py", line 136, in output\n    lines.append(blocks[node.name].output(blocks))\n  File "/home/famihug/Apps/web2py/gluon/template.py", line 136, in output\n    lines.append(blocks[node.name].output(blocks))\n  File "/home/famihug/Apps/web2py/gluon/template.py", line 136, in output\n    lines.append(blocks[node.name].output(blocks))\n  File "/home/famihug/Apps/web2py/gluon/template.py", line 136, in output\n    lines.append(blocks[node.name].output(blocks))\n  File "/home/famihug/Apps/web2py/gluon/template.py", line 136, in output\n    lines.append(blocks[node.name].output(blocks))\n  File "/home/famihug/Apps/web2py/gluon/template.py", line 136, in output\n    lines.append(blocks[node.name].output(blocks))\n  File "/home/famihug/Apps/web2py/gluon/template.py", line 136, in output\n    lines.append(blocks[node.name].output(blocks))\n  File "/home/famihug/Apps/web2py/gluon/template.py", line 136, in output\n    lines.append(blocks[node.name].output(blocks))\n  File "/home/famihug/Apps/web2py/gluon/template.py", line 136, in output\n    lines.append(blocks[node.name].output(blocks))\n  File "/home/famihug/Apps/web2py/gluon/template.py", line 136, in output\n    lines.append(blocks[node.name].output(blocks))\n  File "/home/famihug/Apps/web2py/gluon/template.py", line 136, in output\n    lines.append(blocks[node.name].output(blocks))\n  File "/home/famihug/Apps/web2py/gluon/template.py", line 136, in output\n    lines.append(blocks[node.name].output(blocks))\n  File "/home/famihug/Apps/web2py/gluon/template.py", line 136, in output\n    lines.append(blocks[node.name].output(blocks))\n  File "/home/famihug/Apps/web2py/gluon/template.py", line 136, in output\n    lines.append(blocks[node.name].output(blocks))\n  File "/home/famihug/Apps/web2py/gluon/template.py", line 136, in output\n    lines.append(blocks[node.name].output(blocks))\n  File "/home/famihug/Apps/web2py/gluon/template.py", line 136, in output\n    lines.append(blocks[node.name].output(blocks))\n  File "/home/famihug/Apps/web2py/gluon/template.py", line 136, in output\n    lines.append(blocks[node.name].output(blocks))\n  File "/home/famihug/Apps/web2py/gluon/template.py", line 136, in output\n    lines.append(blocks[node.name].output(blocks))\n  File "/home/famihug/Apps/web2py/gluon/template.py", line 136, in output\n    lines.append(blocks[node.name].output(blocks))\n  File "/home/famihug/Apps/web2py/gluon/template.py", line 136, in output\n    lines.append(blocks[node.name].output(blocks))\n  File "/home/famihug/Apps/web2py/gluon/template.py", line 136, in output\n    lines.append(blocks[node.name].output(blocks))\n  File "/home/famihug/Apps/web2py/gluon/template.py", line 136, in output\n    lines.append(blocks[node.name].output(blocks))\n  File "/home/famihug/Apps/web2py/gluon/template.py", line 136, in output\n    lines.append(blocks[node.name].output(blocks))\n  File "/home/famihug/Apps/web2py/gluon/template.py", line 136, in output\n    lines.append(blocks[node.name].output(blocks))\n  File "/home/famihug/Apps/web2py/gluon/template.py", line 136, in output\n    lines.append(blocks[node.name].output(blocks))\n  File "/home/famihug/Apps/web2py/gluon/template.py", line 136, in output\n    lines.append(blocks[node.name].output(blocks))\n  File "/home/famihug/Apps/web2py/gluon/template.py", line 136, in output\n    lines.append(blocks[node.name].output(blocks))\n  File "/home/famihug/Apps/web2py/gluon/template.py", line 136, in output\n    lines.append(blocks[node.name].output(blocks))\n  File "/home/famihug/Apps/web2py/gluon/template.py", line 136, in output\n    lines.append(blocks[node.name].output(blocks))\n  File "/home/famihug/Apps/web2py/gluon/template.py", line 136, in output\n    lines.append(blocks[node.name].output(blocks))\n  File "/home/famihug/Apps/web2py/gluon/template.py", line 136, in output\n    lines.append(blocks[node.name].output(blocks))\n  File "/home/famihug/Apps/web2py/gluon/template.py", line 136, in output\n    lines.append(blocks[node.name].output(blocks))\n  File "/home/famihug/Apps/web2py/gluon/template.py", line 136, in output\n    lines.append(blocks[node.name].output(blocks))\n  File "/home/famihug/Apps/web2py/gluon/template.py", line 136, in output\n    lines.append(blocks[node.name].output(blocks))\n  File "/home/famihug/Apps/web2py/gluon/template.py", line 136, in output\n    lines.append(blocks[node.name].output(blocks))\n  File "/home/famihug/Apps/web2py/gluon/template.py", line 136, in output\n    lines.append(blocks[node.name].output(blocks))\n  File "/home/famihug/Apps/web2py/gluon/template.py", line 136, in output\n    lines.append(blocks[node.name].output(blocks))\n  File "/home/famihug/Apps/web2py/gluon/template.py", line 136, in output\n    lines.append(blocks[node.name].output(blocks))\n  File "/home/famihug/Apps/web2py/gluon/template.py", line 136, in output\n    lines.append(blocks[node.name].output(blocks))\n  File "/home/famihug/Apps/web2py/gluon/template.py", line 136, in output\n    lines.append(blocks[node.name].output(blocks))\n  File "/home/famihug/Apps/web2py/gluon/template.py", line 136, in output\n    lines.append(blocks[node.name].output(blocks))\n  File "/home/famihug/Apps/web2py/gluon/template.py", line 136, in output\n    lines.append(blocks[node.name].output(blocks))\n  File "/home/famihug/Apps/web2py/gluon/template.py", line 136, in output\n    lines.append(blocks[node.name].output(blocks))\n  File "/home/famihug/Apps/web2py/gluon/template.py", line 136, in output\n    lines.append(blocks[node.name].output(blocks))\n  File "/home/famihug/Apps/web2py/gluon/template.py", line 136, in output\n    lines.append(blocks[node.name].output(blocks))\n  File "/home/famihug/Apps/web2py/gluon/template.py", line 136, in output\n    lines.append(blocks[node.name].output(blocks))\n  File "/home/famihug/Apps/web2py/gluon/template.py", line 136, in output\n    lines.append(blocks[node.name].output(blocks))\n  File "/home/famihug/Apps/web2py/gluon/template.py", line 136, in output\n    lines.append(blocks[node.name].output(blocks))\n  File "/home/famihug/Apps/web2py/gluon/template.py", line 136, in output\n    lines.append(blocks[node.name].output(blocks))\n  File "/home/famihug/Apps/web2py/gluon/template.py", line 136, in output\n    lines.append(blocks[node.name].output(blocks))\n  File "/home/famihug/Apps/web2py/gluon/template.py", line 136, in output\n    lines.append(blocks[node.name].output(blocks))\n  File "/home/famihug/Apps/web2py/gluon/template.py", line 136, in output\n    lines.append(blocks[node.name].output(blocks))\n  File "/home/famihug/Apps/web2py/gluon/template.py", line 136, in output\n    lines.append(blocks[node.name].output(blocks))\n  File "/home/famihug/Apps/web2py/gluon/template.py", line 136, in output\n    lines.append(blocks[node.name].output(blocks))\n  File "/home/famihug/Apps/web2py/gluon/template.py", line 136, in output\n    lines.append(blocks[node.name].output(blocks))\n  File "/home/famihug/Apps/web2py/gluon/template.py", line 136, in output\n    lines.append(blocks[node.name].output(blocks))\n  File "/home/famihug/Apps/web2py/gluon/template.py", line 136, in output\n    lines.append(blocks[node.name].output(blocks))\n  File "/home/famihug/Apps/web2py/gluon/template.py", line 136, in output\n    lines.append(blocks[node.name].output(blocks))\n  File "/home/famihug/Apps/web2py/gluon/template.py", line 136, in output\n    lines.append(blocks[node.name].output(blocks))\n  File "/home/famihug/Apps/web2py/gluon/template.py", line 136, in output\n    lines.append(blocks[node.name].output(blocks))\n  File "/home/famihug/Apps/web2py/gluon/template.py", line 136, in output\n    lines.append(blocks[node.name].output(blocks))\n  File "/home/famihug/Apps/web2py/gluon/template.py", line 136, in output\n    lines.append(blocks[node.name].output(blocks))\n  File "/home/famihug/Apps/web2py/gluon/template.py", line 136, in output\n    lines.append(blocks[node.name].output(blocks))\n  File "/home/famihug/Apps/web2py/gluon/template.py", line 136, in output\n    lines.append(blocks[node.name].output(blocks))\n  File "/home/famihug/Apps/web2py/gluon/template.py", line 136, in output\n    lines.append(blocks[node.name].output(blocks))\n  File "/home/famihug/Apps/web2py/gluon/template.py", line 136, in output\n    lines.append(blocks[node.name].output(blocks))\n  File "/home/famihug/Apps/web2py/gluon/template.py", line 136, in output\n    lines.append(blocks[node.name].output(blocks))\n  File "/home/famihug/Apps/web2py/gluon/template.py", line 136, in output\n    lines.append(blocks[node.name].output(blocks))\n  File "/home/famihug/Apps/web2py/gluon/template.py", line 136, in output\n    lines.append(blocks[node.name].output(blocks))\n  File "/home/famihug/Apps/web2py/gluon/template.py", line 136, in output\n    lines.append(blocks[node.name].output(blocks))\n  File "/home/famihug/Apps/web2py/gluon/template.py", line 136, in output\n    lines.append(blocks[node.name].output(blocks))\n  File "/home/famihug/Apps/web2py/gluon/template.py", line 136, in output\n    lines.append(blocks[node.name].output(blocks))\n  File "/home/famihug/Apps/web2py/gluon/template.py", line 136, in output\n    lines.append(blocks[node.name].output(blocks))\n  File "/home/famihug/Apps/web2py/gluon/template.py", line 136, in output\n    lines.append(blocks[node.name].output(blocks))\n  File "/home/famihug/Apps/web2py/gluon/template.py", line 136, in output\n    lines.append(blocks[node.name].output(blocks))\n  File "/home/famihug/Apps/web2py/gluon/template.py", line 136, in output\n    lines.append(blocks[node.name].output(blocks))\n  File "/home/famihug/Apps/web2py/gluon/template.py", line 136, in output\n    lines.append(blocks[node.name].output(blocks))\n  File "/home/famihug/Apps/web2py/gluon/template.py", line 136, in output\n    lines.append(blocks[node.name].output(blocks))\n  File "/home/famihug/Apps/web2py/gluon/template.py", line 136, in output\n    lines.append(blocks[node.name].output(blocks))\n  File "/home/famihug/Apps/web2py/gluon/template.py", line 136, in output\n    lines.append(blocks[node.name].output(blocks))\n  File "/home/famihug/Apps/web2py/gluon/template.py", line 136, in output\n    lines.append(blocks[node.name].output(blocks))\n  File "/home/famihug/Apps/web2py/gluon/template.py", line 136, in output\n    lines.append(blocks[node.name].output(blocks))\n  File "/home/famihug/Apps/web2py/gluon/template.py", line 136, in output\n    lines.append(blocks[node.name].output(blocks))\n  File "/home/famihug/Apps/web2py/gluon/template.py", line 136, in output\n    lines.append(blocks[node.name].output(blocks))\n  File "/home/famihug/Apps/web2py/gluon/template.py", line 136, in output\n    lines.append(blocks[node.name].output(blocks))\n  File "/home/famihug/Apps/web2py/gluon/template.py", line 136, in output\n    lines.append(blocks[node.name].output(blocks))\n  File "/home/famihug/Apps/web2py/gluon/template.py", line 136, in output\n    lines.append(blocks[node.name].output(blocks))\n  File "/home/famihug/Apps/web2py/gluon/template.py", line 136, in output\n    lines.append(blocks[node.name].output(blocks))\n  File "/home/famihug/Apps/web2py/gluon/template.py", line 136, in output\n    lines.append(blocks[node.name].output(blocks))\n  File "/home/famihug/Apps/web2py/gluon/template.py", line 136, in output\n    lines.append(blocks[node.name].output(blocks))\n  File "/home/famihug/Apps/web2py/gluon/template.py", line 136, in output\n    lines.append(blocks[node.name].output(blocks))\n  File "/home/famihug/Apps/web2py/gluon/template.py", line 136, in output\n    lines.append(blocks[node.name].output(blocks))\n  File "/home/famihug/Apps/web2py/gluon/template.py", line 136, in output\n    lines.append(blocks[node.name].output(blocks))\n  File "/home/famihug/Apps/web2py/gluon/template.py", line 136, in output\n    lines.append(blocks[node.name].output(blocks))\n  File "/home/famihug/Apps/web2py/gluon/template.py", line 136, in output\n    lines.append(blocks[node.name].output(blocks))\n  File "/home/famihug/Apps/web2py/gluon/template.py", line 136, in output\n    lines.append(blocks[node.name].output(blocks))\n  File "/home/famihug/Apps/web2py/gluon/template.py", line 136, in output\n    lines.append(blocks[node.name].output(blocks))\n  File "/home/famihug/Apps/web2py/gluon/template.py", line 136, in output\n    lines.append(blocks[node.name].output(blocks))\n  File "/home/famihug/Apps/web2py/gluon/template.py", line 136, in output\n    lines.append(blocks[node.name].output(blocks))\n  File "/home/famihug/Apps/web2py/gluon/template.py", line 136, in output\n    lines.append(blocks[node.name].output(blocks))\n  File "/home/famihug/Apps/web2py/gluon/template.py", line 136, in output\n    lines.append(blocks[node.name].output(blocks))\n  File "/home/famihug/Apps/web2py/gluon/template.py", line 136, in output\n    lines.append(blocks[node.name].output(blocks))\n  File "/home/famihug/Apps/web2py/gluon/template.py", line 136, in output\n    lines.append(blocks[node.name].output(blocks))\n  File "/home/famihug/Apps/web2py/gluon/template.py", line 136, in output\n    lines.append(blocks[node.name].output(blocks))\n  File "/home/famihug/Apps/web2py/gluon/template.py", line 136, in output\n    lines.append(blocks[node.name].output(blocks))\n  File "/home/famihug/Apps/web2py/gluon/template.py", line 136, in output\n    lines.append(blocks[node.name].output(blocks))\n  File "/home/famihug/Apps/web2py/gluon/template.py", line 136, in output\n    lines.append(blocks[node.name].output(blocks))\n  File "/home/famihug/Apps/web2py/gluon/template.py", line 136, in output\n    lines.append(blocks[node.name].output(blocks))\n  File "/home/famihug/Apps/web2py/gluon/template.py", line 136, in output\n    lines.append(blocks[node.name].output(blocks))\n  File "/home/famihug/Apps/web2py/gluon/template.py", line 136, in output\n    lines.append(blocks[node.name].output(blocks))\n  File "/home/famihug/Apps/web2py/gluon/template.py", line 136, in output\n    lines.append(blocks[node.name].output(blocks))\n  File "/home/famihug/Apps/web2py/gluon/template.py", line 136, in output\n    lines.append(blocks[node.name].output(blocks))\n  File "/home/famihug/Apps/web2py/gluon/template.py", line 136, in output\n    lines.append(blocks[node.name].output(blocks))\n  File "/home/famihug/Apps/web2py/gluon/template.py", line 136, in output\n    lines.append(blocks[node.name].output(blocks))\n  File "/home/famihug/Apps/web2py/gluon/template.py", line 136, in output\n    lines.append(blocks[node.name].output(blocks))\n  File "/home/famihug/Apps/web2py/gluon/template.py", line 136, in output\n    lines.append(blocks[node.name].output(blocks))\n  File "/home/famihug/Apps/web2py/gluon/template.py", line 136, in output\n    lines.append(blocks[node.name].output(blocks))\n  File "/home/famihug/Apps/web2py/gluon/template.py", line 136, in output\n    lines.append(blocks[node.name].output(blocks))\n  File "/home/famihug/Apps/web2py/gluon/template.py", line 136, in output\n    lines.append(blocks[node.name].output(blocks))\n  File "/home/famihug/Apps/web2py/gluon/template.py", line 136, in output\n    lines.append(blocks[node.name].output(blocks))\n  File "/home/famihug/Apps/web2py/gluon/template.py", line 136, in output\n    lines.append(blocks[node.name].output(blocks))\n  File "/home/famihug/Apps/web2py/gluon/template.py", line 136, in output\n    lines.append(blocks[node.name].output(blocks))\n  File "/home/famihug/Apps/web2py/gluon/template.py", line 136, in output\n    lines.append(blocks[node.name].output(blocks))\n  File "/home/famihug/Apps/web2py/gluon/template.py", line 136, in output\n    lines.append(blocks[node.name].output(blocks))\n  File "/home/famihug/Apps/web2py/gluon/template.py", line 136, in output\n    lines.append(blocks[node.name].output(blocks))\n  File "/home/famihug/Apps/web2py/gluon/template.py", line 136, in output\n    lines.append(blocks[node.name].output(blocks))\n  File "/home/famihug/Apps/web2py/gluon/template.py", line 136, in output\n    lines.append(blocks[node.name].output(blocks))\n  File "/home/famihug/Apps/web2py/gluon/template.py", line 136, in output\n    lines.append(blocks[node.name].output(blocks))\n  File "/home/famihug/Apps/web2py/gluon/template.py", line 136, in output\n    lines.append(blocks[node.name].output(blocks))\n  File "/home/famihug/Apps/web2py/gluon/template.py", line 136, in output\n    lines.append(blocks[node.name].output(blocks))\n  File "/home/famihug/Apps/web2py/gluon/template.py", line 136, in output\n    lines.append(blocks[node.name].output(blocks))\n  File "/home/famihug/Apps/web2py/gluon/template.py", line 136, in output\n    lines.append(blocks[node.name].output(blocks))\n  File "/home/famihug/Apps/web2py/gluon/template.py", line 136, in output\n    lines.append(blocks[node.name].output(blocks))\n  File "/home/famihug/Apps/web2py/gluon/template.py", line 136, in output\n    lines.append(blocks[node.name].output(blocks))\n  File "/home/famihug/Apps/web2py/gluon/template.py", line 136, in output\n    lines.append(blocks[node.name].output(blocks))\n  File "/home/famihug/Apps/web2py/gluon/template.py", line 136, in output\n    lines.append(blocks[node.name].output(blocks))\n  File "/home/famihug/Apps/web2py/gluon/template.py", line 136, in output\n    lines.append(blocks[node.name].output(blocks))\n  File "/home/famihug/Apps/web2py/gluon/template.py", line 136, in output\n    lines.append(blocks[node.name].output(blocks))\n  File "/home/famihug/Apps/web2py/gluon/template.py", line 136, in output\n    lines.append(blocks[node.name].output(blocks))\n  File "/home/famihug/Apps/web2py/gluon/template.py", line 136, in output\n    lines.append(blocks[node.name].output(blocks))\n  File "/home/famihug/Apps/web2py/gluon/template.py", line 136, in output\n    lines.append(blocks[node.name].output(blocks))\n  File "/home/famihug/Apps/web2py/gluon/template.py", line 136, in output\n    lines.append(blocks[node.name].output(blocks))\n  File "/home/famihug/Apps/web2py/gluon/template.py", line 136, in output\n    lines.append(blocks[node.name].output(blocks))\n  File "/home/famihug/Apps/web2py/gluon/template.py", line 136, in output\n    lines.append(blocks[node.name].output(blocks))\n  File "/home/famihug/Apps/web2py/gluon/template.py", line 136, in output\n    lines.append(blocks[node.name].output(blocks))\n  File "/home/famihug/Apps/web2py/gluon/template.py", line 136, in output\n    lines.append(blocks[node.name].output(blocks))\n  File "/home/famihug/Apps/web2py/gluon/template.py", line 136, in output\n    lines.append(blocks[node.name].output(blocks))\n  File "/home/famihug/Apps/web2py/gluon/template.py", line 136, in output\n    lines.append(blocks[node.name].output(blocks))\n  File "/home/famihug/Apps/web2py/gluon/template.py", line 136, in output\n    lines.append(blocks[node.name].output(blocks))\n  File "/home/famihug/Apps/web2py/gluon/template.py", line 136, in output\n    lines.append(blocks[node.name].output(blocks))\n  File "/home/famihug/Apps/web2py/gluon/template.py", line 136, in output\n    lines.append(blocks[node.name].output(blocks))\n  File "/home/famihug/Apps/web2py/gluon/template.py", line 136, in output\n    lines.append(blocks[node.name].output(blocks))\n  File "/home/famihug/Apps/web2py/gluon/template.py", line 136, in output\n    lines.append(blocks[node.name].output(blocks))\n  File "/home/famihug/Apps/web2py/gluon/template.py", line 136, in output\n    lines.append(blocks[node.name].output(blocks))\n  File "/home/famihug/Apps/web2py/gluon/template.py", line 136, in output\n    lines.append(blocks[node.name].output(blocks))\n  File "/home/famihug/Apps/web2py/gluon/template.py", line 136, in output\n    lines.append(blocks[node.name].output(blocks))\n  File "/home/famihug/Apps/web2py/gluon/template.py", line 136, in output\n    lines.append(blocks[node.name].output(blocks))\n  File "/home/famihug/Apps/web2py/gluon/template.py", line 136, in output\n    lines.append(blocks[node.name].output(blocks))\n  File "/home/famihug/Apps/web2py/gluon/template.py", line 136, in output\n    lines.append(blocks[node.name].output(blocks))\n  File "/home/famihug/Apps/web2py/gluon/template.py", line 136, in output\n    lines.append(blocks[node.name].output(blocks))\n  File "/home/famihug/Apps/web2py/gluon/template.py", line 136, in output\n    lines.append(blocks[node.name].output(blocks))\n  File "/home/famihug/Apps/web2py/gluon/template.py", line 136, in output\n    lines.append(blocks[node.name].output(blocks))\n  File "/home/famihug/Apps/web2py/gluon/template.py", line 136, in output\n    lines.append(blocks[node.name].output(blocks))\n  File "/home/famihug/Apps/web2py/gluon/template.py", line 136, in output\n    lines.append(blocks[node.name].output(blocks))\n  File "/home/famihug/Apps/web2py/gluon/template.py", line 136, in output\n    lines.append(blocks[node.name].output(blocks))\n  File "/home/famihug/Apps/web2py/gluon/template.py", line 136, in output\n    lines.append(blocks[node.name].output(blocks))\n  File "/home/famihug/Apps/web2py/gluon/template.py", line 136, in output\n    lines.append(blocks[node.name].output(blocks))\n  File "/home/famihug/Apps/web2py/gluon/template.py", line 136, in output\n    lines.append(blocks[node.name].output(blocks))\n  File "/home/famihug/Apps/web2py/gluon/template.py", line 136, in output\n    lines.append(blocks[node.name].output(blocks))\n  File "/home/famihug/Apps/web2py/gluon/template.py", line 136, in output\n    lines.append(blocks[node.name].output(blocks))\n  File "/home/famihug/Apps/web2py/gluon/template.py", line 136, in output\n    lines.append(blocks[node.name].output(blocks))\n  File "/home/famihug/Apps/web2py/gluon/template.py", line 136, in output\n    lines.append(blocks[node.name].output(blocks))\n  File "/home/famihug/Apps/web2py/gluon/template.py", line 136, in output\n    lines.append(blocks[node.name].output(blocks))\n  File "/home/famihug/Apps/web2py/gluon/template.py", line 136, in output\n    lines.append(blocks[node.name].output(blocks))\n  File "/home/famihug/Apps/web2py/gluon/template.py", line 136, in output\n    lines.append(blocks[node.name].output(blocks))\n  File "/home/famihug/Apps/web2py/gluon/template.py", line 136, in output\n    lines.append(blocks[node.name].output(blocks))\n  File "/home/famihug/Apps/web2py/gluon/template.py", line 136, in output\n    lines.append(blocks[node.name].output(blocks))\n  File "/home/famihug/Apps/web2py/gluon/template.py", line 136, in output\n    lines.append(blocks[node.name].output(blocks))\n  File "/home/famihug/Apps/web2py/gluon/template.py", line 136, in output\n    lines.append(blocks[node.name].output(blocks))\n  File "/home/famihug/Apps/web2py/gluon/template.py", line 136, in output\n    lines.append(blocks[node.name].output(blocks))\n  File "/home/famihug/Apps/web2py/gluon/template.py", line 136, in output\n    lines.append(blocks[node.name].output(blocks))\n  File "/home/famihug/Apps/web2py/gluon/template.py", line 136, in output\n    lines.append(blocks[node.name].output(blocks))\n  File "/home/famihug/Apps/web2py/gluon/template.py", line 136, in output\n    lines.append(blocks[node.name].output(blocks))\n  File "/home/famihug/Apps/web2py/gluon/template.py", line 136, in output\n    lines.append(blocks[node.name].output(blocks))\n  File "/home/famihug/Apps/web2py/gluon/template.py", line 136, in output\n    lines.append(blocks[node.name].output(blocks))\n  File "/home/famihug/Apps/web2py/gluon/template.py", line 136, in output\n    lines.append(blocks[node.name].output(blocks))\n  File "/home/famihug/Apps/web2py/gluon/template.py", line 136, in output\n    lines.append(blocks[node.name].output(blocks))\n  File "/home/famihug/Apps/web2py/gluon/template.py", line 136, in output\n    lines.append(blocks[node.name].output(blocks))\n  File "/home/famihug/Apps/web2py/gluon/template.py", line 136, in output\n    lines.append(blocks[node.name].output(blocks))\n  File "/home/famihug/Apps/web2py/gluon/template.py", line 142, in output\n    lines.append(str(node))\n  File "/home/famihug/Apps/web2py/gluon/template.py", line 38, in __str__\n    return str(self.value)\nRuntimeError: maximum recursion depth exceeded while calling a Python object\n'
p9
s.